(dp0
VMN0000295276
p1
(lp2
I691
asS'The Isley Brothers Featuring Ronald Isley AKA Mr. Biggs'
p3
(lp4
I890
asVMN0000245760
p5
(lp6
I1224
asS'Shaggy Featuring Rayvon'
p7
(lp8
I336
asVMN0000472925
p9
(lp10
I160
asVMN0000530745
p11
(lp12
I716
aI780
aI784
asVMN0000167517
p13
(lp14
I134
aI154
aI170
aI190
asVMN0000053606
p15
(lp16
I45
asVMN0000008828
p17
(lp18
I255
aI432
aI460
asVMN0000020050
p19
(lp20
I643
asVMN0000677781
p21
(lp22
I1355
asVMN0000239921
p23
(lp24
I486
asVMN0000744573
p25
(lp26
I1157
asVMN0000883318
p27
(lp28
I489
aI493
asVMN0000540010
p29
(lp30
I488
asVMN0000799053
p31
(lp32
I469
asVMN0000866491
p33
(lp34
I302
aI317
asVMN0000664093
p35
(lp36
I1384
asVMN0000387973
p37
(lp38
I63
asVMN0000260038
p39
(lp40
I1318
asVMN0000553483
p41
(lp42
I76
asVMN0000209142
p43
(lp44
I480
aI689
asVMN0000049026
p45
(lp46
I698
asVMN0000114342
p47
(lp48
I883
aI892
asVMN0000610880
p49
(lp50
I954
asVMN0000141838
p51
(lp52
I1156
aI1176
aI1185
asVMN0000824022
p53
(lp54
I1352
asVMN0000186185
p55
(lp56
I1087
asVMN0000103484
p57
(lp58
I353
aI381
asVMN0000078532
p59
(lp60
I1351
asVMN0000175049
p61
(lp62
I872
asVMN0000943827
p63
(lp64
I153
asVMN0000136871
p65
(lp66
I131
asVMN0000930722
p67
(lp68
I1248
asVMN0000662067
p69
(lp70
I58
asVMN0000304401
p71
(lp72
I589
asVMN0000011754
p73
(lp74
I694
asVMN0000321321
p75
(lp76
I1380
asVMN0000959876
p77
(lp78
I57
asVMN0000570046
p79
(lp80
I745
asVMN0000342834
p81
(lp82
I948
asVMN0000559405
p83
(lp84
I1348
asVMN0000051909
p85
(lp86
I1041
asVMN0000084446
p87
(lp88
I435
asVMN0000774588
p89
(lp90
I1316
asVMN0000119469
p91
(lp92
I1143
aI1303
asVMN0000222748
p93
(lp94
I1138
aI1147
asVMN0000002923
p95
(lp96
I226
asVMN0000695401
p97
(lp98
I1169
asVMN0000123754
p99
(lp100
I637
asVMN0000199995
p101
(lp102
I1022
asVMN0000358408
p103
(lp104
I557
asVMN0000106916
p105
(lp106
I1004
asVMN0000776371
p107
(lp108
I1118
aI1268
asVMN0000028619
p109
(lp110
I1249
asS'Jimmy Somerville'
p111
(lp112
I416
asVMN0000281376
p113
(lp114
I1310
asVMN0000747757
p115
(lp116
I426
asVMN0000477875
p117
(lp118
I1280
asVMN0000925635
p119
(lp120
I130
asVMN0000089710
p121
(lp122
I800
asVMN0000137390
p123
(lp124
I241
aI277
aI284
asVMN0000193320
p125
(lp126
I274
aI296
aI405
aI438
aI546
aI603
asVMN0000662797
p127
(lp128
I1392
asVMN0000180617
p129
(lp130
I1177
asVMN0000043714
p131
(lp132
I575
aI576
aI585
aI620
aI673
asVMN0000610339
p133
(lp134
I361
aI579
asVMN0000749175
p135
(lp136
I799
asVMN0000105354
p137
(lp138
I369
aI657
asVMN0000334193
p139
(lp140
I918
asVMN0000929862
p141
(lp142
I333
asVMN0000678408
p143
(lp144
I1315
asVMN0000153526
p145
(lp146
I1180
asVMN0000372322
p147
(lp148
I395
asS'The J. Geils Band'
p149
(lp150
I1181
asVMN0000852007
p151
(lp152
I1403
asVMN0000850692
p153
(lp154
I382
aI384
aI583
asVMN0000180228
p155
(lp156
I744
aI1082
asVMN0000246628
p157
(lp158
I566
asVMN0000361393
p159
(lp160
I774
asVMN0000085915
p161
(lp162
I760
aI769
asVMN0000173925
p163
(lp164
I981
asVMN0000536275
p165
(lp166
I1327
asVMN0000317108
p167
(lp168
I550
asVMN0000232564
p169
(lp170
I851
asVMN0000576979
p171
(lp172
I1361
asVMN0000624215
p173
(lp174
I240
asVMN0000270667
p175
(lp176
I235
asVMN0000087985
p177
(lp178
I1131
aI1242
asVMN0000840348
p179
(lp180
I1133
asVMN0000144847
p181
(lp182
I269
aI278
aI290
aI291
aI292
aI293
aI294
aI295
aI420
aI422
aI449
asVMN0000165077
p183
(lp184
I601
asVMN0000894962
p185
(lp186
I877
asVMN0000178122
p187
(lp188
I139
asVMN0000125561
p189
(lp190
I751
asVMN0000923033
p191
(lp192
I1237
asVMN0000567624
p193
(lp194
I974
aI1102
asVMN0000104714
p195
(lp196
I70
asVMN0002907557
p197
(lp198
I1395
asVMN0000339624
p199
(lp200
I285
asVMN0000842802
p201
(lp202
I252
aI318
asVMN0000294891
p203
(lp204
I729
asVMN0000411761
p205
(lp206
I712
asVMN0000830538
p207
(lp208
I679
asVMN0000019241
p209
(lp210
I993
asVMN0000825883
p211
(lp212
I1243
asVMN0000027136
p213
(lp214
I670
asVMN0000988627
p215
(lp216
I889
asVMN0000616296
p217
(lp218
I1326
asVMN0000017387
p219
(lp220
I261
aI397
asVMN0000578999
p221
(lp222
I752
aI811
aI834
asVMN0000961234
p223
(lp224
I275
asVMN0000788126
p225
(lp226
I1134
asVMN0000096744
p227
(lp228
I1179
asVMN0000888484
p229
(lp230
I846
aI850
asVMN0000325401
p231
(lp232
I868
asVMN0000355208
p233
(lp234
I379
asVMN0000311674
p235
(lp236
I930
asVMN0000208997
p237
(lp238
I1343
asVMN0000510805
p239
(lp240
I794
asVMN0000478603
p241
(lp242
I1308
asVMN0000134729
p243
(lp244
I224
asVMN0000129551
p245
(lp246
I971
asVMN0000260206
p247
(lp248
I821
aI867
asVMN0000490738
p249
(lp250
I723
aI862
asVMN0000058035
p251
(lp252
I1390
asVMN0000153103
p253
(lp254
I737
aI739
asVMN0000797431
p255
(lp256
I347
asVMN0000746666
p257
(lp258
I1115
asVMN0000006987
p259
(lp260
I658
asVMN0000577235
p261
(lp262
I1269
asVMN0000243008
p263
(lp264
I94
asVMN0000156938
p265
(lp266
I282
asVMN0000762496
p267
(lp268
I360
asVMN0000078467
p269
(lp270
I434
asVMN0000492331
p271
(lp272
I978
asVMN0000921965
p273
(lp274
I949
aI1026
asVMN0000758453
p275
(lp276
I477
asVMN0000005953
p277
(lp278
I100
aI101
asVMN0002855999
p279
(lp280
I1106
asVMN0000035076
p281
(lp282
I1312
asVMN0000100160
p283
(lp284
I884
asVMN0000955647
p285
(lp286
I417
asVMN0000614598
p287
(lp288
I527
asVMN0000852688
p289
(lp290
I297
asVMN0000343930
p291
(lp292
I959
asVMN0000373634
p293
(lp294
I231
asVMN0000866417
p295
(lp296
I1339
asVMN0000423267
p297
(lp298
I1320
asVMN0000775323
p299
(lp300
I355
asVMN0000087179
p301
(lp302
I1262
aI1263
asVMN0000758630
p303
(lp304
I265
aI339
asVMN0000128440
p305
(lp306
I227
asVMN0000198162
p307
(lp308
I1364
asVMN0000059101
p309
(lp310
I545
asVMN0000098342
p311
(lp312
I524
asVMN0000919805
p313
(lp314
I830
asVMN0000219203
p315
(lp316
I228
aI247
aI662
asVMN0000098081
p317
(lp318
I937
aI938
asVMN0000045972
p319
(lp320
I1120
asVMN0000780258
p321
(lp322
I507
asVMN0000692251
p323
(lp324
I1283
asVMN0000891911
p325
(lp326
I1018
asVMN0000099246
p327
(lp328
I267
asVMN0000046784
p329
(lp330
I1290
asVMN0000110161
p331
(lp332
I1304
asVMN0000100196
p333
(lp334
I21
asVMN0000246885
p335
(lp336
I1214
asVMN0000140608
p337
(lp338
I520
asVMN0000391003
p339
(lp340
I354
asVMN0000546678
p341
(lp342
I757
asVMN0000790732
p343
(lp344
I194
asVMN0001772529
p345
(lp346
I1198
asVMN0000188342
p347
(lp348
I874
asVMN0000583959
p349
(lp350
I310
asVMN0000041874
p351
(lp352
I1165
aI1213
asVMN0000113300
p353
(lp354
I442
asVMN0000696015
p355
(lp356
I578
asVMN0000158309
p357
(lp358
I376
aI547
aI639
aI651
asVMN0000097654
p359
(lp360
I1333
asVMN0000806829
p361
(lp362
I861
asVMN0000066915
p363
(lp364
I337
asVMN0000233228
p365
(lp366
I1353
aI1354
aI1376
asVMN0000856640
p367
(lp368
I1273
asVMN0000864209
p369
(lp370
I1363
asVMN0000594665
p371
(lp372
I554
asVMN0000792839
p373
(lp374
I260
asVMN0000127063
p375
(lp376
I444
asVMN0000837886
p377
(lp378
I164
asVMN0000303506
p379
(lp380
I504
asVMN0000184091
p381
(lp382
I83
aI84
aI85
aI86
asVMN0000796763
p383
(lp384
I1264
asVMN0000898828
p385
(lp386
I1335
aI1385
asVMN0000162487
p387
(lp388
I104
asVMN0000047789
p389
(lp390
I598
asVMN0000480086
p391
(lp392
I958
asVMN0000569685
p393
(lp394
I929
asVMN0000290502
p395
(lp396
I152
asVMN0000345355
p397
(lp398
I697
asVMN0000263271
p399
(lp400
I223
asVMN0000186978
p401
(lp402
I1250
asVMN0000950805
p403
(lp404
I1287
asVMN0000816890
p405
(lp406
I326
asVMN0000031380
p407
(lp408
I778
aI940
asVMN0000162269
p409
(lp410
I322
aI363
aI437
aI494
asVMN0000931015
p411
(lp412
I1069
asVMN0000187478
p413
(lp414
I772
asVMN0000060476
p415
(lp416
I1305
asVMN0000565388
p417
(lp418
I878
asVMN0000224369
p419
(lp420
I1342
asS'Chingy Featuring Ludacris & Snoop Dogg'
p421
(lp422
I909
asVMN0000802302
p423
(lp424
I1136
asVMN0000198480
p425
(lp426
I165
asVMN0000898275
p427
(lp428
I1144
asVMN0000265456
p429
(lp430
I1188
asVMN0000478982
p431
(lp432
I1002
asVMN0000208076
p433
(lp434
I961
asVMN0000000441
p435
(lp436
I195
asVMN0000801971
p437
(lp438
I120
asVMN0000826762
p439
(lp440
I675
asVMN0000208774
p441
(lp442
I779
aI1095
asVMN0000305468
p443
(lp444
I1265
asVMN0000144458
p445
(lp446
I707
aI1080
asVMN0000865016
p447
(lp448
I1313
asVMN0000894847
p449
(lp450
I1379
asVMN0000167361
p451
(lp452
I806
asVMN0000020812
p453
(lp454
I1325
asVMN0000667669
p455
(lp456
I210
asVMN0000790833
p457
(lp458
I1393
asVMN0000585896
p459
(lp460
I95
asVMN0000548338
p461
(lp462
I46
asVMN0000804703
p463
(lp464
I441
asVMN0000748222
p465
(lp466
I421
asVMN0000264350
p467
(lp468
I1050
asVMN0000822910
p469
(lp470
I143
aI147
asVMN0000147635
p471
(lp472
I997
asVMN0000057663
p473
(lp474
I627
asVMN0000284667
p475
(lp476
I1240
aI1298
asVMN0000263019
p477
(lp478
I704
asVMN0000048622
p479
(lp480
I944
asVMN0000317093
p481
(lp482
I1200
asVMN0000281254
p483
(lp484
I747
aI782
aI858
aI1009
aI1021
asVMN0000074195
p485
(lp486
I1163
aI1204
asVMN0000563349
p487
(lp488
I1221
asVMN0000252495
p489
(lp490
I406
asVMN0000546214
p491
(lp492
I237
asVMN0000134600
p493
(lp494
I544
aI580
asVMN0000751019
p495
(lp496
I1104
aI1126
aI1285
asVMN0000498987
p497
(lp498
I1192
asVMN0000659517
p499
(lp500
I1153
asVMN0000944084
p501
(lp502
I1314
aI1382
asVMN0000524050
p503
(lp504
I1331
asVMN0000831448
p505
(lp506
I781
asVMN0000669303
p507
(lp508
I655
asVMN0000069534
p509
(lp510
I254
asVMN0000136640
p511
(lp512
I1059
asVMN0000674662
p513
(lp514
I20
asVMN0000664459
p515
(lp516
I1338
asVMN0000049367
p517
(lp518
I986
asVMN0000279337
p519
(lp520
I393
asVMN0000903609
p521
(lp522
I1044
aI1045
aI1046
aI1047
aI1048
asVMN0000626939
p523
(lp524
I212
asVMN0000028772
p525
(lp526
I975
asVMN0000845662
p527
(lp528
I699
asVMN0000855531
p529
(lp530
I764
asVMN0000520545
p531
(lp532
I1275
asVMN0000420381
p533
(lp534
I636
asS'Vitamin C Featuring Lady Saw'
p535
(lp536
I413
asVMN0000502163
p537
(lp538
I1203
asVMN0000033666
p539
(lp540
I273
asVMN0000378624
p541
(lp542
I68
asVMN0000298764
p543
(lp544
I626
asVMN0000046823
p545
(lp546
I73
asVMN0000182360
p547
(lp548
I998
asVMN0000344609
p549
(lp550
I540
aI541
asVMN0000159805
p551
(lp552
I538
asVMN0000492249
p553
(lp554
I452
asVMN0000835585
p555
(lp556
I762
aI1100
asVMN0000661795
p557
(lp558
I366
asVMN0000029600
p559
(lp560
I114
asVMN0000635466
p561
(lp562
I167
asVMN0000203639
p563
(lp564
I1112
asVMN0000618713
p565
(lp566
I1098
asVMN0000070800
p567
(lp568
I454
asVMN0000376613
p569
(lp570
I59
asVMN0000758444
p571
(lp572
I287
asVMN0000317865
p573
(lp574
I753
asVMN0000605375
p575
(lp576
I1190
aI1210
aI1211
asVMN0000936425
p577
(lp578
I842
aI955
aI1081
asVMN0000406657
p579
(lp580
I606
asVMN0000496487
p581
(lp582
I448
asVMN0000282752
p583
(lp584
I765
asVMN0000234384
p585
(lp586
I1337
asVMN0000414889
p587
(lp588
I198
asVMN0000024944
p589
(lp590
I807
aI1067
asVMN0000776093
p591
(lp592
I234
aI324
asVMN0000754251
p593
(lp594
I2
asVMN0000359559
p595
(lp596
I900
aI901
asVMN0000222436
p597
(lp598
I470
aI700
asVMN0000005307
p599
(lp600
I910
asVMN0000936190
p601
(lp602
I810
aI873
asVMN0000010458
p603
(lp604
I574
asVMN0000184811
p605
(lp606
I447
asVMN0000516202
p607
(lp608
I1276
asVMN0000341672
p609
(lp610
I205
aI219
asVMN0000290072
p611
(lp612
I1246
asVMN0000042768
p613
(lp614
I785
asVMN0000402872
p615
(lp616
I992
asVMN0000023925
p617
(lp618
I93
asVMN0000270162
p619
(lp620
I1230
asVMN0000813463
p621
(lp622
I934
aI1075
asVMN0000807041
p623
(lp624
I1005
asVMN0000545074
p625
(lp626
I898
asVMN0000920939
p627
(lp628
I1260
asVMN0000101946
p629
(lp630
I943
asVMN0000463803
p631
(lp632
I849
asVMN0000628467
p633
(lp634
I148
asVMN0000139089
p635
(lp636
I1218
asVMN0000475431
p637
(lp638
I1149
asVMN0000149515
p639
(lp640
I1191
asVMN0000965206
p641
(lp642
I1340
asVMN0000048507
p643
(lp644
I555
asVMN0000773642
p645
(lp646
I1253
asVMN0000260212
p647
(lp648
I818
asVMN0000988471
p649
(lp650
I795
asVMN0000817011
p651
(lp652
I814
asVMN0000829523
p653
(lp654
I939
asVMN0000473554
p655
(lp656
I1159
asVMN0000267814
p657
(lp658
I1170
asVMN0000164053
p659
(lp660
I853
asVMN0000772567
p661
(lp662
I1289
asVMN0000131650
p663
(lp664
I262
asVMN0000013393
p665
(lp666
I904
asVMN0000046814
p667
(lp668
I106
asVMN0000036106
p669
(lp670
I1236
aI1281
asVMN0000933772
p671
(lp672
I826
asVMN0000945900
p673
(lp674
I1299
asVMN0000200679
p675
(lp676
I989
asVMN0000091549
p677
(lp678
I243
asVMN0000963005
p679
(lp680
I419
asVMN0000390390
p681
(lp682
I1121
asVMN0000297702
p683
(lp684
I977
asVMN0000322027
p685
(lp686
I1139
asVMN0000565242
p687
(lp688
I837
asVMN0000002330
p689
(lp690
I1078
asVMN0000768737
p691
(lp692
I1216
aI1238
aI1255
asVMN0000046727
p693
(lp694
I65
asVMN0000832833
p695
(lp696
I661
asVMN0000490004
p697
(lp698
I197
asVMN0000757085
p699
(lp700
I667
asVMN0000081619
p701
(lp702
I843
aI1063
asVMN0000046861
p703
(lp704
I1219
asVMN0000685647
p705
(lp706
I819
asVMN0000224257
p707
(lp708
I942
asVMN0000665860
p709
(lp710
I415
asVMN0000479149
p711
(lp712
I879
aI906
asVMN0000194063
p713
(lp714
I688
asVMN0000351227
p715
(lp716
I461
aI482
aI500
aI506
aI513
aI685
aI701
asVMN0000926237
p717
(lp718
I211
aI610
asVMN0000359119
p719
(lp720
I22
asVMN0000219428
p721
(lp722
I1226
asVMN0000081316
p723
(lp724
I618
asVMN0000113753
p725
(lp726
I321
asVMN0000838524
p727
(lp728
I1371
asVMN0000094752
p729
(lp730
I796
asVMN0000069153
p731
(lp732
I1294
asVMN0000766893
p733
(lp734
I1386
asVMN0000022928
p735
(lp736
I570
asVMN0000129775
p737
(lp738
I734
asVMN0000678339
p739
(lp740
I458
asVMN0000322733
p741
(lp742
I1293
asVMN0000200074
p743
(lp744
I1182
asVMN0000026952
p745
(lp746
I1321
asVMN0000149044
p747
(lp748
I743
aI869
asVMN0000737886
p749
(lp750
I471
aI473
asVMN0000361014
p751
(lp752
I1187
asVMN0000010412
p753
(lp754
I990
asVMN0000138407
p755
(lp756
I1039
asVMN0000029086
p757
(lp758
I820
asVMN0000159214
p759
(lp760
I680
asVMN0000665364
p761
(lp762
I1178
asVMN0000040743
p763
(lp764
I138
aI163
asVMN0000069702
p765
(lp766
I950
asVMN0000815837
p767
(lp768
I1116
asVMN0000774145
p769
(lp770
I1061
asVMN0000012472
p771
(lp772
I684
asVMN0000805661
p773
(lp774
I1043
asVMN0000645474
p775
(lp776
I607
asVMN0000049774
p777
(lp778
I1350
asVMN0000220590
p779
(lp780
I871
aI897
asVMN0000424296
p781
(lp782
I1345
aI1378
asS'Trick Daddy'
p783
(lp784
I854
asVMN0000075747
p785
(lp786
I899
asVMN0000224186
p787
(lp788
I1397
asVMN0000790820
p789
(lp790
I178
asVMN0000597309
p791
(lp792
I1215
asVMN0000153443
p793
(lp794
I11
asVMN0000690254
p795
(lp796
I1208
asVMN0000797452
p797
(lp798
I1065
asVMN0000194246
p799
(lp800
I115
aI191
asVMN0000772526
p801
(lp802
I1151
asVMN0000146755
p803
(lp804
I1154
asVMN0000749734
p805
(lp806
I824
asVMN0000773442
p807
(lp808
I823
asVMN0000165011
p809
(lp810
I14
aI15
aI16
asVMN0000136075
p811
(lp812
I976
asVMN0000082013
p813
(lp814
I1383
aI1391
asVMN0000152023
p815
(lp816
I214
asVMN0000577627
p817
(lp818
I36
asVMN0000337119
p819
(lp820
I844
asVMN0000740499
p821
(lp822
I1020
asS'Chingy Featuring J. Weav'
p823
(lp824
I969
asVMN0000026227
p825
(lp826
I613
asVMN0000334770
p827
(lp828
I1125
asVMN0000806645
p829
(lp830
I1228
asVMN0000949630
p831
(lp832
I157
asVMN0000178799
p833
(lp834
I770
aI788
asS'Jennifer Lopez'
p835
(lp836
I380
aI973
asVMN0000745964
p837
(lp838
I913
aI935
aI979
asVMN0000806542
p839
(lp840
I495
asVMN0000174557
p841
(lp842
I1367
aI1368
asVMN0000204386
p843
(lp844
I1127
asVMN0000739702
p845
(lp846
I1330
asVMN0000576718
p847
(lp848
I1254
asVMN0000210323
p849
(lp850
I1109
asVMN0000796734
p851
(lp852
I352
aI374
aI398
aI440
asVMN0000796736
p853
(lp854
I773
asVMN0000575051
p855
(lp856
I1332
aI1388
asVMN0000247250
p857
(lp858
I1297
asVMN0000212614
p859
(lp860
I1233
asVMN0000021128
p861
(lp862
I1171
asVMN0000747163
p863
(lp864
I1084
asVMN0000239827
p865
(lp866
I217
asVMN0000748994
p867
(lp868
I1400
asVMN0000255576
p869
(lp870
I1258
asVMN0000479687
p871
(lp872
I763
asVMN0000390532
p873
(lp874
I304
aI443
asVMN0000524837
p875
(lp876
I1309
asVMN0000124492
p877
(lp878
I80
aI81
aI82
asVMN0000778656
p879
(lp880
I987
aI988
asVMN0000882956
p881
(lp882
I1129
asVMN0000467382
p883
(lp884
I1184
asVMN0000784814
p885
(lp886
I882
asVMN0000163229
p887
(lp888
I108
aI109
asVMN0000260384
p889
(lp890
I822
asVMN0000837946
p891
(lp892
I1373
asVMN0000391933
p893
(lp894
I836
asVMN0000193601
p895
(lp896
I706
asVMN0000012180
p897
(lp898
I1336
asVMN0000671953
p899
(lp900
I722
aI1076
asVMN0000303061
p901
(lp902
I7
asVMN0000921895
p903
(lp904
I55
asVMN0000107090
p905
(lp906
I1231
asVMN0000227988
p907
(lp908
I1282
asVMN0001572321
p909
(lp910
I719
asVMN0000665908
p911
(lp912
I359
aI453
asVMN0000182415
p913
(lp914
I472
asVMN0000238322
p915
(lp916
I313
aI400
asVMN0000058549
p917
(lp918
I490
asVMN0000080780
p919
(lp920
I272
aI487
aI559
asVMN0000812877
p921
(lp922
I201
asVMN0000090124
p923
(lp924
I491
asVMN0000334644
p925
(lp926
I166
asVMN0001649799
p927
(lp928
I1220
asVMN0000393031
p929
(lp930
I563
asVMN0000251595
p931
(lp932
I741
asVMN0000074520
p933
(lp934
I199
asVMN0000258882
p935
(lp936
I1252
asVMN0000325459
p937
(lp938
I1251
asVMN0000014651
p939
(lp940
I1235
asVMN0000858375
p941
(lp942
I1300
asVMN0000934367
p943
(lp944
I1207
asVMN0000745241
p945
(lp946
I775
asVMN0000201760
p947
(lp948
I283
asVMN0000079960
p949
(lp950
I314
aI586
asVMN0000270497
p951
(lp952
I351
asVMN0000936206
p953
(lp954
I1056
asVMN0000599732
p955
(lp956
I709
asS'Will Smith Featuring Tra-Knox'
p957
(lp958
I590
asVMN0000270491
p959
(lp960
I325
asVMN0000029884
p961
(lp962
I1023
asVMN0000184043
p963
(lp964
I177
asVMN0000792530
p965
(lp966
I209
aI230
aI498
asVMN0000352164
p967
(lp968
I1209
asVMN0000147785
p969
(lp970
I232
asVMN0000418981
p971
(lp972
I1195
aI1288
asS'Bonnie Raitt'
p973
(lp974
I1113
asVMN0000289599
p975
(lp976
I528
aI629
aI635
asVMN0000018419
p977
(lp978
I1267
asVMN0000467203
p979
(lp980
I173
asVMN0000105129
p981
(lp982
I338
aI383
aI401
aI407
asVMN0000332257
p983
(lp984
I4
aI5
asVMN0000328014
p985
(lp986
I702
asVMN0000157314
p987
(lp988
I941
asVMN0000094813
p989
(lp990
I445
asVMN0000071812
p991
(lp992
I1307
asVMN0000040124
p993
(lp994
I876
asVMN0000898479
p995
(lp996
I1155
asVMN0000072003
p997
(lp998
I790
asVMN0000151979
p999
(lp1000
I1058
asVMN0000743623
p1001
(lp1002
I303
asVMN0000343947
p1003
(lp1004
I835
asVMN0000934069
p1005
(lp1006
I1356
aI1357
aI1358
aI1359
asVMN0000502371
p1007
(lp1008
I915
asVMN0000058361
p1009
(lp1010
I1201
asVMN0000898188
p1011
(lp1012
I1278
asVMN0000818200
p1013
(lp1014
I1346
asVMN0000077732
p1015
(lp1016
I686
asVMN0000308871
p1017
(lp1018
I1261
asVMN0000084209
p1019
(lp1020
I329
asVMN0000542976
p1021
(lp1022
I1117
aI1123
asVMN0000591104
p1023
(lp1024
I1019
asVMN0000171637
p1025
(lp1026
I1323
asVMN0000227352
p1027
(lp1028
I509
asVMN0000463435
p1029
(lp1030
I1387
asVMN0000678167
p1031
(lp1032
I1073
asVMN0000029808
p1033
(lp1034
I832
asVMN0000987621
p1035
(lp1036
I308
aI357
aI433
asVMN0000892827
p1037
(lp1038
I521
aI561
asVMN0000383889
p1039
(lp1040
I301
aI343
aI484
asVMN0000097173
p1041
(lp1042
I1245
asVMN0000622805
p1043
(lp1044
I335
aI446
aI588
aI593
aI596
asVMN0000376204
p1045
(lp1046
I1272
asVMN0000674332
p1047
(lp1048
I1375
asVMN0000329468
p1049
(lp1050
I896
asVMN0000459616
p1051
(lp1052
I905
asVMN0000225930
p1053
(lp1054
I396
asVMN0000132449
p1055
(lp1056
I1257
asVMN0000848688
p1057
(lp1058
I721
asVMN0000000534
p1059
(lp1060
I391
asVMN0000206241
p1061
(lp1062
I213
asVMN0000143781
p1063
(lp1064
I1401
asVMN0000038469
p1065
(lp1066
I1107
asVMN0000306258
p1067
(lp1068
I1222
asVMN0000612716
p1069
(lp1070
I389
asVMN0000237205
p1071
(lp1072
I733
aI963
aI982
asVMN0000011707
p1073
(lp1074
I714
aI730
aI740
asVMN0000096613
p1075
(lp1076
I731
asVMN0000927555
p1077
(lp1078
I894
asVMN0000894465
p1079
(lp1080
I825
aI880
asVMN0000945196
p1081
(lp1082
I1229
asVMN0000846113
p1083
(lp1084
I1223
asVMN0000175579
p1085
(lp1086
I220
asVMN0000196976
p1087
(lp1088
I1306
asVMN0000354733
p1089
(lp1090
I750
aI812
asVMN0000200882
p1091
(lp1092
I1000
asVMN0000932665
p1093
(lp1094
I1394
asVMN0000608945
p1095
(lp1096
I1374
asVMN0000119651
p1097
(lp1098
I727
asVMN0000820232
p1099
(lp1100
I1015
asVMN0000303626
p1101
(lp1102
I1049
asVMN0000604852
p1103
(lp1104
I236
aI266
aI345
aI375
asVMN0000163213
p1105
(lp1106
I10
asVMN0000242211
p1107
(lp1108
I208
asVMN0000128099
p1109
(lp1110
I1167
asVMN0000572579
p1111
(lp1112
I1334
asVMN0000092942
p1113
(lp1114
I1347
asVMN0000785101
p1115
(lp1116
I805
aI809
aI839
aI840
asVMN0000037730
p1117
(lp1118
I216
aI271
asVMN0000316834
p1119
(lp1120
I1369
aI1381
asVMN0000224345
p1121
(lp1122
I289
asVMN0000007689
p1123
(lp1124
I917
asVMN0000227088
p1125
(lp1126
I1377
asVMN0000262794
p1127
(lp1128
I233
asVMN0000890724
p1129
(lp1130
I928
asVMN0000146841
p1131
(lp1132
I516
asVMN0000169677
p1133
(lp1134
I677
asVMN0000543055
p1135
(lp1136
I18
aI19
asVMN0000094205
p1137
(lp1138
I1145
aI1146
asVMN0000074853
p1139
(lp1140
I951
asVMN0000537548
p1141
(lp1142
I64
asVMN0000314050
p1143
(lp1144
I1193
asVMN0000018513
p1145
(lp1146
I1291
asVMN0000765595
p1147
(lp1148
I281
aI431
aI535
aI553
aI654
aI666
aI681
asVMN0000213212
p1149
(lp1150
I463
asVMN0000220194
p1151
(lp1152
I816
asVMN0000069986
p1153
(lp1154
I1111
asVMN0000182900
p1155
(lp1156
I713
aI718
asVMN0000262255
p1157
(lp1158
I786
aI885
asVMN0000741718
p1159
(lp1160
I1360
asVMN0000130689
p1161
(lp1162
I1186
asVMN0000138699
p1163
(lp1164
I515
asVMN0000183311
p1165
(lp1166
I332
asVMN0000072041
p1167
(lp1168
I804
asVMN0000065397
p1169
(lp1170
I1370
asVMN0000816538
p1171
(lp1172
I609
asVMN0000064303
p1173
(lp1174
I105
asVMN0000621639
p1175
(lp1176
I344
aI364
asVMN0000738402
p1177
(lp1178
I111
asVMN0000768321
p1179
(lp1180
I257
aI258
aI259
asVMN0000757328
p1181
(lp1182
I1066
asVMN0000045313
p1183
(lp1184
I1324
aI1349
asVMN0000768328
p1185
(lp1186
I253
asVMN0000048903
p1187
(lp1188
I372
asVMN0000110011
p1189
(lp1190
I248
asVMN0000280061
p1191
(lp1192
I1135
asVMN0000038805
p1193
(lp1194
I12
asVMN0000169228
p1195
(lp1196
I1016
as.