(dp1
S'MN0000484145'
p2
c__builtin__
set
p3
((lp4
I1970
aI1971
aI1972
aI1973
atRp5
sS'MN0000112537'
p6
g3
((lp7
I1974
atRp8
sS'MN0000183512'
p9
g3
((lp10
I2004
atRp11
sS'MN0000028432'
p12
g3
((lp13
I1997
atRp14
sS'MN0000808003'
p15
g3
((lp16
I2000
aI2001
aI2005
atRp17
sS'MN0000059350'
p18
g3
((lp19
I1967
atRp20
sS'MN0000469286'
p21
g3
((lp22
I1966
atRp23
sS'MN0000900303'
p24
g3
((lp25
I1994
aI1990
atRp26
sS'MN0000096964'
p27
g3
((lp28
I1988
aI1971
aI1972
aI1976
aI1977
aI1978
aI1980
atRp29
sS'MN0000498961'
p30
g3
((lp31
I1987
atRp32
sS'MN0001928494'
p33
g3
((lp34
I1974
atRp35
sS'MN0000530745'
p36
g3
((lp37
I1984
aI1985
aI1986
aI1987
aI1988
aI1992
aI1994
aI1995
aI2008
aI2002
aI2005
aI1976
aI2009
aI1978
aI1980
aI1981
atRp38
sS'MN0000775877'
p39
g3
((lp40
I2008
aI2005
atRp41
sS'MN0000451167'
p42
g3
((lp43
I2009
atRp44
sS'MN0000670226'
p45
g3
((lp46
I2008
aI2004
aI2005
aI2006
aI2007
atRp47
sS'MN0000231342'
p48
g3
((lp49
I1990
aI1991
atRp50
sS'MN0000286012'
p51
g3
((lp52
I1960
atRp53
sS'MN0000788508'
p54
g3
((lp55
I1998
atRp56
sS'MN0000868174'
p57
g3
((lp58
I2000
aI2001
aI2002
aI2003
aI2004
aI2005
aI2006
aI2007
aI2008
aI2009
atRp59
sS'MN0000274637'
p60
g3
((lp61
I2002
aI2007
atRp62
sS'MN0000680907'
p63
g3
((lp64
I1974
atRp65
sS'MN0000278880'
p66
g3
((lp67
I1979
atRp68
sS'MN0000812418'
p69
g3
((lp70
I1971
atRp71
sS'MN0000746387'
p72
g3
((lp73
I2000
aI1993
aI1994
aI2004
aI2007
atRp74
sS'MN0000855423'
p75
g3
((lp76
I1993
aI1985
atRp77
sS'MN0000794846'
p78
g3
((lp79
I1978
aI1979
aI1980
aI1981
aI1982
aI1983
atRp80
sS'MN0000025899'
p81
g3
((lp82
I1992
aI1990
atRp83
sS'MN0000757070'
p84
g3
((lp85
I1984
aI1994
atRp86
sS'MN0000387973'
p87
g3
((lp88
I1995
atRp89
sS'MN0000064000'
p90
g3
((lp91
I1969
atRp92
sS'MN0000297955'
p93
g3
((lp94
I1977
atRp95
sS'MN0000491565'
p96
g3
((lp97
I1985
atRp98
sS'MN0000017748'
p99
g3
((lp100
I1984
aI1985
aI1986
aI1989
aI1994
aI1963
aI1964
aI1997
aI2004
aI1975
atRp101
sS'MN0000135152'
p102
g3
((lp103
I1991
aI1992
aI1993
aI1994
aI1995
aI1996
atRp104
sS'MN0000603980'
p105
g3
((lp106
I1968
aI1969
atRp107
sS'MN0000500646'
p108
g3
((lp109
I1969
atRp110
sS'MN0000149990'
p111
g3
((lp112
I1961
atRp113
sS'MN0000377891'
p114
g3
((lp115
I1980
aI1975
atRp116
sS'MN0000023010'
p117
g3
((lp118
I2004
atRp119
sS'MN0000049180'
p120
g3
((lp121
I1967
atRp122
sS'MN0001177706'
p123
g3
((lp124
I1987
atRp125
sS'MN0000838327'
p126
g3
((lp127
I2000
aI1997
aI1999
atRp128
sS'MN0000922471'
p129
g3
((lp130
I2008
aI2007
atRp131
sS'MN0000167399'
p132
g3
((lp133
I1974
atRp134
sS'MN0000079651'
p135
g3
((lp136
I1978
aI1979
atRp137
sS'MN0000136871'
p138
g3
((lp139
I1989
aI1972
aI1973
aI1974
aI1975
aI1976
aI1977
aI1979
aI1980
aI1981
aI1982
aI1983
atRp140
sS'MN0000380106'
p141
g3
((lp142
I1975
atRp143
sS'MN0000189701'
p144
g3
((lp145
I1973
atRp146
sS'MN0000028002'
p147
g3
((lp148
I2008
aI2009
aI2006
atRp149
sS'MN0000051736'
p150
g3
((lp151
I1985
aI1965
aI1973
aI1975
aI1976
aI1977
aI1980
atRp152
sS'MN0001268371'
p153
g3
((lp154
I1972
atRp155
sS'MN0000409968'
p156
g3
((lp157
I2000
aI1994
aI2004
aI1997
aI2005
atRp158
sS'MN0000681964'
p159
g3
((lp160
I1992
aI1993
atRp161
sS'MN0000750456'
p162
g3
((lp163
I1961
aI1965
aI1966
aI1967
aI1968
aI1969
aI1970
aI1971
aI1972
aI1973
atRp164
sS'MN0000012472'
p165
g3
((lp166
I1970
aI1967
atRp167
sS'MN0000011754'
p168
g3
((lp169
I1984
aI1985
aI1988
aI1981
aI1983
atRp170
sS'MN0000354581'
p171
g3
((lp172
I1996
atRp173
sS'MN0000749571'
p174
g3
((lp175
I2009
atRp176
sS'MN0000570046'
p177
g3
((lp178
I1989
atRp179
sS'MN0000091122'
p180
g3
((lp181
I1989
aI1990
atRp182
sS'MN0000117272'
p183
g3
((lp184
I1960
aI1965
atRp185
sS'MN0000658950'
p186
g3
((lp187
I1992
aI1995
aI1991
atRp188
sS'MN0000171994'
p189
g3
((lp190
I1969
aI1970
aI1971
atRp191
sS'MN0000812568'
p192
g3
((lp193
I1966
atRp194
sS'MN0000536754'
p195
g3
((lp196
I1961
aI1962
aI1963
aI1964
atRp197
sS'MN0000137474'
p198
g3
((lp199
I1970
atRp200
sS'MN0002689236'
p201
g3
((lp202
I1982
atRp203
sS'MN0000884745'
p204
g3
((lp205
I2008
atRp206
sS'MN0000123754'
p207
g3
((lp208
I1985
aI1980
atRp209
sS'MN0000755776'
p210
g3
((lp211
I1969
atRp212
sS'MN0000191069'
p213
g3
((lp214
I1961
atRp215
sS'MN0000623567'
p216
g3
((lp217
I2007
atRp218
sS'MN0000201716'
p219
g3
((lp220
I2000
aI1995
aI1998
aI1999
atRp221
sS'MN0000006414'
p222
g3
((lp223
I1989
atRp224
sS'MN0000776371'
p225
g3
((lp226
I1991
aI1992
aI1993
aI1994
aI1996
aI1998
atRp227
sS'MN0000234647'
p228
g3
((lp229
I1996
aI2004
aI1997
aI1998
atRp230
sS'MN0000851184'
p231
g3
((lp232
I1962
aI1963
atRp233
sS'MN0000775206'
p234
g3
((lp235
I1981
aI1982
atRp236
sS'MN0000016235'
p237
g3
((lp238
I1961
aI1970
aI1972
aI1973
aI1974
aI1975
aI1976
atRp239
sS'MN0000792507'
p240
g3
((lp241
I1960
aI1961
aI1962
aI1963
aI1965
aI1966
aI1967
aI1969
aI1974
aI1975
atRp242
sS'MN0000936983'
p243
g3
((lp244
I1981
atRp245
sS'MN0000502806'
p246
g3
((lp247
I1962
aI1963
atRp248
sS'MN0000532487'
p249
g3
((lp250
I1971
aI1972
aI1990
atRp251
sS'MN0000060012'
p252
g3
((lp253
I1984
atRp254
sS'MN0000748713'
p255
g3
((lp256
I1994
atRp257
sS'MN0000766893'
p258
g3
((lp259
I1962
aI1996
aI1997
aI1966
aI1967
aI1969
aI1970
aI1971
aI1972
aI1973
aI1974
aI1975
aI1976
aI1977
aI2003
atRp260
sS'MN0000290299'
p261
g3
((lp262
I1977
aI1978
atRp263
sS'MN0000076658'
p264
g3
((lp265
I1968
aI1963
aI1964
atRp266
sS'MN0000020278'
p267
g3
((lp268
I1977
aI1980
aI1982
atRp269
sS'MN0000175939'
p270
g3
((lp271
I1975
atRp272
sS'MN0000341652'
p273
g3
((lp274
I1969
aI1970
aI1963
aI1973
atRp275
sS'MN0000317020'
p276
g3
((lp277
I1996
atRp278
sS'MN0000899198'
p279
g3
((lp280
I1963
atRp281
sS'MN0000180617'
p282
g3
((lp283
I2001
aI2002
aI2004
atRp284
sS'MN0000188432'
p285
g3
((lp286
I1992
atRp287
sS'MN0000624504'
p288
g3
((lp289
I1968
aI1969
aI1970
aI1967
atRp290
sS'MN0000039637'
p291
g3
((lp292
I1984
aI1985
aI1986
aI1987
aI1988
aI1989
aI1980
aI1981
aI1982
aI1983
atRp293
sS'MN0000405142'
p294
g3
((lp295
I2005
atRp296
sS'MN0000921924'
p297
g3
((lp298
I2009
atRp299
sS'MN0000354105'
p300
g3
((lp301
I1968
aI1971
aI1967
atRp302
sS'MN0000749175'
p303
g3
((lp304
I1960
aI1963
aI1964
atRp305
sS'MN0000198901'
p306
g3
((lp307
I1960
atRp308
sS'MN0000830617'
p309
g3
((lp310
I1967
atRp311
sS'MN0000105354'
p312
g3
((lp313
I1985
aI1988
aI1989
aI1990
aI1979
aI1980
aI1982
atRp314
sS'MN0000122754'
p315
g3
((lp316
I1984
aI1987
aI1988
aI1989
atRp317
sS'MN0000678408'
p318
g3
((lp319
I1966
aI1967
aI1968
aI1969
aI1975
aI1979
atRp320
sS'MN0000006321'
p321
g3
((lp322
I1994
atRp323
sS'MN0000318771'
p324
g3
((lp325
I1969
atRp326
sS'MN0000102835'
p327
g3
((lp328
I1975
atRp329
sS'MN0000073666'
p330
g3
((lp331
I1961
aI1963
aI1964
aI1965
atRp332
sS'MN0000192143'
p333
g3
((lp334
I1987
atRp335
sS'MN0000755519'
p336
g3
((lp337
I1995
aI1996
atRp338
sS'MN0000850692'
p339
g3
((lp340
I1976
aI1977
aI1971
aI1975
atRp341
sS'MN0000535623'
p342
g3
((lp343
I1970
aI1975
atRp344
sS'MN0000652598'
p345
g3
((lp346
I1960
atRp347
sS'MN0000766094'
p348
g3
((lp349
I1985
aI1986
aI1974
aI1975
aI1976
aI1977
aI1978
aI1979
aI1980
aI1981
aI1982
atRp350
sS'MN0000988692'
p351
g3
((lp352
I1968
atRp353
sS'MN0000006024'
p354
g3
((lp355
I2000
atRp356
sS'MN0000266129'
p357
g3
((lp358
I2008
aI2009
aI2007
atRp359
sS'MN0000628684'
p360
g3
((lp361
I1997
atRp362
sS'MN0000263271'
p363
g3
((lp364
I2001
aI2002
aI2005
aI2007
aI2008
aI2009
atRp365
sS'MN0001608941'
p366
g3
((lp367
I1987
atRp368
sS'MN0000571797'
p369
g3
((lp370
I1991
atRp371
sS'MN0000794449'
p372
g3
((lp373
I1966
aI1967
aI1969
aI1974
aI1975
aI1976
aI1978
atRp374
sS'MN0001192321'
p375
g3
((lp376
I1979
atRp377
sS'MN0000624215'
p378
g3
((lp379
I1976
aI1977
aI1980
aI1981
atRp380
sS'MN0000104535'
p381
g3
((lp382
I1994
atRp383
sS'MN0000087985'
p384
g3
((lp385
I1964
aI1965
aI1966
aI1967
aI1968
aI1969
aI1970
aI1972
aI1973
aI1974
aI1975
aI1983
atRp386
sS'MN0000158801'
p387
g3
((lp388
I2003
atRp389
sS'MN0000254997'
p390
g3
((lp391
I1965
atRp392
sS'MN0002165952'
p393
g3
((lp394
I2009
atRp395
sS'MN0000450947'
p396
g3
((lp397
I2006
aI2007
atRp398
sS'MN0001846594'
p399
g3
((lp400
I1974
atRp401
sS'MN0000125561'
p402
g3
((lp403
I1986
aI1987
aI1988
aI1989
aI1991
atRp404
sS'MN0000780192'
p405
g3
((lp406
I2001
atRp407
sS'MN0000557674'
p408
g3
((lp409
I1968
atRp410
sS'MN0000015614'
p411
g3
((lp412
I1992
atRp413
sS'MN0000125569'
p414
g3
((lp415
I1989
atRp416
sS'MN0000104714'
p417
g3
((lp418
I1978
aI1975
atRp419
sS'MN0000090803'
p420
g3
((lp421
I1962
aI1971
aI1964
aI1963
aI1967
atRp422
sS'MN0000621639'
p423
g3
((lp424
I1988
aI1989
atRp425
sS'MN0000170879'
p426
g3
((lp427
I2008
aI2009
aI2005
aI2006
aI2007
atRp428
sS'MN0000020809'
p429
g3
((lp430
I1961
aI1962
aI1963
atRp431
sS'MN0000201022'
p432
g3
((lp433
I1960
aI1970
aI1963
atRp434
sS'MN0000087965'
p435
g3
((lp436
I1999
atRp437
sS'MN0000010155'
p438
g3
((lp439
I1974
atRp440
sS'MN0000062270'
p441
g3
((lp442
I1960
aI1961
aI1962
aI1963
aI1964
aI1965
atRp443
sS'MN0000019241'
p444
g3
((lp445
I2003
aI1999
atRp446
sS'MN0000576072'
p447
g3
((lp448
I1979
aI1981
aI1982
atRp449
sS'MN0000061633'
p450
g3
((lp451
I1960
atRp452
sS'MN0000139804'
p453
g3
((lp454
I1962
atRp455
sS'MN0000039917'
p456
g3
((lp457
I1999
atRp458
sS'MN0000750925'
p459
g3
((lp460
I1963
aI1964
aI1965
aI1967
atRp461
sS'MN0000616296'
p462
g3
((lp463
I2004
aI2005
aI2006
atRp464
sS'MN0000555901'
p465
g3
((lp466
I2006
atRp467
sS'MN0000118544'
p468
g3
((lp469
I1960
aI1961
aI1962
aI1963
aI1964
aI1965
atRp470
sS'MN0000281376'
p471
g3
((lp472
I1993
aI1994
atRp473
sS'MN0000225309'
p474
g3
((lp475
I1969
aI1965
aI1966
aI1967
atRp476
sS'MN0000356566'
p477
g3
((lp478
I1963
atRp479
sS'MN0000331206'
p480
g3
((lp481
I2008
aI2007
atRp482
sS'MN0000507975'
p483
g3
((lp484
I1964
aI1965
atRp485
sS'MN0000832341'
p486
g3
((lp487
I1962
aI1964
aI1965
atRp488
sS'MN0000096744'
p489
g3
((lp490
I1978
aI1982
atRp491
sS'MN0000425543'
p492
g3
((lp493
I1993
atRp494
sS'MN0000409594'
p495
g3
((lp496
I1990
atRp497
sS'MN0000533503'
p498
g3
((lp499
I2008
atRp500
sS'MN0000921710'
p501
g3
((lp502
I2003
aI2005
aI2007
atRp503
sS'MN0000888484'
p504
g3
((lp505
I2001
aI2002
aI2003
atRp506
sS'MN0000208997'
p507
g3
((lp508
I1969
aI1973
aI1977
aI1978
aI1979
aI1980
atRp509
sS'MN0000956675'
p510
g3
((lp511
I2008
aI2009
atRp512
sS'MN0000193963'
p513
g3
((lp514
I1989
aI1990
aI1991
atRp515
sS'MN0000025335'
p516
g3
((lp517
I2000
atRp518
sS'MN0000081927'
p519
g3
((lp520
I1968
aI1967
atRp521
sS'MN0000081926'
p522
g3
((lp523
I1969
aI1975
atRp524
sS'MN0000046699'
p525
g3
((lp526
I1960
aI1961
aI1962
aI1964
atRp527
sS'MN0000278439'
p528
g3
((lp529
I2005
atRp530
sS'MN0000835419'
p531
g3
((lp532
I1997
atRp533
sS'MN0000153103'
p534
g3
((lp535
I1982
aI1983
atRp536
sS'MN0000772526'
p537
g3
((lp538
I1964
atRp539
sS'MN0000746666'
p540
g3
((lp541
I1985
aI1979
aI1980
aI1981
aI1982
atRp542
sS'MN0000186477'
p543
g3
((lp544
I1981
aI1975
atRp545
sS'MN0000577235'
p546
g3
((lp547
I1967
aI1971
aI1972
aI1973
aI1974
aI1975
aI1976
atRp548
sS'MN0000742569'
p549
g3
((lp550
I1965
atRp551
sS'MN0000162820'
p552
g3
((lp553
I1962
aI1963
aI1964
aI1965
aI1966
aI1967
aI1968
aI1970
aI1979
atRp554
sS'MN0000161808'
p555
g3
((lp556
I1995
aI1996
aI1997
aI1998
aI1999
aI2002
aI2003
aI2004
atRp557
sS'MN0000338269'
p558
g3
((lp559
I1970
atRp560
sS'MN0000463268'
p561
g3
((lp562
I2002
atRp563
sS'MN0000676313'
p564
g3
((lp565
I1992
aI1993
aI1991
atRp566
sS'MN0000078467'
p567
g3
((lp568
I1986
atRp569
sS'MN0000762885'
p570
g3
((lp571
I2002
aI2004
aI2006
aI2007
atRp572
sS'MN0000846277'
p573
g3
((lp574
I1971
atRp575
sS'MN0000085806'
p576
g3
((lp577
I1979
atRp578
sS'MN0000323652'
p579
g3
((lp580
I1964
atRp581
sS'MN0000615641'
p582
g3
((lp583
I1996
atRp584
sS'MN0001035294'
p585
g3
((lp586
I2009
atRp587
sS'MN0000005953'
p588
g3
((lp589
I1990
aI1971
aI1972
aI1973
aI1975
aI1977
aI1980
atRp590
sS'MN0000334546'
p591
g3
((lp592
I1976
aI1970
aI1971
aI1973
atRp593
sS'MN0000667622'
p594
g3
((lp595
I1978
atRp596
sS'MN0000478118'
p597
g3
((lp598
I1984
atRp599
sS'MN0000033666'
p600
g3
((lp601
I1985
aI1975
aI1977
aI1979
aI1980
aI1982
aI1983
atRp602
sS'MN0000166291'
p603
g3
((lp604
I1998
atRp605
sS'MN0000049026'
p606
g3
((lp607
I2004
aI2005
atRp608
sS'MN0000003412'
p609
g3
((lp610
I1980
atRp611
sS'MN0000139026'
p612
g3
((lp613
I1969
aI1970
aI1971
aI1972
aI1973
aI1975
aI1979
atRp614
sS'MN0000614598'
p615
g3
((lp616
I2000
aI2001
atRp617
sS'MN0000691616'
p618
g3
((lp619
I2004
aI2005
atRp620
sS'MN0000852688'
p621
g3
((lp622
I2005
atRp623
sS'MN0000951681'
p624
g3
((lp625
I1960
aI1961
atRp626
sS'MN0000280445'
p627
g3
((lp628
I1968
aI1966
atRp629
sS'MN0000852997'
p630
g3
((lp631
I1992
atRp632
sS'MN0000789754'
p633
g3
((lp634
I2002
atRp635
sS'MN0000822089'
p636
g3
((lp637
I1999
atRp638
sS'MN0000491220'
p639
g3
((lp640
I1963
aI1964
aI1965
aI1966
atRp641
sS'MN0000087179'
p642
g3
((lp643
I1980
aI1981
atRp644
sS'MN0000572579'
p645
g3
((lp646
I1986
aI1987
aI1988
aI1989
aI1990
aI1994
aI2004
atRp647
sS'MN0000308742'
p648
g3
((lp649
I1987
atRp650
sS'MN0000032628'
p651
g3
((lp652
I1968
aI1966
atRp653
sS'MN0000667037'
p654
g3
((lp655
I1971
atRp656
sS'MN0000059101'
p657
g3
((lp658
I1972
atRp659
sS'MN0001016058'
p660
g3
((lp661
I2009
atRp662
sS'MN0000033481'
p663
g3
((lp664
I2000
aI2002
aI2004
aI2005
aI1999
atRp665
sS'MN0000862855'
p666
g3
((lp667
I2006
atRp668
sS'MN0000382734'
p669
g3
((lp670
I1961
aI1964
atRp671
sS'MN0000098342'
p672
g3
((lp673
I2003
atRp674
sS'MN0000338887'
p675
g3
((lp676
I1964
aI1965
aI1966
atRp677
sS'MN0000093872'
p678
g3
((lp679
I2001
atRp680
sS'MN0000079796'
p681
g3
((lp682
I1991
atRp683
sS'MN0000117064'
p684
g3
((lp685
I1960
aI1961
aI1962
aI1963
aI1964
aI1965
aI1966
aI1967
aI1969
atRp686
sS'MN0001303654'
p687
g3
((lp688
I1978
atRp689
sS'MN0000240587'
p690
g3
((lp691
I1977
atRp692
sS'MN0000048757'
p693
g3
((lp694
I1978
aI1979
atRp695
sS'MN0000816418'
p696
g3
((lp697
I2005
atRp698
sS'MN0000240580'
p699
g3
((lp700
I1962
atRp701
sS'MN0000018977'
p702
g3
((lp703
I1986
aI1974
aI1975
aI1976
aI1977
aI1978
aI1979
aI1980
aI1981
aI1982
aI1983
atRp704
sS'MN0000419102'
p705
g3
((lp706
I2007
atRp707
sS'MN0000838557'
p708
g3
((lp709
I1976
atRp710
sS'MN0000279143'
p711
g3
((lp712
I2003
atRp713
sS'MN0000143590'
p714
g3
((lp715
I1986
atRp716
sS'MN0000582253'
p717
g3
((lp718
I1993
aI1995
aI1991
aI1967
atRp719
sS'MN0000046283'
p720
g3
((lp721
I1968
atRp722
sS'MN0000391003'
p723
g3
((lp724
I1970
aI1971
atRp725
sS'MN0000088535'
p726
g3
((lp727
I1963
atRp728
sS'MN0000941716'
p729
g3
((lp730
I1967
atRp731
sS'MN0000790732'
p732
g3
((lp733
I1987
aI1981
atRp734
sS'MN0003199043'
p735
g3
((lp736
I2001
atRp737
sS'MN0000937584'
p738
g3
((lp739
I1960
atRp740
sS'MN0000614113'
p741
g3
((lp742
I1985
aI1970
atRp743
sS'MN0000746915'
p744
g3
((lp745
I1987
aI1988
aI1989
aI1982
atRp746
sS'MN0000083095'
p747
g3
((lp748
I2005
atRp749
sS'MN0000227544'
p750
g3
((lp751
I1977
aI1978
aI1983
atRp752
sS'MN0000033680'
p753
g3
((lp754
I1961
aI1974
atRp755
sS'MN0000816387'
p756
g3
((lp757
I1976
aI1972
aI1973
aI1974
aI1975
atRp758
sS'MN0000190632'
p759
g3
((lp760
I1973
atRp761
sS'MN0000156886'
p762
g3
((lp763
I1978
aI1979
aI1980
aI1981
atRp764
sS'MN0000113300'
p765
g3
((lp766
I1987
aI1988
atRp767
sS'MN0000095330'
p768
g3
((lp769
I1976
aI1971
atRp770
sS'MN0000919836'
p771
g3
((lp772
I1961
atRp773
sS'MN0000834108'
p774
g3
((lp775
I1994
aI1995
aI1997
aI1998
aI2003
aI2006
atRp776
sS'MN0000864209'
p777
g3
((lp778
I1984
aI1986
aI1966
aI1967
aI1968
aI1969
aI1970
aI1971
aI1972
aI1973
aI1974
aI1975
aI1976
aI1977
aI1979
aI1980
aI1981
aI1982
aI1983
atRp779
sS'MN0000050034'
p780
g3
((lp781
I1991
atRp782
sS'MN0000127063'
p783
g3
((lp784
I1992
aI1993
aI1990
aI1991
atRp785
sS'MN0001661579'
p786
g3
((lp787
I1963
atRp788
sS'MN0000352992'
p789
g3
((lp790
I1976
aI1961
aI1962
aI1965
atRp791
sS'MN0000184091'
p792
g3
((lp793
I1984
aI1985
aI1989
aI1990
aI2000
aI1982
aI1983
atRp794
sS'MN0000796763'
p795
g3
((lp796
I1984
aI1983
atRp797
sS'MN0000120005'
p798
g3
((lp799
I1997
aI1991
atRp800
sS'MN0000264617'
p801
g3
((lp802
I1971
aI1972
aI1973
atRp803
sS'MN0000200968'
p804
g3
((lp805
I1978
aI1964
atRp806
sS'MN0000165818'
p807
g3
((lp808
I1969
aI1970
aI1971
aI1974
atRp809
sS'MN0000190451'
p810
g3
((lp811
I1964
atRp812
sS'MN0000235672'
p813
g3
((lp814
I1986
atRp815
sS'MN0000617844'
p816
g3
((lp817
I1968
aI1973
atRp818
sS'MN0000064454'
p819
g3
((lp820
I1979
atRp821
sS'MN0000319347'
p822
g3
((lp823
I1994
aI1995
aI1996
aI1999
aI2001
aI2002
aI2003
aI2004
aI2005
atRp824
sS'MN0000242473'
p825
g3
((lp826
I1969
atRp827
sS'MN0000681956'
p828
g3
((lp829
I2000
aI1993
aI1994
aI1995
aI1998
atRp830
sS'MN0000170192'
p831
g3
((lp832
I1961
aI1962
aI1965
atRp833
sS'MN0000993271'
p834
g3
((lp835
I2008
atRp836
sS'MN0000067631'
p837
g3
((lp838
I1997
atRp839
sS'MN0000254964'
p840
g3
((lp841
I1989
atRp842
sS'MN0000833802'
p843
g3
((lp844
I1979
atRp845
sS'MN0000618766'
p846
g3
((lp847
I2003
atRp848
sS'MN0001346105'
p849
g3
((lp850
I1963
aI1965
atRp851
sS'MN0000091983'
p852
g3
((lp853
I2009
aI2005
atRp854
sS'MN0000148830'
p855
g3
((lp856
I1964
atRp857
sS'MN0000608514'
p858
g3
((lp859
I2002
atRp860
sS'MN0000007316'
p861
g3
((lp862
I2002
atRp863
sS'MN0000266952'
p864
g3
((lp865
I1980
aI1972
atRp866
sS'MN0000284882'
p867
g3
((lp868
I1984
aI1982
atRp869
sS'MN0000031380'
p870
g3
((lp871
I1988
aI1989
aI1991
aI1992
aI1995
aI2009
atRp872
sS'MN0000110945'
p873
g3
((lp874
I1986
aI1999
atRp875
sS'MN0000089482'
p876
g3
((lp877
I1968
aI1971
aI1980
aI1966
aI1967
atRp878
sS'MN0000086826'
p879
g3
((lp880
I1980
aI1983
atRp881
sS'MN0000290590'
p882
g3
((lp883
I1987
aI1988
aI1989
atRp884
sS'MN0000137401'
p885
g3
((lp886
I1966
aI1967
atRp887
sS'MN0000565388'
p888
g3
((lp889
I1964
atRp890
sS'MN0000197475'
p891
g3
((lp892
I1988
aI1990
atRp893
sS'MN0000103391'
p894
g3
((lp895
I1962
atRp896
sS'MN0000588508'
p897
g3
((lp898
I1978
atRp899
sS'MN0000191070'
p900
g3
((lp901
I1984
aI1985
aI1987
aI1989
atRp902
sS'MN0003451744'
p903
g3
((lp904
I1987
atRp905
sS'MN0000423095'
p906
g3
((lp907
I1960
atRp908
sS'MN0000987974'
p909
g3
((lp910
I1992
aI1990
aI1991
atRp911
sS'MN0000493682'
p912
g3
((lp913
I1963
atRp914
sS'MN0000815386'
p915
g3
((lp916
I1973
atRp917
sS'MN0000224530'
p918
g3
((lp919
I1987
aI1988
atRp920
sS'MN0000208774'
p921
g3
((lp922
I1986
aI1987
aI1989
aI1990
aI1993
aI1994
aI1995
aI2004
aI1982
aI1983
atRp923
sS'MN0000233920'
p924
g3
((lp925
I1969
atRp926
sS'MN0000176332'
p927
g3
((lp928
I1992
atRp929
sS'MN0000606283'
p930
g3
((lp931
I1984
aI1987
aI1981
aI1983
atRp932
sS'MN0000023202'
p933
g3
((lp934
I1993
atRp935
sS'MN0000477834'
p936
g3
((lp937
I1970
aI1971
aI1972
aI1973
atRp938
sS'MN0000369430'
p939
g3
((lp940
I1978
atRp941
sS'MN0000050610'
p942
g3
((lp943
I1997
atRp944
sS'MN0000564631'
p945
g3
((lp946
I1979
atRp947
sS'MN0001599423'
p948
g3
((lp949
I1962
atRp950
sS'MN0000315463'
p951
g3
((lp952
I1993
atRp953
sS'MN0000069298'
p954
g3
((lp955
I1973
atRp956
sS'MN0000168474'
p957
g3
((lp958
I1961
atRp959
sS'MN0000585896'
p960
g3
((lp961
I2000
atRp962
sS'MN0000546735'
p963
g3
((lp964
I1972
aI1973
aI1974
atRp965
sS'MN0000546738'
p966
g3
((lp967
I2008
aI2009
atRp968
sS'MN0000643549'
p969
g3
((lp970
I1965
atRp971
sS'MN0000500889'
p972
g3
((lp973
I1975
atRp974
sS'MN0000177117'
p975
g3
((lp976
I1990
atRp977
sS'MN0000523661'
p978
g3
((lp979
I1960
atRp980
sS'MN0000778363'
p981
g3
((lp982
I1962
aI1963
aI1964
aI1965
aI1966
aI1967
atRp983
sS'MN0000478932'
p984
g3
((lp985
I2000
atRp986
sS'MN0000590479'
p987
g3
((lp988
I1976
atRp989
sS'MN0000814387'
p990
g3
((lp991
I2008
aI2005
aI2006
atRp992
sS'MN0000350610'
p993
g3
((lp994
I1974
aI1975
atRp995
sS'MN0000355885'
p996
g3
((lp997
I2008
atRp998
sS'MN0001896692'
p999
g3
((lp1000
I1977
aI1978
atRp1001
sS'MN0000164093'
p1002
g3
((lp1003
I1969
aI1963
aI1966
atRp1004
sS'MN0000689891'
p1005
g3
((lp1006
I1989
aI1990
atRp1007
sS'MN0000107877'
p1008
g3
((lp1009
I1968
aI1966
aI1967
atRp1010
sS'MN0000233147'
p1011
g3
((lp1012
I2005
atRp1013
sS'MN0000074195'
p1014
g3
((lp1015
I1987
aI1988
aI1989
aI1990
aI1975
aI1976
aI1977
aI1978
aI1980
atRp1016
sS'MN0000133969'
p1017
g3
((lp1018
I1983
atRp1019
sS'MN0000745915'
p1020
g3
((lp1021
I1960
aI1961
aI1962
aI1963
aI1969
aI1971
aI1972
aI1974
aI1975
aI1976
aI1977
aI1981
atRp1022
sS'MN0002899138'
p1023
g3
((lp1024
I1977
aI1978
atRp1025
sS'MN0000116816'
p1026
g3
((lp1027
I1960
aI1961
aI1962
atRp1028
sS'MN0000585965'
p1029
g3
((lp1030
I1992
atRp1031
sS'MN0000153915'
p1032
g3
((lp1033
I1996
atRp1034
sS'MN0000386234'
p1035
g3
((lp1036
I2004
aI1997
atRp1037
sS'MN0000034382'
p1038
g3
((lp1039
I1992
aI1985
aI1986
aI1984
atRp1040
sS'MN0000524050'
p1041
g3
((lp1042
I1976
aI1988
atRp1043
sS'MN0000015288'
p1044
g3
((lp1045
I1978
atRp1046
sS'MN0000589630'
p1047
g3
((lp1048
I2006
atRp1049
sS'MN0000280960'
p1050
g3
((lp1051
I1985
aI1987
atRp1052
sS'MN0000063739'
p1053
g3
((lp1054
I1974
atRp1055
sS'MN0000036849'
p1056
g3
((lp1057
I1960
aI1961
aI1963
aI1964
aI1967
aI1969
aI1970
aI1971
atRp1058
sS'MN0000177060'
p1059
g3
((lp1060
I1971
aI1972
atRp1061
sS'MN0000775494'
p1062
g3
((lp1063
I2006
atRp1064
sS'MN0000132305'
p1065
g3
((lp1066
I1969
aI1974
atRp1067
sS'MN0000218709'
p1068
g3
((lp1069
I1987
atRp1070
sS'MN0000173563'
p1071
g3
((lp1072
I1997
atRp1073
sS'MN0000325366'
p1074
g3
((lp1075
I1969
aI1970
atRp1076
sS'MN0000327765'
p1077
g3
((lp1078
I1965
atRp1079
sS'MN0000511257'
p1080
g3
((lp1081
I1992
aI1990
atRp1082
sS'MN0000651376'
p1083
g3
((lp1084
I1993
atRp1085
sS'MN0000552576'
p1086
g3
((lp1087
I1979
atRp1088
sS'MN0000321377'
p1089
g3
((lp1090
I1966
atRp1091
sS'MN0000019297'
p1092
g3
((lp1093
I1972
aI1973
aI1974
aI1975
aI1976
aI1982
aI1983
atRp1094
sS'MN0000554804'
p1095
g3
((lp1096
I2006
aI2007
atRp1097
sS'MN0000789340'
p1098
g3
((lp1099
I1993
atRp1100
sS'MN0002436700'
p1101
g3
((lp1102
I1960
aI1961
aI1962
aI1963
aI1964
atRp1103
sS'MN0000821675'
p1104
g3
((lp1105
I1990
atRp1106
sS'MN0000845662'
p1107
g3
((lp1108
I2001
atRp1109
sS'MN0000810861'
p1110
g3
((lp1111
I1986
atRp1112
sS'MN0000572313'
p1113
g3
((lp1114
I1962
aI1964
atRp1115
sS'MN0000420381'
p1116
g3
((lp1117
I1994
aI1996
aI1997
aI1998
aI2000
aI2001
aI2004
aI2006
aI2007
atRp1118
sS'MN0000845468'
p1119
g3
((lp1120
I1968
aI1973
atRp1121
sS'MN0000244048'
p1122
g3
((lp1123
I2000
atRp1124
sS'MN0000857597'
p1125
g3
((lp1126
I2006
atRp1127
sS'MN0000383853'
p1128
g3
((lp1129
I1994
aI2005
atRp1130
sS'MN0000148380'
p1131
g3
((lp1132
I1981
atRp1133
sS'MN0001930721'
p1134
g3
((lp1135
I1969
atRp1136
sS'MN0000743175'
p1137
g3
((lp1138
I2007
atRp1139
sS'MN0000651972'
p1140
g3
((lp1141
I1993
aI1995
aI1996
atRp1142
sS'MN0000186632'
p1143
g3
((lp1144
I1979
atRp1145
sS'MN0002009611'
p1146
g3
((lp1147
I2008
aI2007
atRp1148
sS'MN0000331323'
p1149
g3
((lp1150
I2006
atRp1151
sS'MN0000019285'
p1152
g3
((lp1153
I1962
atRp1154
sS'MN0000226556'
p1155
g3
((lp1156
I1985
aI1986
aI1987
aI1989
atRp1157
sS'MN0002999962'
p1158
g3
((lp1159
I1972
atRp1160
sS'MN0000796281'
p1161
g3
((lp1162
I2001
aI2004
aI2006
aI2009
atRp1163
sS'MN0001836821'
p1164
g3
((lp1165
I1968
atRp1166
sS'MN0002344193'
p1167
g3
((lp1168
I1974
atRp1169
sS'MN0001267375'
p1170
g3
((lp1171
I1976
atRp1172
sS'MN0000245149'
p1173
g3
((lp1174
I1965
atRp1175
sS'MN0000326964'
p1176
g3
((lp1177
I1992
atRp1178
sS'MN0000247636'
p1179
g3
((lp1180
I1960
atRp1181
sS'MN0000187907'
p1182
g3
((lp1183
I2005
aI2006
atRp1184
sS'MN0000250191'
p1185
g3
((lp1186
I1962
atRp1187
sS'MN0000296460'
p1188
g3
((lp1189
I1960
atRp1190
sS'MN0000366164'
p1191
g3
((lp1192
I1984
aI1985
aI1978
aI1979
aI1981
aI1982
atRp1193
sS'MN0000827250'
p1194
g3
((lp1195
I1960
aI1963
atRp1196
sS'MN0000286530'
p1197
g3
((lp1198
I2001
atRp1199
sS'MN0000022255'
p1200
g3
((lp1201
I1960
atRp1202
sS'MN0000312126'
p1203
g3
((lp1204
I1996
aI1997
atRp1205
sS'MN0000780625'
p1206
g3
((lp1207
I1994
atRp1208
sS'MN0000759443'
p1209
g3
((lp1210
I1963
aI1964
aI1965
aI1966
atRp1211
sS'MN0000605375'
p1212
g3
((lp1213
I1993
aI1996
aI1998
aI1999
aI2000
aI2001
aI2002
aI2003
aI2004
aI2005
aI2007
aI2008
atRp1214
sS'MN0000936425'
p1215
g3
((lp1216
I1970
aI1971
aI1972
aI1973
aI1974
aI1975
aI1976
aI1978
aI1983
atRp1217
sS'MN0000927501'
p1218
g3
((lp1219
I1979
atRp1220
sS'MN0000496487'
p1221
g3
((lp1222
I1984
aI1995
aI1990
aI1982
aI1983
atRp1223
sS'MN0000805208'
p1224
g3
((lp1225
I1966
aI1967
aI1968
aI1969
aI1970
aI1971
aI1972
aI1973
aI1975
atRp1226
sS'MN0000061172'
p1227
g3
((lp1228
I1984
aI1985
aI1986
aI1987
aI1988
aI1978
aI1979
aI1980
aI1982
atRp1229
sS'MN0000003426'
p1230
g3
((lp1231
I2001
aI2007
atRp1232
sS'MN0000024944'
p1233
g3
((lp1234
I1985
aI1988
aI1991
aI1992
aI1994
aI1995
atRp1235
sS'MN0000248683'
p1236
g3
((lp1237
I1996
atRp1238
sS'MN0000005307'
p1239
g3
((lp1240
I2002
aI2003
aI2004
aI2005
aI2006
aI2007
aI2008
aI2009
atRp1241
sS'MN0000128249'
p1242
g3
((lp1243
I1963
atRp1244
sS'MN0000936190'
p1245
g3
((lp1246
I1985
aI1986
aI1989
aI1991
aI1981
aI1982
aI1983
atRp1247
sS'MN0000143216'
p1248
g3
((lp1249
I2008
atRp1250
sS'MN0000516202'
p1251
g3
((lp1252
I1960
aI1961
aI1962
aI1963
aI1966
aI1967
aI1969
aI1970
aI1971
atRp1253
sS'MN0000127451'
p1254
g3
((lp1255
I1963
aI1964
aI1965
aI1966
aI1968
aI1969
aI1970
aI1972
atRp1256
sS'MN0000067821'
p1257
g3
((lp1258
I1970
aI1971
aI1965
aI1966
atRp1259
sS'MN0000111042'
p1260
g3
((lp1261
I2001
atRp1262
sS'MN0000214175'
p1263
g3
((lp1264
I1995
aI1996
atRp1265
sS'MN0000565609'
p1266
g3
((lp1267
I1970
atRp1268
sS'MN0000992075'
p1269
g3
((lp1270
I2009
atRp1271
sS'MN0000495201'
p1272
g3
((lp1273
I2009
aI2007
atRp1274
sS'MN0000147200'
p1275
g3
((lp1276
I1962
aI1967
aI1968
aI1969
aI1970
aI1971
aI1972
aI1973
aI1974
atRp1277
sS'MN0002086657'
p1278
g3
((lp1279
I1990
atRp1280
sS'MN0001187581'
p1281
g3
((lp1282
I1967
atRp1283
sS'MN0000343215'
p1284
g3
((lp1285
I1976
aI1977
aI1978
atRp1286
sS'MN0000402872'
p1287
g3
((lp1288
I1969
aI1970
aI1977
atRp1289
sS'MN0000081132'
p1290
g3
((lp1291
I2009
atRp1292
sS'MN0000948061'
p1293
g3
((lp1294
I1985
aI1987
aI1974
aI1976
aI1978
aI1979
aI1981
atRp1295
sS'MN0000578031'
p1296
g3
((lp1297
I1971
aI1965
aI1975
atRp1298
sS'MN0000545074'
p1299
g3
((lp1300
I1986
aI1987
aI1988
aI1990
aI1991
aI1992
aI1993
aI1996
atRp1301
sS'MN0000500241'
p1302
g3
((lp1303
I2009
atRp1304
sS'MN0000056833'
p1305
g3
((lp1306
I1968
atRp1307
sS'MN0000799083'
p1308
g3
((lp1309
I1988
atRp1310
sS'MN0000101946'
p1311
g3
((lp1312
I1969
aI1970
aI1971
aI1972
aI1974
aI1975
aI1979
atRp1313
sS'MN0000275335'
p1314
g3
((lp1315
I2006
atRp1316
sS'MN0000978231'
p1317
g3
((lp1318
I2006
atRp1319
sS'MN0000041420'
p1320
g3
((lp1321
I1988
aI1990
atRp1322
sS'MN0000769693'
p1323
g3
((lp1324
I1961
aI1962
aI1965
atRp1325
sS'MN0000747506'
p1326
g3
((lp1327
I1968
aI1961
aI1962
aI1960
aI1965
atRp1328
sS'MN0000862343'
p1329
g3
((lp1330
I2009
aI2006
atRp1331
sS'MN0000408342'
p1332
g3
((lp1333
I1968
atRp1334
sS'MN0000768584'
p1335
g3
((lp1336
I1975
atRp1337
sS'MN0000164750'
p1338
g3
((lp1339
I1981
atRp1340
sS'MN0000788569'
p1341
g3
((lp1342
I1978
aI1979
atRp1343
sS'MN0000243803'
p1344
g3
((lp1345
I1962
atRp1346
sS'MN0000661963'
p1347
g3
((lp1348
I1980
aI1981
aI1982
aI1983
atRp1349
sS'MN0000138988'
p1350
g3
((lp1351
I1961
aI1962
atRp1352
sS'MN0000829523'
p1353
g3
((lp1354
I1991
atRp1355
sS'MN0000088035'
p1356
g3
((lp1357
I2000
aI1998
atRp1358
sS'MN0000165117'
p1359
g3
((lp1360
I2003
atRp1361
sS'MN0001061368'
p1362
g3
((lp1363
I2009
atRp1364
sS'MN0000143367'
p1365
g3
((lp1366
I1962
aI1963
aI1964
aI1970
atRp1367
sS'MN0000146796'
p1368
g3
((lp1369
I1984
aI1988
atRp1370
sS'MN0000937397'
p1371
g3
((lp1372
I1968
aI1969
atRp1373
sS'MN0000926021'
p1374
g3
((lp1375
I1995
aI1996
aI1997
aI1998
atRp1376
sS'MN0003189794'
p1377
g3
((lp1378
I1965
atRp1379
sS'MN0000098685'
p1380
g3
((lp1381
I1998
atRp1382
sS'MN0000012554'
p1383
g3
((lp1384
I1979
atRp1385
sS'MN0000566602'
p1386
g3
((lp1387
I1976
aI1978
aI1975
atRp1388
sS'MN0000257181'
p1389
g3
((lp1390
I1997
atRp1391
sS'MN0000333842'
p1392
g3
((lp1393
I1986
atRp1394
sS'MN0000869042'
p1395
g3
((lp1396
I1974
atRp1397
sS'MN0000310976'
p1398
g3
((lp1399
I1983
atRp1400
sS'MN0001000615'
p1401
g3
((lp1402
I2008
atRp1403
sS'MN0000500664'
p1404
g3
((lp1405
I1966
aI1967
atRp1406
sS'MN0000738156'
p1407
g3
((lp1408
I1997
atRp1409
sS'MN0002832524'
p1410
g3
((lp1411
I1986
atRp1412
sS'MN0000002330'
p1413
g3
((lp1414
I1984
aI1966
aI1967
aI1968
aI1969
aI1983
atRp1415
sS'MN0000934611'
p1416
g3
((lp1417
I1979
atRp1418
sS'MN0000026825'
p1419
g3
((lp1420
I1997
atRp1421
sS'MN0000685647'
p1422
g3
((lp1423
I1984
aI1987
aI1991
aI1971
aI1972
aI1983
atRp1424
sS'MN0000136075'
p1425
g3
((lp1426
I1971
aI1979
aI1972
aI1973
aI1974
atRp1427
sS'MN0000665860'
p1428
g3
((lp1429
I2006
atRp1430
sS'MN0000190531'
p1431
g3
((lp1432
I1972
atRp1433
sS'MN0000259524'
p1434
g3
((lp1435
I1966
aI1967
atRp1436
sS'MN0000067131'
p1437
g3
((lp1438
I1985
atRp1439
sS'MN0000339905'
p1440
g3
((lp1441
I1977
aI1981
atRp1442
sS'MN0000653626'
p1443
g3
((lp1444
I1997
atRp1445
sS'MN0000469519'
p1446
g3
((lp1447
I2009
aI2007
atRp1448
sS'MN0000782262'
p1449
g3
((lp1450
I1975
atRp1451
sS'MN0000757704'
p1452
g3
((lp1453
I1995
atRp1454
sS'MN0000576885'
p1455
g3
((lp1456
I1997
atRp1457
sS'MN0000081316'
p1458
g3
((lp1459
I1994
aI1995
aI1996
aI1997
aI2007
atRp1460
sS'MN0000113753'
p1461
g3
((lp1462
I1999
atRp1463
sS'MN0000089710'
p1464
g3
((lp1465
I1976
aI1973
atRp1466
sS'MN0000180030'
p1467
g3
((lp1468
I1996
atRp1469
sS'MN0000040743'
p1470
g3
((lp1471
I2002
aI2005
aI2006
atRp1472
sS'MN0000154101'
p1473
g3
((lp1474
I1960
aI1961
aI1962
aI1964
atRp1475
sS'MN0000406612'
p1476
g3
((lp1477
I1964
atRp1478
sS'MN0000354722'
p1479
g3
((lp1480
I1993
aI1987
aI1988
aI1989
aI1991
atRp1481
sS'MN0000137390'
p1482
g3
((lp1483
I1986
aI1987
aI1988
aI1989
aI1990
aI1991
aI1992
aI1996
atRp1484
sS'MN0000028166'
p1485
g3
((lp1486
I1961
aI1966
atRp1487
sS'MN0000332262'
p1488
g3
((lp1489
I1975
atRp1490
sS'MN0000234004'
p1491
g3
((lp1492
I1966
atRp1493
sS'MN0000654835'
p1494
g3
((lp1495
I1996
atRp1496
sS'MN0000118189'
p1497
g3
((lp1498
I1993
aI2004
aI1998
aI2007
atRp1499
sS'MN0000143781'
p1500
g3
((lp1501
I1986
atRp1502
sS'MN0000490304'
p1503
g3
((lp1504
I1965
atRp1505
sS'MN0000149044'
p1506
g3
((lp1507
I1994
aI1995
aI1973
aI1974
aI1975
aI1976
aI1977
aI1978
atRp1508
sS'MN0000051118'
p1509
g3
((lp1510
I1961
atRp1511
sS'MN0000361014'
p1512
g3
((lp1513
I2003
aI2004
aI2005
aI2006
aI2007
aI2008
aI2009
atRp1514
sS'MN0000502398'
p1515
g3
((lp1516
I1968
aI1969
aI1970
atRp1517
sS'MN0000585574'
p1518
g3
((lp1519
I2001
atRp1520
sS'MN0000205385'
p1521
g3
((lp1522
I1968
atRp1523
sS'MN0000191006'
p1524
g3
((lp1525
I1976
aI1977
aI1978
atRp1526
sS'MN0000386536'
p1527
g3
((lp1528
I1970
atRp1529
sS'MN0000260516'
p1530
g3
((lp1531
I1993
atRp1532
sS'MN0000479204'
p1533
g3
((lp1534
I1979
atRp1535
sS'MN0000869066'
p1536
g3
((lp1537
I1984
atRp1538
sS'MN0000252495'
p1539
g3
((lp1540
I1963
aI1980
aI1965
aI1966
atRp1541
sS'MN0000272965'
p1542
g3
((lp1543
I1989
atRp1544
sS'MN0000816844'
p1545
g3
((lp1546
I2008
aI2006
aI2007
atRp1547
sS'MN0000560719'
p1548
g3
((lp1549
I2007
atRp1550
sS'MN0000128495'
p1551
g3
((lp1552
I2003
aI2004
aI1999
atRp1553
sS'MN0000617104'
p1554
g3
((lp1555
I2002
atRp1556
sS'MN0000639056'
p1557
g3
((lp1558
I1995
aI1996
aI1999
atRp1559
sS'MN0000490549'
p1560
g3
((lp1561
I1986
aI1970
aI1971
aI1972
aI1973
aI1974
aI1975
aI1976
aI1978
aI1979
aI1980
aI1981
aI1982
atRp1562
sS'MN0000086969'
p1563
g3
((lp1564
I1962
aI1963
aI1965
aI1966
aI1967
atRp1565
sS'MN0000745100'
p1566
g3
((lp1567
I1989
atRp1568
sS'MN0000497236'
p1569
g3
((lp1570
I1995
aI1997
atRp1571
sS'MN0000771010'
p1572
g3
((lp1573
I1967
atRp1574
sS'MN0000834314'
p1575
g3
((lp1576
I1992
aI1993
atRp1577
sS'MN0000171889'
p1578
g3
((lp1579
I2003
aI2004
atRp1580
sS'MN0000142545'
p1581
g3
((lp1582
I1983
atRp1583
sS'MN0000627337'
p1584
g3
((lp1585
I1962
aI1963
aI1964
aI1966
aI1969
aI1970
aI1971
aI1973
atRp1586
sS'MN0000006320'
p1587
g3
((lp1588
I1986
aI1979
aI1988
aI1983
atRp1589
sS'MN0000048400'
p1590
g3
((lp1591
I1998
atRp1592
sS'MN0000154967'
p1593
g3
((lp1594
I1966
atRp1595
sS'MN0000075747'
p1596
g3
((lp1597
I1982
aI1983
atRp1598
sS'MN0001926414'
p1599
g3
((lp1600
I1960
atRp1601
sS'MN0000597309'
p1602
g3
((lp1603
I1984
aI1985
aI1987
aI1989
aI1993
aI1996
atRp1604
sS'MN0000376422'
p1605
g3
((lp1606
I2002
aI2005
atRp1607
sS'MN0000149558'
p1608
g3
((lp1609
I1966
aI1967
atRp1610
sS'MN0000599777'
p1611
g3
((lp1612
I1989
aI1990
aI1991
aI1992
aI1994
aI1995
atRp1613
sS'MN0000233467'
p1614
g3
((lp1615
I2009
atRp1616
sS'MN0002622976'
p1617
g3
((lp1618
I2008
atRp1619
sS'MN0000060104'
p1620
g3
((lp1621
I1972
atRp1622
sS'MN0000343852'
p1623
g3
((lp1624
I1960
aI1964
aI1966
aI1967
atRp1625
sS'MN0002563020'
p1626
g3
((lp1627
I1964
atRp1628
sS'MN0000351733'
p1629
g3
((lp1630
I1994
aI1997
aI1999
aI2005
aI2006
aI2007
atRp1631
sS'MN0000749734'
p1632
g3
((lp1633
I1984
aI1973
atRp1634
sS'MN0000020630'
p1635
g3
((lp1636
I1989
atRp1637
sS'MN0000423267'
p1638
g3
((lp1639
I1968
atRp1640
sS'MN0000678339'
p1641
g3
((lp1642
I1989
atRp1643
sS'MN0000172770'
p1644
g3
((lp1645
I1963
atRp1646
sS'MN0000172772'
p1647
g3
((lp1648
I1968
aI1969
aI1965
aI1967
atRp1649
sS'MN0000485365'
p1650
g3
((lp1651
I2009
atRp1652
sS'MN0000370484'
p1653
g3
((lp1654
I1988
aI1989
aI1991
atRp1655
sS'MN0000253296'
p1656
g3
((lp1657
I1961
aI1962
atRp1658
sS'MN0000485361'
p1659
g3
((lp1660
I1992
atRp1661
sS'MN0000554963'
p1662
g3
((lp1663
I1976
aI1972
aI1974
aI1975
atRp1664
sS'MN0000285277'
p1665
g3
((lp1666
I2008
atRp1667
sS'MN0000026227'
p1668
g3
((lp1669
I1976
aI1977
aI1975
atRp1670
sS'MN0000814606'
p1671
g3
((lp1672
I1960
aI1961
aI1962
atRp1673
sS'MN0000921906'
p1674
g3
((lp1675
I1964
atRp1676
sS'MN0000745964'
p1677
g3
((lp1678
I1971
aI1972
aI1973
aI1974
aI1975
aI1979
aI1980
aI1981
atRp1679
sS'MN0000347741'
p1680
g3
((lp1681
I2002
atRp1682
sS'MN0000619750'
p1683
g3
((lp1684
I1984
aI1988
atRp1685
sS'MN0000771838'
p1686
g3
((lp1687
I1994
aI1995
aI1996
aI1997
atRp1688
sS'MN0000204386'
p1689
g3
((lp1690
I1985
aI1988
aI1970
aI1971
aI1972
aI1975
aI1976
aI1977
aI1978
aI1979
aI1981
atRp1691
sS'MN0000087597'
p1692
g3
((lp1693
I1979
atRp1694
sS'MN0000492147'
p1695
g3
((lp1696
I1961
atRp1697
sS'MN0000575051'
p1698
g3
((lp1699
I1968
aI1964
aI1965
aI1966
aI1967
atRp1700
sS'MN0000247250'
p1701
g3
((lp1702
I1988
aI1989
atRp1703
sS'MN0003315236'
p1704
g3
((lp1705
I1965
atRp1706
sS'MN0000331910'
p1707
g3
((lp1708
I1968
atRp1709
sS'MN0000167877'
p1710
g3
((lp1711
I1960
atRp1712
sS'MN0000838195'
p1713
g3
((lp1714
I1968
aI1969
aI1974
aI1966
aI1967
atRp1715
sS'MN0000004047'
p1716
g3
((lp1717
I1980
atRp1718
sS'MN0000820596'
p1719
g3
((lp1720
I1960
aI1961
aI1962
aI1963
aI1964
aI1965
atRp1721
sS'MN0000167878'
p1722
g3
((lp1723
I2003
aI2005
atRp1724
sS'MN0000212614'
p1725
g3
((lp1726
I1976
aI1973
aI1982
atRp1727
sS'MN0000106514'
p1728
g3
((lp1729
I1963
aI1966
atRp1730
sS'MN0000021128'
p1731
g3
((lp1732
I2003
atRp1733
sS'MN0000953998'
p1734
g3
((lp1735
I1960
atRp1736
sS'MN0000061988'
p1737
g3
((lp1738
I1970
atRp1739
sS'MN0000239827'
p1740
g3
((lp1741
I2008
aI2009
aI2002
aI2007
atRp1742
sS'MN0000027102'
p1743
g3
((lp1744
I1964
atRp1745
sS'MN0000748994'
p1746
g3
((lp1747
I2005
atRp1748
sS'MN0000255576'
p1749
g3
((lp1750
I1986
aI1988
atRp1751
sS'MN0000479687'
p1752
g3
((lp1753
I1989
atRp1754
sS'MN0000272689'
p1755
g3
((lp1756
I2008
aI2009
aI2002
aI2006
atRp1757
sS'MN0000390532'
p1758
g3
((lp1759
I1985
atRp1760
sS'MN0000768844'
p1761
g3
((lp1762
I1961
aI1962
atRp1763
sS'MN0000124492'
p1764
g3
((lp1765
I1994
aI1996
aI1997
aI2005
atRp1766
sS'MN0000996972'
p1767
g3
((lp1768
I2008
atRp1769
sS'MN0000924318'
p1770
g3
((lp1771
I2004
atRp1772
sS'MN0000763798'
p1773
g3
((lp1774
I1963
atRp1775
sS'MN0000572327'
p1776
g3
((lp1777
I1998
atRp1778
sS'MN0000809527'
p1779
g3
((lp1780
I1996
atRp1781
sS'MN0000148207'
p1782
g3
((lp1783
I1964
atRp1784
sS'MN0000921762'
p1785
g3
((lp1786
I1970
aI1971
aI1974
atRp1787
sS'MN0000314505'
p1788
g3
((lp1789
I1988
aI1989
aI1991
aI1992
aI1994
aI1995
aI1996
atRp1790
sS'MN0000067900'
p1791
g3
((lp1792
I1968
aI1969
aI1967
atRp1793
sS'MN0000404434'
p1794
g3
((lp1795
I1988
aI1965
aI1968
aI1969
aI1972
aI1978
aI1983
atRp1796
sS'MN0000781370'
p1797
g3
((lp1798
I1997
atRp1799
sS'MN0000087305'
p1800
g3
((lp1801
I1992
atRp1802
sS'MN0000605965'
p1803
g3
((lp1804
I1974
aI1975
aI1976
aI1977
aI1978
aI1979
aI1981
atRp1805
sS'MN0000193161'
p1806
g3
((lp1807
I2006
atRp1808
sS'MN0000631078'
p1809
g3
((lp1810
I2001
atRp1811
sS'MN0000813392'
p1812
g3
((lp1813
I1962
aI1964
aI1965
aI1966
aI1967
aI1968
aI1969
atRp1814
sS'MN0000391933'
p1815
g3
((lp1816
I1979
aI1982
aI1983
atRp1817
sS'MN0000170454'
p1818
g3
((lp1819
I1961
aI1962
aI1963
aI1964
aI1966
aI1967
aI1968
aI1969
atRp1820
sS'MN0000632986'
p1821
g3
((lp1822
I2007
atRp1823
sS'MN0000753963'
p1824
g3
((lp1825
I1968
aI1969
aI1981
aI1966
aI1967
atRp1826
sS'MN0000221844'
p1827
g3
((lp1828
I1995
atRp1829
sS'MN0000581443'
p1830
g3
((lp1831
I1992
aI1994
aI1998
atRp1832
sS'MN0000101371'
p1833
g3
((lp1834
I2008
aI2004
aI2005
atRp1835
sS'MN0000181376'
p1836
g3
((lp1837
I1984
aI1993
aI1985
aI1990
aI1991
atRp1838
sS'MN0000303061'
p1839
g3
((lp1840
I1995
atRp1841
sS'MN0000954322'
p1842
g3
((lp1843
I2002
aI2003
atRp1844
sS'MN0000138332'
p1845
g3
((lp1846
I1961
aI1962
aI1963
aI1964
atRp1847
sS'MN0000811598'
p1848
g3
((lp1849
I1976
aI1969
aI1975
atRp1850
sS'MN0000204921'
p1851
g3
((lp1852
I1979
atRp1853
sS'MN0000125749'
p1854
g3
((lp1855
I1965
aI1967
aI1972
aI1973
aI1974
aI1975
atRp1856
sS'MN0000080780'
p1857
g3
((lp1858
I1994
aI1995
aI1996
aI1998
aI1999
aI2002
aI2003
aI2005
aI2008
atRp1859
sS'MN0001900173'
p1860
g3
((lp1861
I1981
atRp1862
sS'MN0002853828'
p1863
g3
((lp1864
I1960
atRp1865
sS'MN0000625014'
p1866
g3
((lp1867
I1970
atRp1868
sS'MN0000614823'
p1869
g3
((lp1870
I1979
atRp1871
sS'MN0000061769'
p1872
g3
((lp1873
I1967
atRp1874
sS'MN0000673908'
p1875
g3
((lp1876
I1991
atRp1877
sS'MN0000514563'
p1878
g3
((lp1879
I2009
atRp1880
sS'MN0000018176'
p1881
g3
((lp1882
I1989
atRp1883
sS'MN0000408736'
p1884
g3
((lp1885
I1995
atRp1886
sS'MN0000177497'
p1887
g3
((lp1888
I1988
atRp1889
sS'MN0000852855'
p1890
g3
((lp1891
I1979
aI1980
aI1975
atRp1892
sS'MN0000746841'
p1893
g3
((lp1894
I1978
atRp1895
sS'MN0000759187'
p1896
g3
((lp1897
I1999
atRp1898
sS'MN0000251595'
p1899
g3
((lp1900
I1980
aI1988
aI1990
atRp1901
sS'MN0000258882'
p1902
g3
((lp1903
I1992
aI1993
aI1994
aI1997
atRp1904
sS'MN0000325459'
p1905
g3
((lp1906
I1986
aI1989
aI1991
aI1992
aI1993
aI1995
aI1997
aI1998
aI1999
aI2001
aI1983
atRp1907
sS'MN0000014651'
p1908
g3
((lp1909
I1961
aI1962
aI1963
atRp1910
sS'MN0000048605'
p1911
g3
((lp1912
I1997
atRp1913
sS'MN0000551115'
p1914
g3
((lp1915
I2007
atRp1916
sS'MN0000013384'
p1917
g3
((lp1918
I1979
aI1972
aI1973
aI1974
aI1975
atRp1919
sS'MN0002853033'
p1920
g3
((lp1921
I1961
atRp1922
sS'MN0000515560'
p1923
g3
((lp1924
I1980
atRp1925
sS'MN0000147785'
p1926
g3
((lp1927
I2001
aI1998
atRp1928
sS'MN0000214162'
p1929
g3
((lp1930
I2000
aI1994
aI1998
atRp1931
sS'MN0000418981'
p1932
g3
((lp1933
I1960
aI1961
aI1962
aI1963
aI1964
aI1967
atRp1934
sS'MN0000562663'
p1935
g3
((lp1936
I1968
aI1967
atRp1937
sS'MN0001888550'
p1938
g3
((lp1939
I1969
atRp1940
sS'MN0000683795'
p1941
g3
((lp1942
I1987
atRp1943
sS'MN0000918933'
p1944
g3
((lp1945
I1965
atRp1946
sS'MN0000484397'
p1947
g3
((lp1948
I1965
atRp1949
sS'MN0000446509'
p1950
g3
((lp1951
I1989
aI1991
aI1992
aI1996
aI1997
aI1998
aI2000
aI2008
atRp1952
sS'MN0000103033'
p1953
g3
((lp1954
I1961
aI1962
aI1963
aI1964
aI1965
aI1968
atRp1955
sS'MN0000799108'
p1956
g3
((lp1957
I1983
atRp1958
sS'MN0000890463'
p1959
g3
((lp1960
I1967
atRp1961
sS'MN0000484880'
p1962
g3
((lp1963
I2004
aI2005
aI2006
aI2007
aI2008
aI2009
atRp1964
sS'MN0000809702'
p1965
g3
((lp1966
I1980
atRp1967
sS'MN0000756518'
p1968
g3
((lp1969
I1960
atRp1970
sS'MN0000610346'
p1971
g3
((lp1972
I1995
atRp1973
sS'MN0000414251'
p1974
g3
((lp1975
I1963
aI1964
aI1965
aI1966
aI1967
aI1968
aI1969
atRp1976
sS'MN0000084446'
p1977
g3
((lp1978
I2001
aI2002
aI2006
aI2007
atRp1979
sS'MN0000101953'
p1980
g3
((lp1981
I1985
aI1986
aI1987
atRp1982
sS'MN0000806507'
p1983
g3
((lp1984
I1976
aI1968
aI1970
aI1974
atRp1985
sS'MN0000364878'
p1986
g3
((lp1987
I2008
atRp1988
sS'MN0000664093'
p1989
g3
((lp1990
I1975
atRp1991
sS'MN0000157314'
p1992
g3
((lp1993
I1993
aI1994
atRp1994
sS'MN0000852405'
p1995
g3
((lp1996
I1970
atRp1997
sS'MN0000094813'
p1998
g3
((lp1999
I2000
atRp2000
sS'MN0000238069'
p2001
g3
((lp2002
I1997
atRp2003
sS'MN0000040124'
p2004
g3
((lp2005
I2003
atRp2006
sS'MN0000898479'
p2007
g3
((lp2008
I1992
aI1988
aI1989
aI1990
atRp2009
sS'MN0000350934'
p2010
g3
((lp2011
I1960
aI1961
aI1962
aI1963
atRp2012
sS'MN0000072003'
p2013
g3
((lp2014
I1988
atRp2015
sS'MN0000727318'
p2016
g3
((lp2017
I2008
atRp2018
sS'MN0000179764'
p2019
g3
((lp2020
I1965
aI1966
atRp2021
sS'MN0000721416'
p2022
g3
((lp2023
I2006
atRp2024
sS'MN0000058361'
p2025
g3
((lp2026
I1969
aI1970
aI1963
aI1964
atRp2027
sS'MN0000898188'
p2028
g3
((lp2029
I1992
aI1994
aI1996
aI1997
aI1999
atRp2030
sS'MN0000762034'
p2031
g3
((lp2032
I1977
atRp2033
sS'MN0000640042'
p2034
g3
((lp2035
I1987
atRp2036
sS'MN0000084209'
p2037
g3
((lp2038
I1985
aI1987
aI1989
aI1990
aI1974
aI1975
aI1976
aI1977
aI1978
aI1979
aI1980
aI1981
aI1983
atRp2039
sS'MN0000138335'
p2040
g3
((lp2041
I1978
aI1963
aI1973
aI1965
atRp2042
sS'MN0000052900'
p2043
g3
((lp2044
I1968
aI1969
aI1965
aI1966
aI1967
atRp2045
sS'MN0000112360'
p2046
g3
((lp2047
I1988
atRp2048
sS'MN0000807121'
p2049
g3
((lp2050
I1969
aI1963
aI1965
aI1966
aI1974
atRp2051
sS'MN0000802109'
p2052
g3
((lp2053
I2009
aI2007
atRp2054
sS'MN0000549192'
p2055
g3
((lp2056
I1996
atRp2057
sS'MN0001481922'
p2058
g3
((lp2059
I1969
atRp2060
sS'MN0000463435'
p2061
g3
((lp2062
I1970
aI1971
atRp2063
sS'MN0000059949'
p2064
g3
((lp2065
I1975
atRp2066
sS'MN0000664272'
p2067
g3
((lp2068
I2008
aI2009
aI2007
atRp2069
sS'MN0000029808'
p2070
g3
((lp2071
I1992
aI1987
aI1989
aI1990
aI1991
atRp2072
sS'MN0000203168'
p2073
g3
((lp2074
I1994
aI1996
atRp2075
sS'MN0000987621'
p2076
g3
((lp2077
I1984
aI1985
aI1988
aI1995
aI1977
aI1978
aI1979
aI1982
atRp2078
sS'MN0000903609'
p2079
g3
((lp2080
I1960
aI1961
aI1962
aI1963
aI1964
aI1965
aI1966
atRp2081
sS'MN0000354609'
p2082
g3
((lp2083
I1983
atRp2084
sS'MN0000892827'
p2085
g3
((lp2086
I1995
aI1997
atRp2087
sS'MN0000933402'
p2088
g3
((lp2089
I1969
atRp2090
sS'MN0000892823'
p2091
g3
((lp2092
I1993
aI1987
aI1985
atRp2093
sS'MN0000725395'
p2094
g3
((lp2095
I2006
aI2007
atRp2096
sS'MN0000779064'
p2097
g3
((lp2098
I1966
atRp2099
sS'MN0000094252'
p2100
g3
((lp2101
I1960
atRp2102
sS'MN0000489059'
p2103
g3
((lp2104
I1961
atRp2105
sS'MN0000301404'
p2106
g3
((lp2107
I1976
aI1974
aI1975
atRp2108
sS'MN0001161529'
p2109
g3
((lp2110
I1979
atRp2111
sS'MN0000456536'
p2112
g3
((lp2113
I1996
atRp2114
sS'MN0000674332'
p2115
g3
((lp2116
I1987
aI1962
aI1963
aI1965
aI1966
aI1967
aI1968
aI1969
aI1970
aI1979
atRp2117
sS'MN0000127044'
p2118
g3
((lp2119
I1962
aI1963
atRp2120
sS'MN0000508449'
p2121
g3
((lp2122
I1977
atRp2123
sS'MN0000796700'
p2124
g3
((lp2125
I1977
aI1981
atRp2126
sS'MN0000148477'
p2127
g3
((lp2128
I1968
aI1969
aI1970
aI1971
aI1967
atRp2129
sS'MN0001606686'
p2130
g3
((lp2131
I1990
atRp2132
sS'MN0000120023'
p2133
g3
((lp2134
I1994
atRp2135
sS'MN0000034916'
p2136
g3
((lp2137
I1979
atRp2138
sS'MN0000038389'
p2139
g3
((lp2140
I1969
atRp2141
sS'MN0000926108'
p2142
g3
((lp2143
I1999
aI2000
aI2002
aI2003
aI2004
aI2005
aI2006
aI2007
aI2008
aI2009
atRp2144
sS'MN0000627787'
p2145
g3
((lp2146
I2008
atRp2147
sS'MN0000226939'
p2148
g3
((lp2149
I1970
atRp2150
sS'MN0000286115'
p2151
g3
((lp2152
I1997
atRp2153
sS'MN0000565013'
p2154
g3
((lp2155
I1961
aI1962
atRp2156
sS'MN0000342004'
p2157
g3
((lp2158
I2000
aI2001
aI2002
aI2004
aI2005
aI2008
atRp2159
sS'MN0000600264'
p2160
g3
((lp2161
I1992
aI1991
atRp2162
sS'MN0000466759'
p2163
g3
((lp2164
I1992
aI1993
aI1998
aI1991
atRp2165
sS'MN0000206241'
p2166
g3
((lp2167
I1984
aI1986
aI1987
aI1988
aI1989
aI1983
atRp2168
sS'MN0000038469'
p2169
g3
((lp2170
I1986
aI1987
aI1989
aI1992
aI1998
aI2004
aI2009
atRp2171
sS'MN0000840050'
p2172
g3
((lp2173
I1984
aI1967
aI1968
aI1969
aI1974
aI1975
aI1976
aI1978
aI1979
aI1980
aI1981
aI1982
aI1983
atRp2174
sS'MN0000800614'
p2175
g3
((lp2176
I1992
atRp2177
sS'MN0000406294'
p2178
g3
((lp2179
I1992
atRp2180
sS'MN0000868456'
p2181
g3
((lp2182
I1974
atRp2183
sS'MN0001030695'
p2184
g3
((lp2185
I2009
atRp2186
sS'MN0000812241'
p2187
g3
((lp2188
I1998
atRp2189
sS'MN0000038466'
p2190
g3
((lp2191
I1960
aI1961
aI1962
aI1963
aI1964
aI1965
aI1966
aI1968
aI1969
aI1970
aI1971
aI1972
atRp2192
sS'MN0000011707'
p2193
g3
((lp2194
I1972
aI1973
aI1974
aI1975
aI1976
aI1977
aI1978
aI1980
aI1981
atRp2195
sS'MN0000090169'
p2196
g3
((lp2197
I1971
aI1972
atRp2198
sS'MN0003191462'
p2199
g3
((lp2200
I1977
aI1978
aI1982
atRp2201
sS'MN0000681154'
p2202
g3
((lp2203
I2004
aI2006
atRp2204
sS'MN0000567707'
p2205
g3
((lp2206
I1964
atRp2207
sS'MN0000203765'
p2208
g3
((lp2209
I1994
aI1988
atRp2210
sS'MN0000609000'
p2211
g3
((lp2212
I1960
aI1961
atRp2213
sS'MN0000808546'
p2214
g3
((lp2215
I1992
atRp2216
sS'MN0000093632'
p2217
g3
((lp2218
I1985
aI1986
aI1988
aI1989
aI1976
aI1978
aI1979
aI1983
atRp2219
sS'MN0000049062'
p2220
g3
((lp2221
I2003
aI2005
atRp2222
sS'MN0000234384'
p2223
g3
((lp2224
I2001
atRp2225
sS'MN0002461406'
p2226
g3
((lp2227
I1960
atRp2228
sS'MN0000354733'
p2229
g3
((lp2230
I1985
aI1987
atRp2231
sS'MN0000101776'
p2232
g3
((lp2233
I1963
atRp2234
sS'MN0000932665'
p2235
g3
((lp2236
I1996
aI2002
aI2004
aI1999
atRp2237
sS'MN0000291687'
p2238
g3
((lp2239
I1986
atRp2240
sS'MN0000146324'
p2241
g3
((lp2242
I1962
atRp2243
sS'MN0000029600'
p2244
g3
((lp2245
I2001
aI1999
atRp2246
sS'MN0000767883'
p2247
g3
((lp2248
I2002
atRp2249
sS'MN0001003559'
p2250
g3
((lp2251
I2008
atRp2252
sS'MN0000163213'
p2253
g3
((lp2254
I2002
atRp2255
sS'MN0000242211'
p2256
g3
((lp2257
I2002
aI2003
atRp2258
sS'MN0000411689'
p2259
g3
((lp2260
I1960
atRp2261
sS'MN0000092942'
p2262
g3
((lp2263
I1977
aI1978
aI1979
aI1980
atRp2264
sS'MN0000987951'
p2265
g3
((lp2266
I1994
aI1991
atRp2267
sS'MN0000037730'
p2268
g3
((lp2269
I1994
aI1995
aI1996
aI1998
aI1999
aI2000
aI2002
aI2006
aI2009
atRp2270
sS'MN0000078044'
p2271
g3
((lp2272
I1971
aI1972
aI1974
atRp2273
sS'MN0000551784'
p2274
g3
((lp2275
I1961
atRp2276
sS'MN0000191878'
p2277
g3
((lp2278
I1966
atRp2279
sS'MN0000007689'
p2280
g3
((lp2281
I1992
aI1993
aI1994
aI1995
aI1999
aI2000
aI2003
atRp2282
sS'MN0000317417'
p2283
g3
((lp2284
I1969
aI1970
aI1971
atRp2285
sS'MN0001028077'
p2286
g3
((lp2287
I2008
aI2009
aI2007
atRp2288
sS'MN0000169677'
p2289
g3
((lp2290
I1961
aI1962
atRp2291
sS'MN0000543055'
p2292
g3
((lp2293
I1968
aI1965
atRp2294
sS'MN0000029156'
p2295
g3
((lp2296
I1965
atRp2297
sS'MN0000689884'
p2298
g3
((lp2299
I1962
atRp2300
sS'MN0000094205'
p2301
g3
((lp2302
I1960
atRp2303
sS'MN0000568709'
p2304
g3
((lp2305
I2002
atRp2306
sS'MN0000422891'
p2307
g3
((lp2308
I2003
atRp2309
sS'MN0000387720'
p2310
g3
((lp2311
I1987
aI1988
aI1989
aI1990
aI1991
aI1994
aI1995
aI1997
aI1983
atRp2312
sS'MN0000537548'
p2313
g3
((lp2314
I1996
aI1998
aI2001
aI2002
aI2003
aI2005
aI2008
atRp2315
sS'MN0000758262'
p2316
g3
((lp2317
I1971
atRp2318
sS'MN0000090011'
p2319
g3
((lp2320
I1994
atRp2321
sS'MN0000673486'
p2322
g3
((lp2323
I2000
aI2002
aI1999
atRp2324
sS'MN0000122891'
p2325
g3
((lp2326
I1961
aI1962
atRp2327
sS'MN0000517797'
p2328
g3
((lp2329
I1984
aI1982
atRp2330
sS'MN0000314050'
p2331
g3
((lp2332
I1979
aI1980
atRp2333
sS'MN0000320083'
p2334
g3
((lp2335
I1976
aI1977
atRp2336
sS'MN0000231576'
p2337
g3
((lp2338
I1976
atRp2339
sS'MN0000142208'
p2340
g3
((lp2341
I1989
atRp2342
sS'MN0000220194'
p2343
g3
((lp2344
I1993
atRp2345
sS'MN0000665908'
p2346
g3
((lp2347
I2005
aI2007
atRp2348
sS'MN0000037931'
p2349
g3
((lp2350
I1985
aI1987
aI1988
aI1989
atRp2351
sS'MN0000089042'
p2352
g3
((lp2353
I1999
atRp2354
sS'MN0000006334'
p2355
g3
((lp2356
I1962
aI1963
aI1964
aI1965
aI1967
atRp2357
sS'MN0000833352'
p2358
g3
((lp2359
I1979
atRp2360
sS'MN0000787810'
p2361
g3
((lp2362
I1961
aI1964
atRp2363
sS'MN0000851263'
p2364
g3
((lp2365
I1965
aI1966
atRp2366
sS'MN0000563390'
p2367
g3
((lp2368
I2008
aI2009
aI2007
atRp2369
sS'MN0000820056'
p2370
g3
((lp2371
I1970
atRp2372
sS'MN0000754720'
p2373
g3
((lp2374
I1972
aI1974
atRp2375
sS'MN0000532442'
p2376
g3
((lp2377
I1980
atRp2378
sS'MN0000921359'
p2379
g3
((lp2380
I1968
aI1964
aI1967
atRp2381
sS'MN0000848688'
p2382
g3
((lp2383
I1988
atRp2384
sS'MN0000103447'
p2385
g3
((lp2386
I1987
aI1988
aI1982
atRp2387
sS'MN0000738402'
p2388
g3
((lp2389
I1982
atRp2390
sS'MN0000768321'
p2391
g3
((lp2392
I1984
aI1985
aI1986
aI1988
aI1990
aI1991
aI1992
aI1993
aI2005
aI1983
atRp2393
sS'MN0000736318'
p2394
g3
((lp2395
I2009
atRp2396
sS'MN0000822837'
p2397
g3
((lp2398
I1961
aI1962
aI1966
aI1969
aI1974
aI1975
aI1977
atRp2399
sS'MN0000768328'
p2400
g3
((lp2401
I2002
atRp2402
sS'MN0000007448'
p2403
g3
((lp2404
I1968
aI1969
aI1970
aI1971
aI1972
aI1973
atRp2405
sS'MN0000663867'
p2406
g3
((lp2407
I2001
atRp2408
sS'MN0000815039'
p2409
g3
((lp2410
I1962
atRp2411
sS'MN0000270060'
p2412
g3
((lp2413
I1973
aI1975
atRp2414
sS'MN0000123702'
p2415
g3
((lp2416
I2005
atRp2417
sS'MN0000270064'
p2418
g3
((lp2419
I2005
aI2006
atRp2420
sS'MN0002453941'
p2421
g3
((lp2422
I1992
aI1995
atRp2423
sS'MN0000196544'
p2424
g3
((lp2425
I1960
aI1965
atRp2426
sS'MN0000748189'
p2427
g3
((lp2428
I1992
atRp2429
sS'MN0000073749'
p2430
g3
((lp2431
I2005
aI2006
atRp2432
sS'MN0000956973'
p2433
g3
((lp2434
I2003
aI2004
aI2005
aI2007
atRp2435
sS'MN0000503460'
p2436
g3
((lp2437
I2008
atRp2438
sS'MN0000086927'
p2439
g3
((lp2440
I2009
aI2002
aI2004
aI2005
aI2007
atRp2441
sS'MN0000397412'
p2442
g3
((lp2443
I1960
aI1961
atRp2444
sS'MN0000478833'
p2445
g3
((lp2446
I1995
atRp2447
sS'MN0000619845'
p2448
g3
((lp2449
I1988
atRp2450
sS'MN0000051909'
p2451
g3
((lp2452
I1970
aI1971
aI1972
aI1973
aI1974
aI1976
aI1977
aI1978
aI1981
aI1982
atRp2453
sS'MN0000319675'
p2454
g3
((lp2455
I1996
atRp2456
sS'MN0000236707'
p2457
g3
((lp2458
I1960
atRp2459
sS'MN0001452648'
p2460
g3
((lp2461
I1978
atRp2462
sS'MN0000167517'
p2463
g3
((lp2464
I1985
aI1986
aI1979
aI1980
atRp2465
sS'MN0000299668'
p2466
g3
((lp2467
I1976
aI1977
aI1978
aI1979
aI1975
atRp2468
sS'MN0000739041'
p2469
g3
((lp2470
I2003
atRp2471
sS'MN0000768926'
p2472
g3
((lp2473
I1973
atRp2474
sS'MN0000008828'
p2475
g3
((lp2476
I1997
aI1998
atRp2477
sS'MN0000155158'
p2478
g3
((lp2479
I1999
atRp2480
sS'MN0000934069'
p2481
g3
((lp2482
I1960
aI1961
aI1962
aI1963
aI1964
aI1965
aI1966
aI1969
aI1973
atRp2483
sS'MN0000075591'
p2484
g3
((lp2485
I2001
atRp2486
sS'MN0000677781'
p2487
g3
((lp2488
I1963
aI1966
aI1967
aI1968
aI1969
aI1970
aI1971
aI1972
atRp2489
sS'MN0000239921'
p2490
g3
((lp2491
I1985
aI1987
aI1988
aI1989
aI1990
aI1993
aI1997
aI1998
aI2001
atRp2492
sS'MN0000744573'
p2493
g3
((lp2494
I1989
atRp2495
sS'MN0000913490'
p2496
g3
((lp2497
I2006
atRp2498
sS'MN0000994823'
p2499
g3
((lp2500
I2009
atRp2501
sS'MN0000866491'
p2502
g3
((lp2503
I2001
aI2002
aI1999
aI1996
aI2009
atRp2504
sS'MN0000754639'
p2505
g3
((lp2506
I1960
atRp2507
sS'MN0000239855'
p2508
g3
((lp2509
I1983
atRp2510
sS'MN0000511235'
p2511
g3
((lp2512
I1997
atRp2513
sS'MN0003455865'
p2514
g3
((lp2515
I1966
atRp2516
sS'MN0000633358'
p2517
g3
((lp2518
I2008
aI2006
atRp2519
sS'MN0001003036'
p2520
g3
((lp2521
I1960
atRp2522
sS'MN0000056625'
p2523
g3
((lp2524
I1984
aI1983
atRp2525
sS'MN0001758769'
p2526
g3
((lp2527
I1962
aI1963
atRp2528
sS'MN0000046381'
p2529
g3
((lp2530
I1984
aI1986
aI1983
atRp2531
sS'MN0000175538'
p2532
g3
((lp2533
I1973
aI1974
atRp2534
sS'MN0000772363'
p2535
g3
((lp2536
I1985
atRp2537
sS'MN0000209142'
p2538
g3
((lp2539
I1987
aI1988
aI1970
aI1971
aI1973
aI1974
aI1976
aI1977
aI1979
aI1981
aI1982
atRp2540
sS'MN0001986465'
p2541
g3
((lp2542
I1960
atRp2543
sS'MN0000567153'
p2544
g3
((lp2545
I2008
aI2009
aI2006
aI2007
atRp2546
sS'MN0000114342'
p2547
g3
((lp2548
I1969
aI1970
aI1972
aI1967
atRp2549
sS'MN0000573209'
p2550
g3
((lp2551
I1977
atRp2552
sS'MN0000610880'
p2553
g3
((lp2554
I1999
aI2000
aI2001
aI2002
aI2003
aI2004
aI2005
aI2006
aI2007
aI2008
aI2009
atRp2555
sS'MN0000141838'
p2556
g3
((lp2557
I1984
aI1986
aI1987
aI1988
aI1989
aI1991
aI1992
aI1978
aI1979
aI1980
aI1982
atRp2558
sS'MN0000824022'
p2559
g3
((lp2560
I1970
aI1964
atRp2561
sS'MN0000186185'
p2562
g3
((lp2563
I1991
aI1992
aI1993
aI1994
aI1995
aI1997
aI1999
atRp2564
sS'MN0000103484'
p2565
g3
((lp2566
I1992
aI1989
atRp2567
sS'MN0000078532'
p2568
g3
((lp2569
I1993
aI1994
aI1998
atRp2570
sS'MN0000226312'
p2571
g3
((lp2572
I1992
aI1994
aI1997
aI1998
atRp2573
sS'MN0000375239'
p2574
g3
((lp2575
I1960
atRp2576
sS'MN0000943827'
p2577
g3
((lp2578
I1998
atRp2579
sS'MN0000340152'
p2580
g3
((lp2581
I1984
aI1985
aI1987
aI1989
atRp2582
sS'MN0000930722'
p2583
g3
((lp2584
I1961
aI1962
aI1963
aI1965
atRp2585
sS'MN0000778925'
p2586
g3
((lp2587
I2006
atRp2588
sS'MN0000765011'
p2589
g3
((lp2590
I1965
atRp2591
sS'MN0000014822'
p2592
g3
((lp2593
I2000
aI1997
atRp2594
sS'MN0000554604'
p2595
g3
((lp2596
I2006
atRp2597
sS'MN0000033580'
p2598
g3
((lp2599
I1995
atRp2600
sS'MN0000988627'
p2601
g3
((lp2602
I2000
aI2001
atRp2603
sS'MN0000298824'
p2604
g3
((lp2605
I2009
aI2006
aI2007
atRp2606
sS'MN0000147468'
p2607
g3
((lp2608
I2003
aI2004
atRp2609
sS'MN0000282288'
p2610
g3
((lp2611
I1991
atRp2612
sS'MN0000531653'
p2613
g3
((lp2614
I2006
atRp2615
sS'MN0000185888'
p2616
g3
((lp2617
I1996
aI1991
atRp2618
sS'MN0000614830'
p2619
g3
((lp2620
I2008
atRp2621
sS'MN0000664520'
p2622
g3
((lp2623
I1996
atRp2624
sS'MN0000342834'
p2625
g3
((lp2626
I1963
aI1965
aI1966
atRp2627
sS'MN0000307102'
p2628
g3
((lp2629
I2008
aI2001
aI2002
aI2003
atRp2630
sS'MN0000130028'
p2631
g3
((lp2632
I1984
aI1985
atRp2633
sS'MN0000318882'
p2634
g3
((lp2635
I2008
aI2009
aI2005
aI2006
atRp2636
sS'MN0000759422'
p2637
g3
((lp2638
I1988
atRp2639
sS'MN0000825168'
p2640
g3
((lp2641
I1979
atRp2642
sS'MN0000170625'
p2643
g3
((lp2644
I1962
aI1964
atRp2645
sS'MN0000119469'
p2646
g3
((lp2647
I1984
aI1985
aI1986
aI1988
aI1990
atRp2648
sS'MN0000130764'
p2649
g3
((lp2650
I1984
atRp2651
sS'MN0000742800'
p2652
g3
((lp2653
I1996
aI1997
atRp2654
sS'MN0000591124'
p2655
g3
((lp2656
I1979
atRp2657
sS'MN0000222748'
p2658
g3
((lp2659
I1988
aI1989
aI1990
atRp2660
sS'MN0000226402'
p2661
g3
((lp2662
I2004
atRp2663
sS'MN0000022472'
p2664
g3
((lp2665
I1997
atRp2666
sS'MN0000805225'
p2667
g3
((lp2668
I2000
aI2001
atRp2669
sS'MN0000133057'
p2670
g3
((lp2671
I2000
aI2001
atRp2672
sS'MN0000152228'
p2673
g3
((lp2674
I1987
atRp2675
sS'MN0000228444'
p2676
g3
((lp2677
I1982
atRp2678
sS'MN0000948832'
p2679
g3
((lp2680
I1998
atRp2681
sS'MN0000195368'
p2682
g3
((lp2683
I1974
atRp2684
sS'MN0000013393'
p2685
g3
((lp2686
I1976
aI1972
aI1973
aI1974
atRp2687
sS'MN0000341422'
p2688
g3
((lp2689
I1963
atRp2690
sS'MN0000784122'
p2691
g3
((lp2692
I2007
atRp2693
sS'MN0000609396'
p2694
g3
((lp2695
I1965
aI1966
aI1967
aI1968
aI1969
aI1970
aI1971
aI1972
aI1973
atRp2696
sS'MN0000328014'
p2697
g3
((lp2698
I1983
atRp2699
sS'MN0000664883'
p2700
g3
((lp2701
I1961
aI1964
atRp2702
sS'MN0000158451'
p2703
g3
((lp2704
I1977
atRp2705
sS'MN0000244711'
p2706
g3
((lp2707
I1961
atRp2708
sS'MN0000682493'
p2709
g3
((lp2710
I1990
atRp2711
sS'MN0000847756'
p2712
g3
((lp2713
I1967
atRp2714
sS'MN0000626463'
p2715
g3
((lp2716
I2000
atRp2717
sS'MN0000352072'
p2718
g3
((lp2719
I1996
aI1997
atRp2720
sS'MN0000600075'
p2721
g3
((lp2722
I1960
aI1961
atRp2723
sS'MN0000050967'
p2724
g3
((lp2725
I2008
atRp2726
sS'MN0000232701'
p2727
g3
((lp2728
I1968
aI1969
aI1971
atRp2729
sS'MN0000077536'
p2730
g3
((lp2731
I1968
atRp2732
sS'MN0000887806'
p2733
g3
((lp2734
I1990
atRp2735
sS'MN0000649120'
p2736
g3
((lp2737
I2008
aI2007
atRp2738
sS'MN0000043714'
p2739
g3
((lp2740
I1987
aI1967
aI1968
aI1969
aI1970
aI1971
aI1972
aI1973
aI1975
aI1977
aI1978
aI1981
aI1983
atRp2741
sS'MN0000610339'
p2742
g3
((lp2743
I1992
aI1995
atRp2744
sS'MN0000806991'
p2745
g3
((lp2746
I1968
aI1969
aI1967
atRp2747
sS'MN0003052691'
p2748
g3
((lp2749
I1960
aI1961
atRp2750
sS'MN0000334193'
p2751
g3
((lp2752
I1993
aI1995
aI1989
aI1987
atRp2753
sS'MN0000135306'
p2754
g3
((lp2755
I1968
aI1966
aI1967
atRp2756
sS'MN0000801894'
p2757
g3
((lp2758
I1978
atRp2759
sS'MN0000346336'
p2760
g3
((lp2761
I1994
aI1987
aI1980
atRp2762
sS'MN0000620495'
p2763
g3
((lp2764
I1993
atRp2765
sS'MN0000383056'
p2766
g3
((lp2767
I2005
atRp2768
sS'MN0000131681'
p2769
g3
((lp2770
I1960
aI1961
aI1962
atRp2771
sS'MN0000093849'
p2772
g3
((lp2773
I1973
atRp2774
sS'MN0000484343'
p2775
g3
((lp2776
I1961
atRp2777
sS'MN0003116716'
p2778
g3
((lp2779
I1982
aI1983
atRp2780
sS'MN0000847374'
p2781
g3
((lp2782
I2009
aI2004
aI2005
aI2006
atRp2783
sS'MN0000418955'
p2784
g3
((lp2785
I1964
aI1965
aI1966
atRp2786
sS'MN0000545875'
p2787
g3
((lp2788
I1981
atRp2789
sS'MN0000291054'
p2790
g3
((lp2791
I1983
atRp2792
sS'MN0000864411'
p2793
g3
((lp2794
I2009
atRp2795
sS'MN0000179021'
p2796
g3
((lp2797
I1968
atRp2798
sS'MN0000090389'
p2799
g3
((lp2800
I1977
atRp2801
sS'MN0000249554'
p2802
g3
((lp2803
I1967
atRp2804
sS'MN0000626268'
p2805
g3
((lp2806
I1971
aI1972
atRp2807
sS'MN0000147082'
p2808
g3
((lp2809
I1990
atRp2810
sS'MN0000100610'
p2811
g3
((lp2812
I1983
atRp2813
sS'MN0000756380'
p2814
g3
((lp2815
I1966
aI1967
atRp2816
sS'MN0001391868'
p2817
g3
((lp2818
I1961
atRp2819
sS'MN0000232564'
p2820
g3
((lp2821
I1969
aI1971
aI1973
aI1974
aI1975
aI1981
atRp2822
sS'MN0000249559'
p2823
g3
((lp2824
I1999
atRp2825
sS'MN0000495861'
p2826
g3
((lp2827
I1996
atRp2828
sS'MN0000625201'
p2829
g3
((lp2830
I1987
atRp2831
sS'MN0000147315'
p2832
g3
((lp2833
I1992
aI1993
aI1994
aI1995
aI1996
aI1998
atRp2834
sS'MN0000625203'
p2835
g3
((lp2836
I1988
atRp2837
sS'MN0000144847'
p2838
g3
((lp2839
I1994
aI2003
aI1972
aI1973
aI1974
aI1975
aI1976
aI1977
aI1979
aI1980
atRp2840
sS'MN0000962168'
p2841
g3
((lp2842
I1974
atRp2843
sS'MN0000797452'
p2844
g3
((lp2845
I1989
atRp2846
sS'MN0000393789'
p2847
g3
((lp2848
I1992
aI1993
aI1987
atRp2849
sS'MN0000923033'
p2850
g3
((lp2851
I1984
aI1990
aI1991
aI1972
aI1974
aI1975
aI1976
aI1977
aI1978
aI1979
aI1980
aI1981
aI1983
atRp2852
sS'MN0000029365'
p2853
g3
((lp2854
I1990
aI1991
atRp2855
sS'MN0000567624'
p2856
g3
((lp2857
I1971
aI1972
aI1973
aI1974
aI1975
aI1976
atRp2858
sS'MN0002907557'
p2859
g3
((lp2860
I1963
aI1964
atRp2861
sS'MN0000231819'
p2862
g3
((lp2863
I2000
atRp2864
sS'MN0000124881'
p2865
g3
((lp2866
I2008
aI2003
aI2005
aI2006
aI2007
atRp2867
sS'MN0000107249'
p2868
g3
((lp2869
I1981
atRp2870
sS'MN0000357587'
p2871
g3
((lp2872
I1992
atRp2873
sS'MN0000936009'
p2874
g3
((lp2875
I2002
aI2006
atRp2876
sS'MN0000411761'
p2877
g3
((lp2878
I1968
aI1969
aI1960
aI1961
atRp2879
sS'MN0000612716'
p2880
g3
((lp2881
I2006
aI1985
aI1995
aI1989
aI1990
atRp2882
sS'MN0000195634'
p2883
g3
((lp2884
I1984
aI1982
atRp2885
sS'MN0003243845'
p2886
g3
((lp2887
I1971
atRp2888
sS'MN0000895756'
p2889
g3
((lp2890
I1970
atRp2891
sS'MN0000374126'
p2892
g3
((lp2893
I2002
atRp2894
sS'MN0000540883'
p2895
g3
((lp2896
I2008
aI1989
atRp2897
sS'MN0000825883'
p2898
g3
((lp2899
I2003
aI2004
aI2005
aI2006
aI2007
aI2008
aI2009
atRp2900
sS'MN0000791483'
p2901
g3
((lp2902
I1993
aI1999
atRp2903
sS'MN0000760977'
p2904
g3
((lp2905
I1968
aI1969
aI1970
aI1966
aI1967
atRp2906
sS'MN0000080494'
p2907
g3
((lp2908
I2000
atRp2909
sS'MN0000796710'
p2910
g3
((lp2911
I1970
aI1971
aI1972
atRp2912
sS'MN0000077443'
p2913
g3
((lp2914
I1968
aI1967
atRp2915
sS'MN0000283405'
p2916
g3
((lp2917
I2002
aI1998
atRp2918
sS'MN0000017387'
p2919
g3
((lp2920
I2003
aI1998
aI1999
atRp2921
sS'MN0000756492'
p2922
g3
((lp2923
I1981
atRp2924
sS'MN0000923323'
p2925
g3
((lp2926
I2000
aI2008
aI2003
aI2004
aI2001
atRp2927
sS'MN0000462842'
p2928
g3
((lp2929
I2003
atRp2930
sS'MN0000210830'
p2931
g3
((lp2932
I2009
aI2006
atRp2933
sS'MN0000290945'
p2934
g3
((lp2935
I2008
atRp2936
sS'MN0000961234'
p2937
g3
((lp2938
I2001
aI2002
aI1999
aI2005
aI2009
atRp2939
sS'MN0000812920'
p2940
g3
((lp2941
I1962
aI1963
aI1964
aI1965
atRp2942
sS'MN0000543595'
p2943
g3
((lp2944
I1994
atRp2945
sS'MN0000889097'
p2946
g3
((lp2947
I1983
atRp2948
sS'MN0000102050'
p2949
g3
((lp2950
I1960
aI1962
aI1963
atRp2951
sS'MN0000745316'
p2952
g3
((lp2953
I1981
atRp2954
sS'MN0000003170'
p2955
g3
((lp2956
I1977
aI1978
aI1979
aI1981
atRp2957
sS'MN0000077223'
p2958
g3
((lp2959
I1993
atRp2960
sS'MN0000123132'
p2961
g3
((lp2962
I1963
aI1965
aI1966
aI1967
atRp2963
sS'MN0000897205'
p2964
g3
((lp2965
I1992
atRp2966
sS'MN0002855999'
p2967
g3
((lp2968
I1961
atRp2969
sS'MN0000955647'
p2970
g3
((lp2971
I1968
aI1969
atRp2972
sS'MN0000771638'
p2973
g3
((lp2974
I1966
atRp2975
sS'MN0000137430'
p2976
g3
((lp2977
I1987
aI1988
aI1989
aI1990
aI1991
aI1992
atRp2978
sS'MN0000260206'
p2979
g3
((lp2980
I1984
aI1986
aI1992
aI1995
aI1978
aI1979
aI1980
atRp2981
sS'MN0000010538'
p2982
g3
((lp2983
I1983
atRp2984
sS'MN0000011821'
p2985
g3
((lp2986
I2003
atRp2987
sS'MN0000006987'
p2988
g3
((lp2989
I1990
aI1991
atRp2990
sS'MN0000053190'
p2991
g3
((lp2992
I1961
aI1962
atRp2993
sS'MN0000745568'
p2994
g3
((lp2995
I1996
atRp2996
sS'MN0000243008'
p2997
g3
((lp2998
I2008
aI2009
aI1994
aI2005
atRp2999
sS'MN0000759245'
p3000
g3
((lp3001
I1969
aI1965
aI1966
atRp3002
sS'MN0000662692'
p3003
g3
((lp3004
I1987
aI1988
atRp3005
sS'MN0000670697'
p3006
g3
((lp3007
I1988
atRp3008
sS'MN0000933633'
p3009
g3
((lp3010
I1970
atRp3011
sS'MN0000154765'
p3012
g3
((lp3013
I1975
atRp3014
sS'MN0000305335'
p3015
g3
((lp3016
I1993
aI1991
atRp3017
sS'MN0000574102'
p3018
g3
((lp3019
I2006
aI2007
atRp3020
sS'MN0000301619'
p3021
g3
((lp3022
I1995
atRp3023
sS'MN0000171576'
p3024
g3
((lp3025
I1980
atRp3026
sS'MN0000012595'
p3027
g3
((lp3028
I2001
atRp3029
sS'MN0000198426'
p3030
g3
((lp3031
I2000
aI1994
aI1997
atRp3032
sS'MN0000921965'
p3033
g3
((lp3034
I1961
aI1962
aI1964
aI1965
aI1966
aI1969
atRp3035
sS'MN0000300749'
p3036
g3
((lp3037
I1997
atRp3038
sS'MN0000089058'
p3039
g3
((lp3040
I1984
aI1985
aI1986
aI1988
atRp3041
sS'MN0000149973'
p3042
g3
((lp3043
I1968
aI1962
atRp3044
sS'MN0000884412'
p3045
g3
((lp3046
I1978
aI1979
aI1980
atRp3047
sS'MN0000811388'
p3048
g3
((lp3049
I1990
atRp3050
sS'MN0000348884'
p3051
g3
((lp3052
I1962
aI1963
aI1966
aI1968
aI1969
aI1970
aI1971
aI1974
aI1975
aI1976
aI1977
atRp3053
sS'MN0000680476'
p3054
g3
((lp3055
I1994
aI1998
aI1999
atRp3056
sS'MN0000234518'
p3057
g3
((lp3058
I1964
aI1988
aI1966
atRp3059
sS'MN0000478603'
p3060
g3
((lp3061
I1986
aI1987
aI1966
aI1967
aI1968
aI1969
aI1970
atRp3062
sS'MN0000070534'
p3063
g3
((lp3064
I1970
aI1967
atRp3065
sS'MN0000051828'
p3066
g3
((lp3067
I2007
atRp3068
sS'MN0000834845'
p3069
g3
((lp3070
I1989
atRp3071
sS'MN0000100160'
p3072
g3
((lp3073
I1984
aI1964
aI1965
aI1966
aI1967
aI1970
aI1971
aI1977
aI1978
aI1979
aI1981
aI1983
atRp3074
sS'MN0000925066'
p3075
g3
((lp3076
I1995
aI1996
aI1997
aI1998
aI1999
atRp3077
sS'MN0000182897'
p3078
g3
((lp3079
I1977
aI1979
atRp3080
sS'MN0000544965'
p3081
g3
((lp3082
I2006
atRp3083
sS'MN0000869487'
p3084
g3
((lp3085
I1964
aI1966
atRp3086
sS'MN0000021747'
p3087
g3
((lp3088
I1977
aI1978
aI1971
aI1980
aI1975
atRp3089
sS'MN0000861687'
p3090
g3
((lp3091
I2001
aI2006
aI2007
atRp3092
sS'MN0000108826'
p3093
g3
((lp3094
I1960
aI1961
aI1963
aI1965
aI1966
aI1968
atRp3095
sS'MN0000021744'
p3096
g3
((lp3097
I1984
aI1971
aI1972
aI1973
aI1975
atRp3098
sS'MN0000848034'
p3099
g3
((lp3100
I1976
aI1972
aI1973
aI1974
atRp3101
sS'MN0000567570'
p3102
g3
((lp3103
I1984
aI1985
aI1986
aI1987
aI1983
atRp3104
sS'MN0000169795'
p3105
g3
((lp3106
I1997
atRp3107
sS'MN0000299471'
p3108
g3
((lp3109
I1984
aI1988
aI1982
aI1991
atRp3110
sS'MN0000775288'
p3111
g3
((lp3112
I1995
atRp3113
sS'MN0000758630'
p3114
g3
((lp3115
I1995
aI1996
atRp3116
sS'MN0000582930'
p3117
g3
((lp3118
I1984
atRp3119
sS'MN0000371436'
p3120
g3
((lp3121
I1998
atRp3122
sS'MN0000267505'
p3123
g3
((lp3124
I1977
aI1980
aI1981
atRp3125
sS'MN0000000674'
p3126
g3
((lp3127
I1965
atRp3128
sS'MN0000861043'
p3129
g3
((lp3130
I1973
atRp3131
sS'MN0000422664'
p3132
g3
((lp3133
I1968
atRp3134
sS'MN0000219203'
p3135
g3
((lp3136
I1984
aI1987
aI1988
aI1989
aI1991
aI1992
aI1993
aI1995
aI1997
aI1998
aI2000
aI2002
aI2004
aI2009
aI1983
atRp3137
sS'MN0000044024'
p3138
g3
((lp3139
I1985
atRp3140
sS'MN0000330575'
p3141
g3
((lp3142
I1960
aI1961
aI1962
aI1963
aI1964
aI1965
aI1966
aI1974
aI1975
aI1976
aI1977
aI1980
atRp3143
sS'MN0000481827'
p3144
g3
((lp3145
I1995
atRp3146
sS'MN0000045972'
p3147
g3
((lp3148
I1992
aI1987
aI1989
atRp3149
sS'MN0000891911'
p3150
g3
((lp3151
I1984
aI1986
aI1983
atRp3152
sS'MN0000751160'
p3153
g3
((lp3154
I1989
atRp3155
sS'MN0000166033'
p3156
g3
((lp3157
I1998
atRp3158
sS'MN0000169536'
p3159
g3
((lp3160
I1960
aI1962
atRp3161
sS'MN0000492162'
p3162
g3
((lp3163
I1997
atRp3164
sS'MN0000097384'
p3165
g3
((lp3166
I2008
aI2009
atRp3167
sS'MN0000225960'
p3168
g3
((lp3169
I1966
atRp3170
sS'MN0000844872'
p3171
g3
((lp3172
I1999
atRp3173
sS'MN0000222244'
p3174
g3
((lp3175
I1987
atRp3176
sS'MN0000169088'
p3177
g3
((lp3178
I1976
atRp3179
sS'MN0000041899'
p3180
g3
((lp3181
I1967
atRp3182
sS'MN0000074520'
p3183
g3
((lp3184
I2002
atRp3185
sS'MN0000343947'
p3186
g3
((lp3187
I1984
aI1989
aI1983
atRp3188
sS'MN0000080384'
p3189
g3
((lp3190
I1992
atRp3191
sS'MN0002710354'
p3192
g3
((lp3193
I1982
atRp3194
sS'MN0000020984'
p3195
g3
((lp3196
I1962
aI1963
atRp3197
sS'MN0000837084'
p3198
g3
((lp3199
I1975
atRp3200
sS'MN0001896379'
p3201
g3
((lp3202
I1983
atRp3203
sS'MN0001772529'
p3204
g3
((lp3205
I1978
atRp3206
sS'MN0000188342'
p3207
g3
((lp3208
I1976
aI1975
atRp3209
sS'MN0000814974'
p3210
g3
((lp3211
I1965
atRp3212
sS'MN0000763554'
p3213
g3
((lp3214
I1960
aI1961
atRp3215
sS'MN0000763551'
p3216
g3
((lp3217
I1961
atRp3218
sS'MN0000935413'
p3219
g3
((lp3220
I1982
atRp3221
sS'MN0000748088'
p3222
g3
((lp3223
I1960
aI1961
aI1962
aI1965
atRp3224
sS'MN0000940583'
p3225
g3
((lp3226
I1989
aI1983
atRp3227
sS'MN0000475650'
p3228
g3
((lp3229
I1986
aI1987
aI1989
atRp3230
sS'MN0000041874'
p3231
g3
((lp3232
I1985
aI1988
aI1962
aI1963
aI1964
aI1965
aI1966
aI1967
aI1968
aI1969
aI1971
aI1973
aI1979
aI1981
atRp3233
sS'MN0000677575'
p3234
g3
((lp3235
I2005
atRp3236
sS'MN0000696015'
p3237
g3
((lp3238
I1977
aI1981
aI1975
atRp3239
sS'MN0000125121'
p3240
g3
((lp3241
I1965
atRp3242
sS'MN0000097654'
p3243
g3
((lp3244
I1985
aI1981
atRp3245
sS'MN0000087853'
p3246
g3
((lp3247
I1966
atRp3248
sS'MN0000580058'
p3249
g3
((lp3250
I2000
aI2001
aI1998
aI1999
atRp3251
sS'MN0000070715'
p3252
g3
((lp3253
I1960
aI1961
aI1962
aI1963
aI1964
aI1965
aI1966
aI1967
aI1969
aI1973
atRp3254
sS'MN0000258955'
p3255
g3
((lp3256
I2000
aI2004
aI2005
aI1999
atRp3257
sS'MN0000792839'
p3258
g3
((lp3259
I1992
aI1999
aI1991
atRp3260
sS'MN0000837886'
p3261
g3
((lp3262
I1999
atRp3263
sS'MN0000089781'
p3264
g3
((lp3265
I2004
atRp3266
sS'MN0000874289'
p3267
g3
((lp3268
I1985
atRp3269
sS'MN0000664459'
p3270
g3
((lp3271
I1994
aI1995
aI1996
atRp3272
sS'MN0000162487'
p3273
g3
((lp3274
I2002
aI2003
aI1998
aI1999
atRp3275
sS'MN0000289058'
p3276
g3
((lp3277
I1992
atRp3278
sS'MN0000651107'
p3279
g3
((lp3280
I1964
aI1965
atRp3281
sS'MN0000930642'
p3282
g3
((lp3283
I1985
aI1988
atRp3284
sS'MN0000747200'
p3285
g3
((lp3286
I1990
atRp3287
sS'MN0000480086'
p3288
g3
((lp3289
I2004
atRp3290
sS'MN0000204901'
p3291
g3
((lp3292
I1960
aI1966
atRp3293
sS'MN0000069761'
p3294
g3
((lp3295
I1968
atRp3296
sS'MN0000671746'
p3297
g3
((lp3298
I1963
aI1964
aI1965
atRp3299
sS'MN0000072485'
p3300
g3
((lp3301
I2003
atRp3302
sS'MN0000531660'
p3303
g3
((lp3304
I1987
aI1988
atRp3305
sS'MN0000355616'
p3306
g3
((lp3307
I1993
aI1987
aI1988
aI1990
aI1991
atRp3308
sS'MN0000192436'
p3309
g3
((lp3310
I1970
aI1971
aI1973
atRp3311
sS'MN0000186978'
p3312
g3
((lp3313
I1995
aI1997
atRp3314
sS'MN0000654393'
p3315
g3
((lp3316
I1998
atRp3317
sS'MN0000504270'
p3318
g3
((lp3319
I1967
atRp3320
sS'MN0000087210'
p3321
g3
((lp3322
I1979
atRp3323
sS'MN0000170381'
p3324
g3
((lp3325
I1987
aI1988
atRp3326
sS'MN0001511928'
p3327
g3
((lp3328
I2009
atRp3329
sS'MN0002432296'
p3330
g3
((lp3331
I2008
atRp3332
sS'MN0000162269'
p3333
g3
((lp3334
I1995
aI1998
aI1999
aI2001
aI2005
aI2006
aI2007
atRp3335
sS'MN0000205838'
p3336
g3
((lp3337
I2008
atRp3338
sS'MN0000785533'
p3339
g3
((lp3340
I1961
atRp3341
sS'MN0000945196'
p3342
g3
((lp3343
I1978
aI1979
aI1980
atRp3344
sS'MN0000224369'
p3345
g3
((lp3346
I1976
aI1977
atRp3347
sS'MN0000959490'
p3348
g3
((lp3349
I1963
atRp3350
sS'MN0000499623'
p3351
g3
((lp3352
I1976
aI1977
aI1974
aI1975
atRp3353
sS'MN0000170369'
p3354
g3
((lp3355
I1976
aI1977
aI1978
aI1974
aI1975
atRp3356
sS'MN0000788847'
p3357
g3
((lp3358
I1984
atRp3359
sS'MN0000806293'
p3360
g3
((lp3361
I1973
atRp3362
sS'MN0000508443'
p3363
g3
((lp3364
I1985
aI1986
aI1980
aI1981
aI1982
aI1983
atRp3365
sS'MN0000890799'
p3366
g3
((lp3367
I1965
aI1966
aI1967
atRp3368
sS'MN0000898275'
p3369
g3
((lp3370
I1982
aI1983
atRp3371
sS'MN0000667971'
p3372
g3
((lp3373
I1964
atRp3374
sS'MN0000366681'
p3375
g3
((lp3376
I2008
aI2009
aI2007
atRp3377
sS'MN0000249303'
p3378
g3
((lp3379
I1976
aI1977
aI1974
aI1975
atRp3380
sS'MN0000649435'
p3381
g3
((lp3382
I2000
aI1994
aI2005
aI1998
aI1999
atRp3383
sS'MN0000801971'
p3384
g3
((lp3385
I1986
atRp3386
sS'MN0000927650'
p3387
g3
((lp3388
I1987
aI1988
aI1989
atRp3389
sS'MN0000254083'
p3390
g3
((lp3391
I2003
atRp3392
sS'MN0000682958'
p3393
g3
((lp3394
I1990
atRp3395
sS'MN0000227697'
p3396
g3
((lp3397
I1999
atRp3398
sS'MN0000490852'
p3399
g3
((lp3400
I2002
atRp3401
sS'MN0000488859'
p3402
g3
((lp3403
I1977
aI1972
aI1974
aI1975
atRp3404
sS'MN0000784759'
p3405
g3
((lp3406
I1960
aI1962
atRp3407
sS'MN0000801573'
p3408
g3
((lp3409
I1963
atRp3410
sS'MN0000033206'
p3411
g3
((lp3412
I1998
atRp3413
sS'MN0000364572'
p3414
g3
((lp3415
I1992
aI1994
atRp3416
sS'MN0000196248'
p3417
g3
((lp3418
I1980
atRp3419
sS'MN0000032401'
p3420
g3
((lp3421
I1985
aI1986
aI1979
aI1980
aI1981
atRp3422
sS'MN0000996025'
p3423
g3
((lp3424
I2009
atRp3425
sS'MN0000852399'
p3426
g3
((lp3427
I1981
atRp3428
sS'MN0000291043'
p3429
g3
((lp3430
I1985
aI1986
aI1987
aI1996
aI1978
aI1979
aI1980
aI1981
aI1982
aI1983
atRp3431
sS'MN0000028772'
p3432
g3
((lp3433
I1967
aI1968
aI1969
aI1970
aI1971
aI1972
aI1973
aI1976
atRp3434
sS'MN0000477068'
p3435
g3
((lp3436
I1998
atRp3437
sS'MN0000780070'
p3438
g3
((lp3439
I1960
aI1961
atRp3440
sS'MN0000548338'
p3441
g3
((lp3442
I1970
aI1963
atRp3443
sS'MN0000565727'
p3444
g3
((lp3445
I1966
atRp3446
sS'MN0000944349'
p3447
g3
((lp3448
I1984
aI1986
aI1987
aI1988
atRp3449
sS'MN0000135193'
p3450
g3
((lp3451
I1969
atRp3452
sS'MN0000264350'
p3453
g3
((lp3454
I2009
aI2002
aI2003
aI2005
aI2006
atRp3455
sS'MN0000667794'
p3456
g3
((lp3457
I1976
aI1970
aI1972
aI1978
aI1974
atRp3458
sS'MN0000294923'
p3459
g3
((lp3460
I1967
aI1968
aI1969
aI1970
aI1971
aI1973
aI1975
atRp3461
sS'MN0000829267'
p3462
g3
((lp3463
I1998
atRp3464
sS'MN0000147635'
p3465
g3
((lp3466
I1985
aI1986
aI1987
aI1988
aI1989
aI1971
aI1972
aI1973
aI1974
aI1975
aI1976
aI1978
aI1979
aI1980
aI1982
aI1983
atRp3467
sS'MN0000017136'
p3468
g3
((lp3469
I1960
aI1963
atRp3470
sS'MN0000937703'
p3471
g3
((lp3472
I1960
aI1961
aI1962
aI1965
atRp3473
sS'MN0000572106'
p3474
g3
((lp3475
I1970
aI1965
atRp3476
sS'MN0000048622'
p3477
g3
((lp3478
I1961
aI1962
atRp3479
sS'MN0000317093'
p3480
g3
((lp3481
I1960
aI1961
aI1962
aI1963
aI1964
aI1966
atRp3482
sS'MN0000492521'
p3483
g3
((lp3484
I1961
atRp3485
sS'MN0000081079'
p3486
g3
((lp3487
I1998
aI1991
atRp3488
sS'MN0000868616'
p3489
g3
((lp3490
I2001
aI2003
aI2004
aI2005
aI2006
aI2007
aI2008
atRp3491
sS'MN0000868617'
p3492
g3
((lp3493
I1995
atRp3494
sS'MN0000812480'
p3495
g3
((lp3496
I1969
aI1979
atRp3497
sS'MN0000500612'
p3498
g3
((lp3499
I1999
atRp3500
sS'MN0000569256'
p3501
g3
((lp3502
I1968
aI1962
aI1963
aI1964
atRp3503
sS'MN0000203296'
p3504
g3
((lp3505
I1973
atRp3506
sS'MN0000739742'
p3507
g3
((lp3508
I2006
atRp3509
sS'MN0000925450'
p3510
g3
((lp3511
I1969
aI1970
aI1971
aI1972
aI1973
aI1974
atRp3512
sS'MN0000591806'
p3513
g3
((lp3514
I1965
atRp3515
sS'MN0000476425'
p3516
g3
((lp3517
I2007
atRp3518
sS'MN0000149515'
p3519
g3
((lp3520
I1984
aI1986
aI1989
aI1990
aI1968
aI1969
aI1970
aI1971
aI1972
aI1973
aI1974
aI1975
aI1978
atRp3521
sS'MN0000852062'
p3522
g3
((lp3523
I1993
atRp3524
sS'MN0000938487'
p3525
g3
((lp3526
I2004
atRp3527
sS'MN0000949980'
p3528
g3
((lp3529
I1984
atRp3530
sS'MN0000287407'
p3531
g3
((lp3532
I2008
aI2001
aI2003
aI2005
atRp3533
sS'MN0000081814'
p3534
g3
((lp3535
I1963
atRp3536
sS'MN0000831448'
p3537
g3
((lp3538
I1984
atRp3539
sS'MN0000761002'
p3540
g3
((lp3541
I1962
atRp3542
sS'MN0000044764'
p3543
g3
((lp3544
I1979
aI1980
aI1999
atRp3545
sS'MN0000058549'
p3546
g3
((lp3547
I1989
aI1983
atRp3548
sS'MN0001323485'
p3549
g3
((lp3550
I1966
atRp3551
sS'MN0000136640'
p3552
g3
((lp3553
I1992
aI1968
aI1969
aI1970
aI1972
aI1973
aI1976
atRp3554
sS'MN0000585690'
p3555
g3
((lp3556
I2000
atRp3557
sS'MN0000567769'
p3558
g3
((lp3559
I2008
atRp3560
sS'MN0000996127'
p3561
g3
((lp3562
I2008
aI2009
atRp3563
sS'MN0000674662'
p3564
g3
((lp3565
I1964
aI1965
aI1966
aI1968
aI1969
aI1976
atRp3566
sS'MN0000816900'
p3567
g3
((lp3568
I1978
atRp3569
sS'MN0000256395'
p3570
g3
((lp3571
I1964
atRp3572
sS'MN0000799100'
p3573
g3
((lp3574
I1987
aI1988
aI1989
aI1990
aI1991
atRp3575
sS'MN0000279337'
p3576
g3
((lp3577
I1985
aI1986
aI1988
aI1992
aI1993
aI2001
atRp3578
sS'MN0000498484'
p3579
g3
((lp3580
I1992
atRp3581
sS'MN0000480472'
p3582
g3
((lp3583
I1960
aI1961
atRp3584
sS'MN0000520545'
p3585
g3
((lp3586
I2005
aI2006
aI2007
atRp3587
sS'MN0000787011'
p3588
g3
((lp3589
I1965
aI1966
atRp3590
sS'MN0000674262'
p3591
g3
((lp3592
I1971
aI1973
atRp3593
sS'MN0000624749'
p3594
g3
((lp3595
I1966
atRp3596
sS'MN0002010578'
p3597
g3
((lp3598
I1977
atRp3599
sS'MN0000051140'
p3600
g3
((lp3601
I1968
aI1967
atRp3602
sS'MN0000853655'
p3603
g3
((lp3604
I2008
aI2009
aI2006
atRp3605
sS'MN0000800926'
p3606
g3
((lp3607
I1971
atRp3608
sS'MN0000992857'
p3609
g3
((lp3610
I2008
atRp3611
sS'MN0000287080'
p3612
g3
((lp3613
I1977
aI1978
aI1980
aI1982
atRp3614
sS'MN0000918682'
p3615
g3
((lp3616
I1963
atRp3617
sS'MN0000297894'
p3618
g3
((lp3619
I1984
aI1989
aI1970
aI1971
aI1975
aI1976
aI1977
aI1979
aI1980
aI1982
atRp3620
sS'MN0000085908'
p3621
g3
((lp3622
I1961
atRp3623
sS'MN0000016281'
p3624
g3
((lp3625
I1988
aI1996
aI1989
atRp3626
sS'MN0000201983'
p3627
g3
((lp3628
I2000
atRp3629
sS'MN0000242543'
p3630
g3
((lp3631
I1981
aI1982
atRp3632
sS'MN0000570108'
p3633
g3
((lp3634
I1973
atRp3635
sS'MN0000768010'
p3636
g3
((lp3637
I1970
aI1971
aI1966
atRp3638
sS'MN0000085206'
p3639
g3
((lp3640
I1977
atRp3641
sS'MN0000517175'
p3642
g3
((lp3643
I1978
atRp3644
sS'MN0000938878'
p3645
g3
((lp3646
I1977
aI1973
aI1974
atRp3647
sS'MN0000183311'
p3648
g3
((lp3649
I1989
atRp3650
sS'MN0000661795'
p3651
g3
((lp3652
I2000
aI2001
aI2003
aI1998
aI1999
atRp3653
sS'MN0000221059'
p3654
g3
((lp3655
I2008
aI2009
aI2003
aI2005
atRp3656
sS'MN0000481057'
p3657
g3
((lp3658
I1985
aI1986
aI1988
atRp3659
sS'MN0000031697'
p3660
g3
((lp3661
I1977
aI1978
atRp3662
sS'MN0000203639'
p3663
g3
((lp3664
I1964
aI1965
aI1966
aI1967
aI1968
aI1973
aI1977
atRp3665
sS'MN0000382880'
p3666
g3
((lp3667
I1983
atRp3668
sS'MN0000029604'
p3669
g3
((lp3670
I1969
atRp3671
sS'MN0000057835'
p3672
g3
((lp3673
I1977
atRp3674
sS'MN0000477875'
p3675
g3
((lp3676
I1962
aI1963
aI1964
aI1965
aI1966
aI1967
aI1968
aI1969
aI1970
aI1971
aI1972
aI1973
aI1976
atRp3677
sS'MN0000792348'
p3678
g3
((lp3679
I1988
atRp3680
sS'MN0000758444'
p3681
g3
((lp3682
I1994
atRp3683
sS'MN0000574119'
p3684
g3
((lp3685
I2000
aI2001
aI1999
atRp3686
sS'MN0000834673'
p3687
g3
((lp3688
I1968
aI1972
atRp3689
sS'MN0000405113'
p3690
g3
((lp3691
I1962
atRp3692
sS'MN0000894962'
p3693
g3
((lp3694
I2005
atRp3695
sS'MN0000830319'
p3696
g3
((lp3697
I1968
aI1969
aI1967
atRp3698
sS'MN0000815236'
p3699
g3
((lp3700
I1980
atRp3701
sS'MN0000143951'
p3702
g3
((lp3703
I1960
aI1961
aI1972
atRp3704
sS'MN0000776093'
p3705
g3
((lp3706
I2004
aI2002
aI1988
atRp3707
sS'MN0000815167'
p3708
g3
((lp3709
I1994
aI1997
atRp3710
sS'MN0000450883'
p3711
g3
((lp3712
I2007
atRp3713
sS'MN0000754251'
p3714
g3
((lp3715
I1987
atRp3716
sS'MN0000100116'
p3717
g3
((lp3718
I2009
aI2005
atRp3719
sS'MN0000495288'
p3720
g3
((lp3721
I1995
atRp3722
sS'MN0000222436'
p3723
g3
((lp3724
I1985
aI1986
aI1988
atRp3725
sS'MN0000065231'
p3726
g3
((lp3727
I1995
atRp3728
sS'MN0000209517'
p3729
g3
((lp3730
I1969
aI1971
atRp3731
sS'MN0000010458'
p3732
g3
((lp3733
I1985
atRp3734
sS'MN0000304102'
p3735
g3
((lp3736
I1992
atRp3737
sS'MN0000615826'
p3738
g3
((lp3739
I1964
aI1965
aI1967
atRp3740
sS'MN0000402249'
p3741
g3
((lp3742
I2002
aI1995
atRp3743
sS'MN0000158309'
p3744
g3
((lp3745
I1984
aI1985
aI1986
aI1988
aI1979
aI1980
aI1981
aI1982
aI1983
atRp3746
sS'MN0000019873'
p3747
g3
((lp3748
I1979
aI1980
atRp3749
sS'MN0000156950'
p3750
g3
((lp3751
I1999
atRp3752
sS'MN0000201297'
p3753
g3
((lp3754
I1972
aI1973
aI1975
aI1976
aI1977
aI1978
aI1979
aI1980
atRp3755
sS'MN0000175286'
p3756
g3
((lp3757
I1984
aI1974
aI1977
aI1978
aI1979
aI1980
aI1981
aI1982
atRp3758
sS'MN0000145669'
p3759
g3
((lp3760
I1968
aI1969
atRp3761
sS'MN0000030928'
p3762
g3
((lp3763
I1992
aI1993
aI1994
aI1995
aI1991
atRp3764
sS'MN0000581644'
p3765
g3
((lp3766
I1965
atRp3767
sS'MN0000000441'
p3768
g3
((lp3769
I2001
aI2006
atRp3770
sS'MN0000866588'
p3771
g3
((lp3772
I1998
atRp3773
sS'MN0000920939'
p3774
g3
((lp3775
I1971
aI1972
aI1974
atRp3776
sS'MN0000953430'
p3777
g3
((lp3778
I1983
atRp3779
sS'MN0001021310'
p3780
g3
((lp3781
I2008
aI2009
atRp3782
sS'MN0000320845'
p3783
g3
((lp3784
I1976
aI1977
aI1986
aI1979
atRp3785
sS'MN0000725333'
p3786
g3
((lp3787
I2006
atRp3788
sS'MN0000284667'
p3789
g3
((lp3790
I1986
aI1987
aI1988
aI1989
aI1991
atRp3791
sS'MN0000934174'
p3792
g3
((lp3793
I1988
atRp3794
sS'MN0000503242'
p3795
g3
((lp3796
I2009
aI2005
aI2007
atRp3797
sS'MN0000857621'
p3798
g3
((lp3799
I2005
aI2006
atRp3800
sS'MN0000599389'
p3801
g3
((lp3802
I1976
aI1977
atRp3803
sS'MN0000215513'
p3804
g3
((lp3805
I2008
aI2005
aI2006
aI2007
atRp3806
sS'MN0000045560'
p3807
g3
((lp3808
I2005
atRp3809
sS'MN0000011210'
p3810
g3
((lp3811
I1991
atRp3812
sS'MN0000074302'
p3813
g3
((lp3814
I1964
atRp3815
sS'MN0000221235'
p3816
g3
((lp3817
I1976
atRp3818
sS'MN0000260212'
p3819
g3
((lp3820
I1986
aI1988
aI1989
aI1990
aI1991
atRp3821
sS'MN0000115554'
p3822
g3
((lp3823
I1997
atRp3824
sS'MN0000473554'
p3825
g3
((lp3826
I1984
aI1985
aI1988
aI1992
aI1971
aI1974
aI1975
aI1976
aI1977
aI1978
aI1979
aI1980
aI1981
aI1982
aI1983
atRp3827
sS'MN0000772567'
p3828
g3
((lp3829
I1968
aI1969
aI1970
atRp3830
sS'MN0001176481'
p3831
g3
((lp3832
I1984
aI1985
aI1976
aI1977
aI1978
aI1979
aI1980
aI1981
aI1982
aI1983
atRp3833
sS'MN0000627026'
p3834
g3
((lp3835
I2007
atRp3836
sS'MN0000804289'
p3837
g3
((lp3838
I1970
aI1971
aI1972
aI1973
aI1975
atRp3839
sS'MN0000845196'
p3840
g3
((lp3841
I1976
atRp3842
sS'MN0000961529'
p3843
g3
((lp3844
I1965
atRp3845
sS'MN0000046814'
p3846
g3
((lp3847
I2002
aI2004
aI2005
aI2006
aI2007
aI2008
atRp3848
sS'MN0000762929'
p3849
g3
((lp3850
I1991
atRp3851
sS'MN0000607028'
p3852
g3
((lp3853
I1961
aI1963
atRp3854
sS'MN0000920338'
p3855
g3
((lp3856
I1996
aI1997
aI1999
atRp3857
sS'MN0000036641'
p3858
g3
((lp3859
I2005
aI2007
atRp3860
sS'MN0000132856'
p3861
g3
((lp3862
I1995
aI1991
atRp3863
sS'MN0000091549'
p3864
g3
((lp3865
I2002
aI2003
aI2004
atRp3866
sS'MN0000070704'
p3867
g3
((lp3868
I1994
aI1995
atRp3869
sS'MN0000372229'
p3870
g3
((lp3871
I1993
aI1994
aI1997
aI1998
atRp3872
sS'MN0000235923'
p3873
g3
((lp3874
I1977
aI1978
aI1979
aI1980
aI1981
atRp3875
sS'MN0000258947'
p3876
g3
((lp3877
I1995
atRp3878
sS'MN0000322027'
p3879
g3
((lp3880
I1962
atRp3881
sS'MN0000061226'
p3882
g3
((lp3883
I1993
aI1994
aI1989
aI1990
atRp3884
sS'MN0001762023'
p3885
g3
((lp3886
I1961
atRp3887
sS'MN0000131986'
p3888
g3
((lp3889
I2008
aI2003
aI2004
atRp3890
sS'MN0000046727'
p3891
g3
((lp3892
I1965
aI1966
aI1969
aI1970
aI1971
aI1973
aI1979
atRp3893
sS'MN0000772745'
p3894
g3
((lp3895
I2001
aI2004
aI2006
aI2007
atRp3896
sS'MN0000858006'
p3897
g3
((lp3898
I1985
aI1981
aI1982
aI1983
atRp3899
sS'MN0000486047'
p3900
g3
((lp3901
I1997
atRp3902
sS'MN0001715000'
p3903
g3
((lp3904
I1964
atRp3905
sS'MN0000188935'
p3906
g3
((lp3907
I1981
atRp3908
sS'MN0000021008'
p3909
g3
((lp3910
I2001
atRp3911
sS'MN0000772981'
p3912
g3
((lp3913
I1985
atRp3914
sS'MN0000005501'
p3915
g3
((lp3916
I2005
atRp3917
sS'MN0001013375'
p3918
g3
((lp3919
I2009
atRp3920
sS'MN0000033560'
p3921
g3
((lp3922
I1976
aI1979
aI1974
atRp3923
sS'MN0000073383'
p3924
g3
((lp3925
I1981
aI1982
aI1983
atRp3926
sS'MN0000316834'
p3927
g3
((lp3928
I2001
aI1962
aI1963
aI1964
aI1965
aI1966
aI1967
aI1968
aI1969
aI1970
aI1971
aI1972
aI1973
aI1974
aI1976
aI1977
atRp3929
sS'MN0002931540'
p3930
g3
((lp3931
I1977
aI1978
atRp3932
sS'MN0000753999'
p3933
g3
((lp3934
I1960
atRp3935
sS'MN0000165030'
p3936
g3
((lp3937
I1995
atRp3938
sS'MN0000619536'
p3939
g3
((lp3940
I2005
aI2007
atRp3941
sS'MN0000471156'
p3942
g3
((lp3943
I1980
aI1981
aI1974
atRp3944
sS'MN0000121012'
p3945
g3
((lp3946
I2003
atRp3947
sS'MN0000196965'
p3948
g3
((lp3949
I2003
atRp3950
sS'MN0001061504'
p3951
g3
((lp3952
I1977
aI1961
atRp3953
sS'MN0000069153'
p3954
g3
((lp3955
I1963
aI1965
aI1969
aI1971
aI1972
aI1975
atRp3956
sS'MN0000673933'
p3957
g3
((lp3958
I1999
atRp3959
sS'MN0000591104'
p3960
g3
((lp3961
I1963
aI1965
atRp3962
sS'MN0000022928'
p3963
g3
((lp3964
I1968
aI1969
aI1970
aI1971
aI1974
atRp3965
sS'MN0000226420'
p3966
g3
((lp3967
I2003
atRp3968
sS'MN0000472440'
p3969
g3
((lp3970
I1960
aI1961
aI1963
aI1965
aI1966
atRp3971
sS'MN0000322733'
p3972
g3
((lp3973
I2001
aI2003
aI2005
atRp3974
sS'MN0000611797'
p3975
g3
((lp3976
I2006
atRp3977
sS'MN0000393106'
p3978
g3
((lp3979
I1964
aI1965
aI1966
atRp3980
sS'MN0000144446'
p3981
g3
((lp3982
I1972
atRp3983
sS'MN0000737886'
p3984
g3
((lp3985
I1999
aI2000
aI2001
aI2002
aI2007
aI2008
atRp3986
sS'MN0000160690'
p3987
g3
((lp3988
I1990
aI1992
aI1993
aI1996
aI1997
aI1998
aI2000
atRp3989
sS'MN0000483563'
p3990
g3
((lp3991
I1997
atRp3992
sS'MN0000852656'
p3993
g3
((lp3994
I1993
atRp3995
sS'MN0000835648'
p3996
g3
((lp3997
I1972
aI1973
atRp3998
sS'MN0000574597'
p3999
g3
((lp4000
I1984
aI1985
aI1986
aI1987
aI1983
atRp4001
sS'MN0000604489'
p4002
g3
((lp4003
I1990
atRp4004
sS'MN0000008110'
p4005
g3
((lp4006
I1964
atRp4007
sS'MN0000032620'
p4008
g3
((lp4009
I1965
atRp4010
sS'MN0000077283'
p4011
g3
((lp4012
I1993
aI1996
aI1991
atRp4013
sS'MN0000138760'
p4014
g3
((lp4015
I2004
atRp4016
sS'MN0000312782'
p4017
g3
((lp4018
I1976
atRp4019
sS'MN0000194018'
p4020
g3
((lp4021
I1961
aI1962
aI1963
aI1964
aI1965
aI1981
atRp4022
sS'MN0000203916'
p4023
g3
((lp4024
I1962
atRp4025
sS'MN0000374593'
p4026
g3
((lp4027
I1964
atRp4028
sS'MN0000059156'
p4029
g3
((lp4030
I1964
aI1965
aI1967
aI1968
aI1969
aI1970
aI1971
aI1972
aI1973
aI1974
atRp4031
sS'MN0000595718'
p4032
g3
((lp4033
I1999
atRp4034
sS'MN0000490860'
p4035
g3
((lp4036
I2003
aI2004
aI2005
aI2006
aI2007
aI2009
atRp4037
sS'MN0000130171'
p4038
g3
((lp4039
I1975
atRp4040
sS'MN0000130173'
p4041
g3
((lp4042
I1987
aI1988
atRp4043
sS'MN0000170770'
p4044
g3
((lp4045
I2008
aI2000
aI2003
aI1997
atRp4046
sS'MN0000068551'
p4047
g3
((lp4048
I1999
aI2000
aI2001
aI2002
aI2003
aI2004
aI2005
aI2006
aI2007
aI2008
atRp4049
sS'MN0000659299'
p4050
g3
((lp4051
I2000
aI2001
aI2002
aI2003
aI2004
aI2005
aI2006
aI2007
aI2008
atRp4052
sS'MN0000061044'
p4053
g3
((lp4054
I1992
aI1993
aI1986
aI1988
aI1989
atRp4055
sS'MN0000061045'
p4056
g3
((lp4057
I1978
aI1980
atRp4058
sS'MN0000805661'
p4059
g3
((lp4060
I1980
aI1971
aI1972
atRp4061
sS'MN0000630603'
p4062
g3
((lp4063
I1960
atRp4064
sS'MN0000798248'
p4065
g3
((lp4066
I2000
aI2001
aI2005
aI2007
atRp4067
sS'MN0000195729'
p4068
g3
((lp4069
I1983
atRp4070
sS'MN0000545523'
p4071
g3
((lp4072
I2009
aI2007
atRp4073
sS'MN0000220590'
p4074
g3
((lp4075
I1992
aI1993
aI1996
atRp4076
sS'MN0000067267'
p4077
g3
((lp4078
I1995
atRp4079
sS'MN0000689326'
p4080
g3
((lp4081
I1987
aI1988
aI1989
aI1990
atRp4082
sS'MN0000437983'
p4083
g3
((lp4084
I1981
atRp4085
sS'MN0000656541'
p4086
g3
((lp4087
I2009
aI2007
atRp4088
sS'MN0000597516'
p4089
g3
((lp4090
I1976
aI1977
aI1978
aI1971
aI1979
atRp4091
sS'MN0000150793'
p4092
g3
((lp4093
I1994
atRp4094
sS'MN0003349614'
p4095
g3
((lp4096
I1981
atRp4097
sS'MN0000087697'
p4098
g3
((lp4099
I2005
atRp4100
sS'MN0000153443'
p4101
g3
((lp4102
I2001
aI2003
aI2004
atRp4103
sS'MN0000146755'
p4104
g3
((lp4105
I1987
aI1989
atRp4106
sS'MN0001009342'
p4107
g3
((lp4108
I2009
atRp4109
sS'MN0000495338'
p4110
g3
((lp4111
I1993
aI1994
aI1995
aI1996
aI1998
atRp4112
sS'MN0000296209'
p4113
g3
((lp4114
I1961
aI1962
aI1964
atRp4115
sS'MN0000789634'
p4116
g3
((lp4117
I1967
atRp4118
sS'MN0000522377'
p4119
g3
((lp4120
I1985
aI1986
aI1987
aI1988
aI1991
aI1993
aI1994
aI1996
atRp4121
sS'MN0000211850'
p4122
g3
((lp4123
I1996
atRp4124
sS'MN0000164156'
p4125
g3
((lp4126
I2001
atRp4127
sS'MN0000746128'
p4128
g3
((lp4129
I1991
atRp4130
sS'MN0000932922'
p4131
g3
((lp4132
I1976
atRp4133
sS'MN0000185669'
p4134
g3
((lp4135
I1970
aI1971
aI1972
aI1973
aI1974
aI1975
aI1976
aI1980
aI1981
atRp4136
sS'MN0000152023'
p4137
g3
((lp4138
I2000
aI1996
atRp4139
sS'MN0000577627'
p4140
g3
((lp4141
I1966
aI1967
aI1968
aI1969
aI1970
aI1971
aI1972
aI1973
aI1974
aI1975
aI1978
aI1979
aI1981
aI1982
atRp4142
sS'MN0000251361'
p4143
g3
((lp4144
I1983
atRp4145
sS'MN0000247691'
p4146
g3
((lp4147
I1993
atRp4148
sS'MN0000889411'
p4149
g3
((lp4150
I1993
aI1995
atRp4151
sS'MN0000314113'
p4152
g3
((lp4153
I1965
atRp4154
sS'MN0001564863'
p4155
g3
((lp4156
I1961
aI1963
atRp4157
sS'MN0000756349'
p4158
g3
((lp4159
I1989
atRp4160
sS'MN0000350127'
p4161
g3
((lp4162
I1981
atRp4163
sS'MN0000325126'
p4164
g3
((lp4165
I1998
atRp4166
sS'MN0000366407'
p4167
g3
((lp4168
I1968
aI1969
aI1965
aI1966
aI1967
atRp4169
sS'MN0000139741'
p4170
g3
((lp4171
I1984
atRp4172
sS'MN0000746302'
p4173
g3
((lp4174
I2009
aI2003
atRp4175
sS'MN0000940125'
p4176
g3
((lp4177
I2005
atRp4178
sS'MN0000312890'
p4179
g3
((lp4180
I2002
aI2003
aI2006
aI2007
atRp4181
sS'MN0000224113'
p4182
g3
((lp4183
I1960
atRp4184
sS'MN0000575405'
p4185
g3
((lp4186
I1995
atRp4187
sS'MN0000210323'
p4188
g3
((lp4189
I1964
aI1965
aI1966
aI1967
aI1968
aI1969
aI1972
aI1977
atRp4190
sS'MN0000796734'
p4191
g3
((lp4192
I1970
aI1971
aI1972
aI1973
aI1974
aI1975
aI1976
aI1978
aI1979
aI1980
aI1981
aI1982
aI1983
aI1984
aI1985
aI1986
aI1988
aI1989
aI1990
aI1992
aI1993
aI1994
aI1995
aI1996
aI1997
aI1998
atRp4193
sS'MN0000796736'
p4194
g3
((lp4195
I1976
aI1974
aI1975
atRp4196
sS'MN0000868289'
p4197
g3
((lp4198
I1977
aI1978
aI1980
atRp4199
sS'MN0000883619'
p4200
g3
((lp4201
I1984
aI1980
atRp4202
sS'MN0000847006'
p4203
g3
((lp4204
I2005
aI2006
atRp4205
sS'MN0000661811'
p4206
g3
((lp4207
I1970
aI1971
atRp4208
sS'MN0000460979'
p4209
g3
((lp4210
I1998
atRp4211
sS'MN0000055304'
p4212
g3
((lp4213
I1960
aI1961
atRp4214
sS'MN0000191947'
p4215
g3
((lp4216
I1971
aI1972
aI1973
aI1974
aI1975
aI1976
aI1977
aI1978
aI1982
atRp4217
sS'MN0000944241'
p4218
g3
((lp4219
I1963
atRp4220
sS'MN0000120521'
p4221
g3
((lp4222
I1960
aI1972
aI1964
aI1965
atRp4223
sS'MN0000375287'
p4224
g3
((lp4225
I1976
aI1960
aI1975
atRp4226
sS'MN0000077264'
p4227
g3
((lp4228
I1989
aI1990
atRp4229
sS'MN0000664849'
p4230
g3
((lp4231
I1978
aI1979
aI1974
aI1975
atRp4232
sS'MN0000153630'
p4233
g3
((lp4234
I1994
atRp4235
sS'MN0000190717'
p4236
g3
((lp4237
I1994
atRp4238
sS'MN0000203008'
p4239
g3
((lp4240
I1977
aI1980
aI1981
aI1982
aI1985
atRp4241
sS'MN0000112789'
p4242
g3
((lp4243
I2005
aI2006
aI2007
atRp4244
sS'MN0000524837'
p4245
g3
((lp4246
I1966
atRp4247
sS'MN0000224826'
p4248
g3
((lp4249
I1960
atRp4250
sS'MN0000768160'
p4251
g3
((lp4252
I1964
atRp4253
sS'MN0000159433'
p4254
g3
((lp4255
I1995
atRp4256
sS'MN0000882956'
p4257
g3
((lp4258
I1970
aI1971
aI1988
aI1975
atRp4259
sS'MN0000048696'
p4260
g3
((lp4261
I1977
atRp4262
sS'MN0000467382'
p4263
g3
((lp4264
I1989
aI1990
atRp4265
sS'MN0000163229'
p4266
g3
((lp4267
I1973
aI1974
aI1975
aI1976
aI1977
aI1978
aI1979
aI1980
aI1981
aI1983
atRp4268
sS'MN0000137904'
p4269
g3
((lp4270
I2003
atRp4271
sS'MN0000076025'
p4272
g3
((lp4273
I1962
atRp4274
sS'MN0002536669'
p4275
g3
((lp4276
I2009
atRp4277
sS'MN0000181817'
p4278
g3
((lp4279
I1990
atRp4280
sS'MN0001217599'
p4281
g3
((lp4282
I1964
atRp4283
sS'MN0000924918'
p4284
g3
((lp4285
I1961
aI1962
aI1963
aI1965
atRp4286
sS'MN0000988944'
p4287
g3
((lp4288
I2008
atRp4289
sS'MN0000127360'
p4290
g3
((lp4291
I1995
aI1996
atRp4292
sS'MN0001412272'
p4293
g3
((lp4294
I1960
atRp4295
sS'MN0000040666'
p4296
g3
((lp4297
I1971
atRp4298
sS'MN0000843106'
p4299
g3
((lp4300
I1969
atRp4301
sS'MN0000921895'
p4302
g3
((lp4303
I1993
aI1995
aI1997
aI1998
aI2001
aI2002
atRp4304
sS'MN0000578744'
p4305
g3
((lp4306
I1968
aI1969
aI1962
aI1977
aI1967
atRp4307
sS'MN0001572321'
p4308
g3
((lp4309
I1980
atRp4310
sS'MN0000069986'
p4311
g3
((lp4312
I1985
aI1968
aI1969
aI1970
aI1971
aI2006
aI1976
aI1977
aI1978
aI1979
aI1980
aI1981
aI1982
aI1983
atRp4313
sS'MN0000182415'
p4314
g3
((lp4315
I1994
atRp4316
sS'MN0000373634'
p4317
g3
((lp4318
I1994
aI1996
aI1999
aI2001
aI2002
aI2004
aI2008
atRp4319
sS'MN0000812877'
p4320
g3
((lp4321
I1995
atRp4322
sS'MN0000858827'
p4323
g3
((lp4324
I1984
aI1985
aI1986
aI1989
aI1992
aI1975
aI1976
aI1977
aI1978
aI1979
aI1980
aI1981
aI1982
atRp4325
sS'MN0000031685'
p4326
g3
((lp4327
I1986
aI1987
aI1990
aI1972
aI1973
aI1975
aI1977
aI1980
aI1983
atRp4328
sS'MN0000758943'
p4329
g3
((lp4330
I1968
atRp4331
sS'MN0000467279'
p4332
g3
((lp4333
I2007
atRp4334
sS'MN0000741336'
p4335
g3
((lp4336
I1998
atRp4337
sS'MN0001690114'
p4338
g3
((lp4339
I1961
aI1966
atRp4340
sS'MN0000208582'
p4341
g3
((lp4342
I1963
aI1964
aI1965
aI1966
aI1967
atRp4343
sS'MN0000750131'
p4344
g3
((lp4345
I1998
aI1999
aI2000
aI2002
aI2003
aI2004
atRp4346
sS'MN0000788678'
p4347
g3
((lp4348
I1960
aI1962
aI1965
atRp4349
sS'MN0000743098'
p4350
g3
((lp4351
I1963
atRp4352
sS'MN0000317209'
p4353
g3
((lp4354
I1992
atRp4355
sS'MN0000396154'
p4356
g3
((lp4357
I1961
atRp4358
sS'MN0000154544'
p4359
g3
((lp4360
I2009
aI2004
aI2005
aI2007
atRp4361
sS'MN0000665957'
p4362
g3
((lp4363
I1976
aI1972
aI1973
aI1974
aI1975
atRp4364
sS'MN0000665958'
p4365
g3
((lp4366
I1961
atRp4367
sS'MN0000770059'
p4368
g3
((lp4369
I1994
aI1998
atRp4370
sS'MN0000234192'
p4371
g3
((lp4372
I1972
atRp4373
sS'MN0000230478'
p4374
g3
((lp4375
I1966
atRp4376
sS'MN0000359119'
p4377
g3
((lp4378
I1994
aI1995
aI1997
atRp4379
sS'MN0000270497'
p4380
g3
((lp4381
I1989
aI1983
atRp4382
sS'MN0000179941'
p4383
g3
((lp4384
I1970
atRp4385
sS'MN0000599732'
p4386
g3
((lp4387
I1992
aI1994
atRp4388
sS'MN0000562850'
p4389
g3
((lp4390
I2009
aI2007
atRp4391
sS'MN0000270491'
p4392
g3
((lp4393
I1985
aI1970
aI1971
aI1972
aI1973
aI1974
aI1976
aI1982
atRp4394
sS'MN0000884962'
p4395
g3
((lp4396
I1993
aI1987
aI1989
atRp4397
sS'MN0000782163'
p4398
g3
((lp4399
I2000
aI2002
aI2003
aI2007
atRp4400
sS'MN0000292243'
p4401
g3
((lp4402
I1975
atRp4403
sS'MN0000182302'
p4404
g3
((lp4405
I2008
atRp4406
sS'MN0000367188'
p4407
g3
((lp4408
I2008
aI2009
aI2005
aI2006
aI2007
atRp4409
sS'MN0000068155'
p4410
g3
((lp4411
I1961
aI1963
atRp4412
sS'MN0000390477'
p4413
g3
((lp4414
I1994
aI1988
aI1989
aI1990
atRp4415
sS'MN0000473410'
p4416
g3
((lp4417
I1988
atRp4418
sS'MN0001775564'
p4419
g3
((lp4420
I1985
atRp4421
sS'MN0000314155'
p4422
g3
((lp4423
I1981
atRp4424
sS'MN0000081537'
p4425
g3
((lp4426
I1987
atRp4427
sS'MN0001406310'
p4428
g3
((lp4429
I1960
atRp4430
sS'MN0000782768'
p4431
g3
((lp4432
I2000
aI2009
aI2002
aI2001
aI1999
atRp4433
sS'MN0000581859'
p4434
g3
((lp4435
I1968
aI1969
aI1965
aI1966
atRp4436
sS'MN0000771470'
p4437
g3
((lp4438
I1987
atRp4439
sS'MN0000815598'
p4440
g3
((lp4441
I1960
atRp4442
sS'MN0000011597'
p4443
g3
((lp4444
I1967
atRp4445
sS'MN0000123268'
p4446
g3
((lp4447
I2007
atRp4448
sS'MN0000105685'
p4449
g3
((lp4450
I1984
atRp4451
sS'MN0000122023'
p4452
g3
((lp4453
I1964
aI1966
atRp4454
sS'MN0000178345'
p4455
g3
((lp4456
I1990
atRp4457
sS'MN0000027864'
p4458
g3
((lp4459
I1967
atRp4460
sS'MN0000617689'
p4461
g3
((lp4462
I2009
atRp4463
sS'MN0000933621'
p4464
g3
((lp4465
I1990
atRp4466
sS'MN0000846634'
p4467
g3
((lp4468
I2008
aI2005
aI2006
aI2007
atRp4469
sS'MN0001862737'
p4470
g3
((lp4471
I2006
atRp4472
sS'MN0000815575'
p4473
g3
((lp4474
I1963
atRp4475
sS'MN0000057280'
p4476
g3
((lp4477
I2001
atRp4478
sS'MN0000520033'
p4479
g3
((lp4480
I1980
atRp4481
sS'MN0000334041'
p4482
g3
((lp4483
I2002
aI1998
aI1999
atRp4484
sS'MN0000811897'
p4485
g3
((lp4486
I1993
aI1994
aI1996
aI1998
aI1999
aI2000
aI2004
atRp4487
sS'MN0000604924'
p4488
g3
((lp4489
I1968
aI1967
atRp4490
sS'MN0000818200'
p4491
g3
((lp4492
I1996
aI1997
atRp4493
sS'MN0000318910'
p4494
g3
((lp4495
I1966
atRp4496
sS'MN0000407986'
p4497
g3
((lp4498
I1975
aI1976
aI1978
aI1979
aI1980
aI1981
aI1982
aI1983
atRp4499
sS'MN0002983732'
p4500
g3
((lp4501
I1983
atRp4502
sS'MN0000751623'
p4503
g3
((lp4504
I1978
atRp4505
sS'MN0000108331'
p4506
g3
((lp4507
I1967
atRp4508
sS'MN0000145054'
p4509
g3
((lp4510
I1993
aI1995
atRp4511
sS'MN0000845187'
p4512
g3
((lp4513
I2006
atRp4514
sS'MN0000129817'
p4515
g3
((lp4516
I1991
atRp4517
sS'MN0000590285'
p4518
g3
((lp4519
I1969
aI1971
aI1972
aI1973
aI1974
aI1975
aI1978
aI1979
aI1980
aI1982
atRp4520
sS'MN0000029291'
p4521
g3
((lp4522
I1997
atRp4523
sS'MN0000041857'
p4524
g3
((lp4525
I1993
atRp4526
sS'MN0002110284'
p4527
g3
((lp4528
I2009
atRp4529
sS'MN0000405968'
p4530
g3
((lp4531
I1976
atRp4532
sS'MN0000762663'
p4533
g3
((lp4534
I2006
atRp4535
sS'MN0000775406'
p4536
g3
((lp4537
I2006
atRp4538
sS'MN0000339490'
p4539
g3
((lp4540
I1970
aI1971
aI1972
aI1973
aI1978
atRp4541
sS'MN0000196881'
p4542
g3
((lp4543
I1982
atRp4544
sS'MN0000092189'
p4545
g3
((lp4546
I1998
atRp4547
sS'MN0000359613'
p4548
g3
((lp4549
I1984
aI1985
aI1988
aI1981
aI1982
aI1983
atRp4550
sS'MN0000205180'
p4551
g3
((lp4552
I1972
aI1973
aI1974
atRp4553
sS'MN0000377035'
p4554
g3
((lp4555
I1977
aI1979
atRp4556
sS'MN0000070773'
p4557
g3
((lp4558
I1966
aI1967
aI1968
aI1969
aI1970
aI1971
aI1972
atRp4559
sS'MN0000383889'
p4560
g3
((lp4561
I2002
aI2003
aI2007
atRp4562
sS'MN0000166264'
p4563
g3
((lp4564
I1976
aI1977
aI1978
atRp4565
sS'MN0000037252'
p4566
g3
((lp4567
I1964
atRp4568
sS'MN0000349555'
p4569
g3
((lp4570
I1963
atRp4571
sS'MN0000141774'
p4572
g3
((lp4573
I1992
atRp4574
sS'MN0000807213'
p4575
g3
((lp4576
I1985
aI1988
atRp4577
sS'MN0000571394'
p4578
g3
((lp4579
I1996
atRp4580
sS'MN0000587152'
p4581
g3
((lp4582
I1968
atRp4583
sS'MN0001205305'
p4584
g3
((lp4585
I1962
atRp4586
sS'MN0000099925'
p4587
g3
((lp4588
I2003
atRp4589
sS'MN0000192382'
p4590
g3
((lp4591
I1985
aI1968
aI1969
aI1970
aI1973
aI1974
atRp4592
sS'MN0000119393'
p4593
g3
((lp4594
I1992
atRp4595
sS'MN0000738674'
p4596
g3
((lp4597
I1972
aI1973
aI1974
aI1975
atRp4598
sS'MN0000277549'
p4599
g3
((lp4600
I1961
atRp4601
sS'MN0000298492'
p4602
g3
((lp4603
I1968
aI1969
aI1967
atRp4604
sS'MN0000337271'
p4605
g3
((lp4606
I1975
atRp4607
sS'MN0000858710'
p4608
g3
((lp4609
I1960
aI1968
aI1970
aI1962
aI1961
atRp4610
sS'MN0000212235'
p4611
g3
((lp4612
I1991
atRp4613
sS'MN0000064303'
p4614
g3
((lp4615
I1969
aI1970
aI1971
aI1972
aI1981
atRp4616
sS'MN0000550120'
p4617
g3
((lp4618
I2006
atRp4619
sS'MN0000580928'
p4620
g3
((lp4621
I1964
aI1965
aI1966
atRp4622
sS'MN0000099032'
p4623
g3
((lp4624
I1987
atRp4625
sS'MN0000204968'
p4626
g3
((lp4627
I1963
atRp4628
sS'MN0000479772'
p4629
g3
((lp4630
I1985
aI1982
aI1983
atRp4631
sS'MN0000293896'
p4632
g3
((lp4633
I1971
aI1972
aI1973
aI1974
aI1975
aI1976
aI1977
aI1978
aI1979
aI1980
aI1981
aI1982
aI1983
aI1984
aI1986
aI1987
aI1988
aI1989
aI1991
aI1993
aI1994
aI1995
aI1996
aI1998
atRp4634
sS'MN0000096613'
p4635
g3
((lp4636
I1992
aI1994
aI1990
aI1991
atRp4637
sS'MN0000081739'
p4638
g3
((lp4639
I2003
aI2004
aI2005
aI2006
aI2007
aI2008
aI2009
atRp4640
sS'MN0000620578'
p4641
g3
((lp4642
I1960
atRp4643
sS'MN0002002344'
p4644
g3
((lp4645
I2006
atRp4646
sS'MN0000196976'
p4647
g3
((lp4648
I2004
aI2005
atRp4649
sS'MN0003389510'
p4650
g3
((lp4651
I1999
atRp4652
sS'MN0000168173'
p4653
g3
((lp4654
I2004
atRp4655
sS'MN0000144458'
p4656
g3
((lp4657
I1971
aI1972
aI1973
aI1974
aI1975
atRp4658
sS'MN0000119651'
p4659
g3
((lp4660
I1976
aI1972
atRp4661
sS'MN0000303626'
p4662
g3
((lp4663
I1986
aI1987
aI1976
aI1977
aI1978
aI1979
aI1980
aI1982
aI1983
atRp4664
sS'MN0000604852'
p4665
g3
((lp4666
I1987
aI1988
aI1989
aI1990
aI1993
aI1994
aI1997
aI1998
aI2001
aI1975
aI1979
atRp4667
sS'MN0000747820'
p4668
g3
((lp4669
I1970
atRp4670
sS'MN0000804654'
p4671
g3
((lp4672
I1979
atRp4673
sS'MN0000294453'
p4674
g3
((lp4675
I1964
aI1966
aI1967
atRp4676
sS'MN0000676818'
p4677
g3
((lp4678
I2000
aI2001
aI2002
aI2003
aI2004
aI2005
atRp4679
sS'MN0000073806'
p4680
g3
((lp4681
I1961
aI1962
atRp4682
sS'MN0002114292'
p4683
g3
((lp4684
I1961
atRp4685
sS'MN0000394806'
p4686
g3
((lp4687
I1977
atRp4688
sS'MN0000224345'
p4689
g3
((lp4690
I2000
atRp4691
sS'MN0000033316'
p4692
g3
((lp4693
I1974
atRp4694
sS'MN0000262794'
p4695
g3
((lp4696
I1994
aI1995
aI1996
atRp4697
sS'MN0000936126'
p4698
g3
((lp4699
I1960
atRp4700
sS'MN0000001418'
p4701
g3
((lp4702
I2008
aI2004
aI2005
aI2006
aI2007
atRp4703
sS'MN0000017882'
p4704
g3
((lp4705
I1960
atRp4706
sS'MN0000292129'
p4707
g3
((lp4708
I1967
atRp4709
sS'MN0000067876'
p4710
g3
((lp4711
I1983
atRp4712
sS'MN0000210143'
p4713
g3
((lp4714
I2000
atRp4715
sS'MN0000079580'
p4716
g3
((lp4717
I1965
aI1966
atRp4718
sS'MN0000116716'
p4719
g3
((lp4720
I1968
atRp4721
sS'MN0000156484'
p4722
g3
((lp4723
I1995
atRp4724
sS'MN0000495508'
p4725
g3
((lp4726
I1961
aI1962
atRp4727
sS'MN0000018513'
p4728
g3
((lp4729
I1985
atRp4730
sS'MN0000765595'
p4731
g3
((lp4732
I1995
aI1998
aI1999
aI2000
aI2001
aI2005
aI2007
atRp4733
sS'MN0000853629'
p4734
g3
((lp4735
I2000
aI2002
atRp4736
sS'MN0000133719'
p4737
g3
((lp4738
I1998
atRp4739
sS'MN0000202344'
p4740
g3
((lp4741
I1976
atRp4742
sS'MN0001317177'
p4743
g3
((lp4744
I1966
atRp4745
sS'MN0000158798'
p4746
g3
((lp4747
I1984
atRp4748
sS'MN0000498648'
p4749
g3
((lp4750
I2009
atRp4751
sS'MN0000891338'
p4752
g3
((lp4753
I1967
atRp4754
sS'MN0000147294'
p4755
g3
((lp4756
I1973
atRp4757
sS'MN0000072041'
p4758
g3
((lp4759
I1986
aI1976
aI1977
aI1978
aI1979
aI1980
aI1983
atRp4760
sS'MN0000228099'
p4761
g3
((lp4762
I1984
aI1985
aI1986
aI1987
aI1989
atRp4763
sS'MN0000190745'
p4764
g3
((lp4765
I2008
atRp4766
sS'MN0003014650'
p4767
g3
((lp4768
I1961
atRp4769
sS'MN0000536321'
p4770
g3
((lp4771
I2009
atRp4772
sS'MN0000329468'
p4773
g3
((lp4774
I1960
aI1961
aI1962
aI1963
aI1964
aI1965
aI1966
aI1967
aI1968
aI1969
aI1970
aI1971
aI1972
atRp4775
sS'MN0000808321'
p4776
g3
((lp4777
I1963
aI1965
atRp4778
sS'MN0000316096'
p4779
g3
((lp4780
I1968
aI1969
atRp4781
sS'MN0000053548'
p4782
g3
((lp4783
I1961
atRp4784
sS'MN0000786991'
p4785
g3
((lp4786
I1962
atRp4787
sS'MN0000597801'
p4788
g3
((lp4789
I1981
atRp4790
sS'MN0000633078'
p4791
g3
((lp4792
I1993
aI1995
atRp4793
sS'MN0000633079'
p4794
g3
((lp4795
I1968
aI1969
aI1967
atRp4796
sS'MN0000743878'
p4797
g3
((lp4798
I1960
atRp4799
sS'MN0000100487'
p4800
g3
((lp4801
I1966
atRp4802
sS'MN0000102399'
p4803
g3
((lp4804
I1982
atRp4805
sS'MN0000244254'
p4806
g3
((lp4807
I1971
aI1972
atRp4808
sS'MN0000836802'
p4809
g3
((lp4810
I1985
atRp4811
sS'MN0000816701'
p4812
g3
((lp4813
I1984
aI1988
aI1976
aI1979
aI1981
aI1982
atRp4814
sS'MN0000014854'
p4815
g3
((lp4816
I1976
aI1977
aI1978
atRp4817
sS'MN0000170180'
p4818
g3
((lp4819
I1995
atRp4820
sS'MN0000106882'
p4821
g3
((lp4822
I1973
aI1974
aI1975
atRp4823
sS'MN0000038805'
p4824
g3
((lp4825
I2001
aI2002
aI1999
atRp4826
sS'MN0000824895'
p4827
g3
((lp4828
I1972
aI1973
atRp4829
sS'MN0000262956'
p4830
g3
((lp4831
I1994
aI1991
atRp4832
sS'MN0000295276'
p4833
g3
((lp4834
I1969
aI1970
atRp4835
sS'MN0000767622'
p4836
g3
((lp4837
I1965
atRp4838
sS'MN0000012340'
p4839
g3
((lp4840
I2006
atRp4841
sS'MN0000661318'
p4842
g3
((lp4843
I1992
atRp4844
sS'MN0000741431'
p4845
g3
((lp4846
I1994
atRp4847
sS'MN0000346451'
p4848
g3
((lp4849
I1961
atRp4850
sS'MN0002315081'
p4851
g3
((lp4852
I1961
atRp4853
sS'MN0000472925'
p4854
g3
((lp4855
I1998
aI1999
aI2000
aI2002
aI2003
aI2008
atRp4856
sS'MN0000596126'
p4857
g3
((lp4858
I1973
atRp4859
sS'MN0000780451'
p4860
g3
((lp4861
I1960
aI1961
aI1973
aI1975
atRp4862
sS'MN0000112387'
p4863
g3
((lp4864
I1997
atRp4865
sS'MN0000116388'
p4866
g3
((lp4867
I1985
aI1980
atRp4868
sS'MN0000951443'
p4869
g3
((lp4870
I1985
atRp4871
sS'MN0000260038'
p4872
g3
((lp4873
I1960
aI1961
aI1962
aI1963
atRp4874
sS'MN0000533117'
p4875
g3
((lp4876
I1994
atRp4877
sS'MN0000665835'
p4878
g3
((lp4879
I1972
atRp4880
sS'MN0000151431'
p4881
g3
((lp4882
I1968
aI1964
aI1965
aI1966
aI1967
atRp4883
sS'MN0000035338'
p4884
g3
((lp4885
I1984
aI1982
aI1991
atRp4886
sS'MN0000121357'
p4887
g3
((lp4888
I1979
atRp4889
sS'MN0000540010'
p4890
g3
((lp4891
I1995
atRp4892
sS'MN0000799053'
p4893
g3
((lp4894
I1965
aI1966
aI1967
aI1968
aI1969
aI1970
aI1971
aI1973
atRp4895
sS'MN0000012128'
p4896
g3
((lp4897
I1994
aI1995
aI1996
atRp4898
sS'MN0000166785'
p4899
g3
((lp4900
I1984
aI1985
aI1987
aI1978
aI1980
aI1981
aI1982
aI1983
atRp4901
sS'MN0000190235'
p4902
g3
((lp4903
I1992
atRp4904
sS'MN0001590987'
p4905
g3
((lp4906
I1965
atRp4907
sS'MN0000349096'
p4908
g3
((lp4909
I1973
aI1974
atRp4910
sS'MN0000356679'
p4911
g3
((lp4912
I1998
atRp4913
sS'MN0000306258'
p4914
g3
((lp4915
I2001
aI2003
aI2004
aI2005
aI2006
aI2009
atRp4916
sS'MN0000489303'
p4917
g3
((lp4918
I1965
aI1966
aI1967
atRp4919
sS'MN0002886133'
p4920
g3
((lp4921
I1964
atRp4922
sS'MN0000069702'
p4923
g3
((lp4924
I1989
atRp4925
sS'MN0000050148'
p4926
g3
((lp4927
I1964
atRp4928
sS'MN0000142178'
p4929
g3
((lp4930
I1969
aI1963
aI1967
atRp4931
sS'MN0000175049'
p4932
g3
((lp4933
I1992
aI1995
aI1991
atRp4934
sS'MN0000163256'
p4935
g3
((lp4936
I1986
atRp4937
sS'MN0000034867'
p4938
g3
((lp4939
I1961
aI1962
atRp4940
sS'MN0000449578'
p4941
g3
((lp4942
I1986
atRp4943
sS'MN0000111523'
p4944
g3
((lp4945
I1962
aI1963
atRp4946
sS'MN0001002843'
p4947
g3
((lp4948
I2008
aI2005
aI2006
atRp4949
sS'MN0000796690'
p4950
g3
((lp4951
I1962
aI1964
aI1965
aI1974
atRp4952
sS'MN0000064509'
p4953
g3
((lp4954
I1968
aI1969
aI1970
aI1971
aI1972
aI1973
aI1974
aI1975
atRp4955
sS'MN0000284263'
p4956
g3
((lp4957
I1964
atRp4958
sS'MN0000662067'
p4959
g3
((lp4960
I1994
atRp4961
sS'MN0000011052'
p4962
g3
((lp4963
I1994
aI1995
aI1998
aI2000
aI2002
aI2003
atRp4964
sS'MN0000242573'
p4965
g3
((lp4966
I1965
aI1966
atRp4967
sS'MN0000068097'
p4968
g3
((lp4969
I1966
atRp4970
sS'MN0000140176'
p4971
g3
((lp4972
I1961
atRp4973
sS'MN0000808214'
p4974
g3
((lp4975
I1973
aI1974
aI1975
aI1978
aI1980
aI1981
aI1983
atRp4976
sS'MN0000598794'
p4977
g3
((lp4978
I1976
atRp4979
sS'MN0000136381'
p4980
g3
((lp4981
I1969
atRp4982
sS'MN0000337717'
p4983
g3
((lp4984
I1960
aI1972
aI1962
aI1964
aI1961
atRp4985
sS'MN0000584923'
p4986
g3
((lp4987
I1985
aI1970
aI1979
aI1981
aI1983
atRp4988
sS'MN0000180449'
p4989
g3
((lp4990
I1985
aI1986
aI1987
aI1988
atRp4991
sS'MN0000749476'
p4992
g3
((lp4993
I1993
aI1997
aI1998
aI1999
aI2000
aI2001
aI2005
atRp4994
sS'MN0000830375'
p4995
g3
((lp4996
I1966
atRp4997
sS'MN0000774588'
p4998
g3
((lp4999
I1977
aI1971
aI1972
aI1973
aI1974
atRp5000
sS'MN0000757774'
p5001
g3
((lp5002
I1981
aI1982
atRp5003
sS'MN0000695401'
p5004
g3
((lp5005
I1976
atRp5006
sS'MN0000612320'
p5007
g3
((lp5008
I1963
atRp5009
sS'MN0003420680'
p5010
g3
((lp5011
I1972
aI1973
aI1974
atRp5012
sS'MN0000590524'
p5013
g3
((lp5014
I1968
aI1966
atRp5015
sS'MN0000358408'
p5016
g3
((lp5017
I1986
aI1988
atRp5018
sS'MN0000256528'
p5019
g3
((lp5020
I2000
atRp5021
sS'MN0000814898'
p5022
g3
((lp5023
I1961
aI1969
aI1965
aI1966
aI1967
atRp5024
sS'MN0000925635'
p5025
g3
((lp5026
I2001
atRp5027
sS'MN0000181321'
p5028
g3
((lp5029
I1983
atRp5030
sS'MN0001883376'
p5031
g3
((lp5032
I1990
atRp5033
sS'MN0000094752'
p5034
g3
((lp5035
I1987
aI1988
aI1989
aI1990
aI1991
aI1993
aI1995
aI1996
aI1997
aI1998
aI2000
aI2002
aI2004
atRp5036
sS'MN0000864973'
p5037
g3
((lp5038
I2001
atRp5039
sS'MN0000630909'
p5040
g3
((lp5041
I2009
atRp5042
sS'MN0000412513'
p5043
g3
((lp5044
I1963
aI1964
atRp5045
sS'MN0000662797'
p5046
g3
((lp5047
I1996
aI1999
aI2000
aI2001
aI2002
aI2003
aI2009
atRp5048
sS'MN0000506362'
p5049
g3
((lp5050
I1986
atRp5051
sS'MN0000314166'
p5052
g3
((lp5053
I1979
atRp5054
sS'MN0000765075'
p5055
g3
((lp5056
I1964
atRp5057
sS'MN0000266063'
p5058
g3
((lp5059
I2008
aI2009
aI2005
aI2006
aI2007
atRp5060
sS'MN0000774691'
p5061
g3
((lp5062
I1967
atRp5063
sS'MN0000243137'
p5064
g3
((lp5065
I1980
atRp5066
sS'MN0000840907'
p5067
g3
((lp5068
I1986
atRp5069
sS'MN0000172582'
p5070
g3
((lp5071
I2004
aI2005
atRp5072
sS'MN0000468313'
p5073
g3
((lp5074
I2009
atRp5075
sS'MN0000108256'
p5076
g3
((lp5077
I1984
aI1978
aI1979
atRp5078
sS'MN0000475459'
p5079
g3
((lp5080
I1961
atRp5081
sS'MN0000097409'
p5082
g3
((lp5083
I1964
atRp5084
sS'MN0000372322'
p5085
g3
((lp5086
I1995
aI1996
atRp5087
sS'MN0000820434'
p5088
g3
((lp5089
I1985
aI1986
aI1987
aI1988
aI1990
aI1991
aI1992
aI1993
aI1995
aI1996
aI1997
aI2002
aI2003
aI2009
atRp5090
sS'MN0000007731'
p5091
g3
((lp5092
I2000
aI2002
aI2004
aI2005
aI2007
aI2009
atRp5093
sS'MN0000624282'
p5094
g3
((lp5095
I2008
atRp5096
sS'MN0000301955'
p5097
g3
((lp5098
I1965
aI1967
atRp5099
sS'MN0000169566'
p5100
g3
((lp5101
I1960
atRp5102
sS'MN0000393345'
p5103
g3
((lp5104
I2008
aI1996
atRp5105
sS'MN0000162074'
p5106
g3
((lp5107
I2001
atRp5108
sS'MN0000110011'
p5109
g3
((lp5110
I2001
atRp5111
sS'MN0001011769'
p5112
g3
((lp5113
I1986
atRp5114
sS'MN0000934350'
p5115
g3
((lp5116
I1976
atRp5117
sS'MN0002489021'
p5118
g3
((lp5119
I2009
atRp5120
sS'MN0000046120'
p5121
g3
((lp5122
I1968
atRp5123
sS'MN0000106540'
p5124
g3
((lp5125
I1992
aI1993
aI1995
aI1996
atRp5126
sS'MN0000169818'
p5127
g3
((lp5128
I2000
atRp5129
sS'MN0000861252'
p5130
g3
((lp5131
I2008
aI2009
aI2005
aI2006
aI2007
atRp5132
sS'MN0000277131'
p5133
g3
((lp5134
I1962
atRp5135
sS'MN0001192244'
p5136
g3
((lp5137
I1984
atRp5138
sS'MN0000576979'
p5139
g3
((lp5140
I1974
atRp5141
sS'MN0000870330'
p5142
g3
((lp5143
I1977
atRp5144
sS'MN0000623486'
p5145
g3
((lp5146
I1996
atRp5147
sS'MN0000300534'
p5148
g3
((lp5149
I1969
aI1970
aI1972
aI1965
atRp5150
sS'MN0000840348'
p5151
g3
((lp5152
I2004
atRp5153
sS'MN0000145734'
p5154
g3
((lp5155
I1979
atRp5156
sS'MN0000155116'
p5157
g3
((lp5158
I1966
aI1967
atRp5159
sS'MN0000870809'
p5160
g3
((lp5161
I2003
atRp5162
sS'MN0000634180'
p5163
g3
((lp5164
I1995
aI1997
atRp5165
sS'MN0000258276'
p5166
g3
((lp5167
I1990
aI1991
atRp5168
sS'MN0000780215'
p5169
g3
((lp5170
I1970
atRp5171
sS'MN0000145920'
p5172
g3
((lp5173
I1971
aI1973
atRp5174
sS'MN0000587079'
p5175
g3
((lp5176
I1993
atRp5177
sS'MN0000339624'
p5178
g3
((lp5179
I1993
aI1994
aI1995
aI1996
aI1978
aI1981
atRp5180
sS'MN0000577953'
p5181
g3
((lp5182
I1969
atRp5183
sS'MN0000472089'
p5184
g3
((lp5185
I1975
atRp5186
sS'MN0000886648'
p5187
g3
((lp5188
I1996
atRp5189
sS'MN0000833539'
p5190
g3
((lp5191
I1997
aI1998
atRp5192
sS'MN0000524721'
p5193
g3
((lp5194
I1965
atRp5195
sS'MN0000591763'
p5196
g3
((lp5197
I1969
atRp5198
sS'MN0000739306'
p5199
g3
((lp5200
I1987
atRp5201
sS'MN0000326249'
p5202
g3
((lp5203
I2008
atRp5204
sS'MN0000809357'
p5205
g3
((lp5206
I1985
atRp5207
sS'MN0000994986'
p5208
g3
((lp5209
I2008
atRp5210
sS'MN0000221894'
p5211
g3
((lp5212
I1974
aI1975
atRp5213
sS'MN0000208218'
p5214
g3
((lp5215
I2004
atRp5216
sS'MN0000762270'
p5217
g3
((lp5218
I2002
aI2003
atRp5219
sS'MN0000620603'
p5220
g3
((lp5221
I1995
atRp5222
sS'MN0000204756'
p5223
g3
((lp5224
I1995
atRp5225
sS'MN0000118664'
p5226
g3
((lp5227
I1988
aI1990
atRp5228
sS'MN0000504815'
p5229
g3
((lp5230
I1973
aI1974
aI1975
aI1978
aI1979
aI1981
atRp5231
sS'MN0000580485'
p5232
g3
((lp5233
I1973
aI1975
atRp5234
sS'MN0000744442'
p5235
g3
((lp5236
I1978
aI1979
atRp5237
sS'MN0000709715'
p5238
g3
((lp5239
I2009
atRp5240
sS'MN0000477410'
p5241
g3
((lp5242
I1962
aI1963
aI1964
atRp5243
sS'MN0000124880'
p5244
g3
((lp5245
I1995
atRp5246
sS'MN0000788126'
p5247
g3
((lp5248
I2000
atRp5249
sS'MN0000115140'
p5250
g3
((lp5251
I1972
aI1973
aI1975
atRp5252
sS'MN0000502774'
p5253
g3
((lp5254
I1960
aI1964
atRp5255
sS'MN0000325401'
p5256
g3
((lp5257
I1964
aI1965
aI1966
aI1967
aI1968
aI1969
atRp5258
sS'MN0000465822'
p5259
g3
((lp5260
I1997
atRp5261
sS'MN0000311674'
p5262
g3
((lp5263
I1968
aI1969
aI1967
atRp5264
sS'MN0000038321'
p5265
g3
((lp5266
I2006
aI2007
atRp5267
sS'MN0000816890'
p5268
g3
((lp5269
I1960
aI1961
aI1962
aI1963
aI1964
aI1965
aI1966
aI1968
aI1969
aI1970
aI1971
aI1972
aI1976
atRp5270
sS'MN0000803513'
p5271
g3
((lp5272
I1985
atRp5273
sS'MN0000156161'
p5274
g3
((lp5275
I1993
atRp5276
sS'MN0000801762'
p5277
g3
((lp5278
I1960
aI1961
aI1962
atRp5279
sS'MN0000047915'
p5280
g3
((lp5281
I1962
aI1963
atRp5282
sS'MN0000178536'
p5283
g3
((lp5284
I1971
aI1972
aI1973
aI1974
atRp5285
sS'MN0000156749'
p5286
g3
((lp5287
I2000
atRp5288
sS'MN0000098467'
p5289
g3
((lp5290
I1977
atRp5291
sS'MN0000594665'
p5292
g3
((lp5293
I1984
aI1985
aI1970
aI1971
aI1973
aI1974
aI1975
aI1976
aI1977
aI1978
aI1979
aI1980
aI1981
aI1982
aI1983
atRp5294
sS'MN0001186965'
p5295
g3
((lp5296
I2005
atRp5297
sS'MN0000857203'
p5298
g3
((lp5299
I1961
aI1962
atRp5300
sS'MN0000935330'
p5301
g3
((lp5302
I1992
aI1993
aI1994
aI1996
aI1997
aI2000
aI2002
atRp5303
sS'MN0000193043'
p5304
g3
((lp5305
I1970
atRp5306
sS'MN0000026367'
p5307
g3
((lp5308
I1992
aI1989
atRp5309
sS'MN0000531986'
p5310
g3
((lp5311
I1984
aI1986
aI1987
aI1997
aI1972
aI1973
aI1974
aI1975
aI1976
aI1977
aI1983
atRp5312
sS'MN0000116760'
p5313
g3
((lp5314
I1971
aI1972
aI1967
atRp5315
sS'MN0000836960'
p5316
g3
((lp5317
I1979
atRp5318
sS'MN0000490805'
p5319
g3
((lp5320
I1968
aI1966
aI1967
atRp5321
sS'MN0000312522'
p5322
g3
((lp5323
I1976
aI1975
atRp5324
sS'MN0000733096'
p5325
g3
((lp5326
I2009
atRp5327
sS'MN0000228715'
p5328
g3
((lp5329
I1972
aI1973
atRp5330
sS'MN0001541500'
p5331
g3
((lp5332
I1984
atRp5333
sS'MN0000891434'
p5334
g3
((lp5335
I1968
atRp5336
sS'MN0000197582'
p5337
g3
((lp5338
I1960
aI1961
aI1962
aI1963
atRp5339
sS'MN0000398259'
p5340
g3
((lp5341
I1972
atRp5342
sS'MN0000482787'
p5343
g3
((lp5344
I1987
aI1990
aI1970
aI1974
aI1980
aI1981
aI1983
atRp5345
sS'MN0000784760'
p5346
g3
((lp5347
I1968
aI1969
aI1967
atRp5348
sS'MN0000732709'
p5349
g3
((lp5350
I2006
atRp5351
sS'MN0000747967'
p5352
g3
((lp5353
I1960
aI1966
atRp5354
sS'MN0000342691'
p5355
g3
((lp5356
I1976
aI1975
atRp5357
sS'MN0000859868'
p5358
g3
((lp5359
I1984
atRp5360
sS'MN0000325353'
p5361
g3
((lp5362
I1975
atRp5363
sS'MN0000226714'
p5364
g3
((lp5365
I2004
aI2006
atRp5366
sS'MN0000838524'
p5367
g3
((lp5368
I1969
aI1971
aI1981
atRp5369
sS'MN0000784010'
p5370
g3
((lp5371
I2008
aI2007
atRp5372
sS'MN0000459328'
p5373
g3
((lp5374
I1989
atRp5375
sS'MN0000254618'
p5376
g3
((lp5377
I1963
atRp5378
sS'MN0000466353'
p5379
g3
((lp5380
I1986
atRp5381
sS'MN0000840215'
p5382
g3
((lp5383
I1990
atRp5384
sS'MN0000625345'
p5385
g3
((lp5386
I1970
atRp5387
sS'MN0000405655'
p5388
g3
((lp5389
I1980
aI1981
aI1982
aI1983
atRp5390
sS'MN0000944310'
p5391
g3
((lp5392
I1961
aI1965
atRp5393
sS'MN0000400322'
p5394
g3
((lp5395
I1969
aI1970
atRp5396
sS'MN0000100496'
p5397
g3
((lp5398
I1988
atRp5399
sS'MN0000274822'
p5400
g3
((lp5401
I1963
aI1965
atRp5402
sS'MN0000625731'
p5403
g3
((lp5404
I2008
aI2009
aI2002
aI2005
aI2007
atRp5405
sS'MN0000059537'
p5406
g3
((lp5407
I1968
atRp5408
sS'MN0000451483'
p5409
g3
((lp5410
I1994
aI1995
aI1996
atRp5411
sS'MN0000185543'
p5412
g3
((lp5413
I1993
atRp5414
sS'MN0000799330'
p5415
g3
((lp5416
I1985
atRp5417
sS'MN0000098081'
p5418
g3
((lp5419
I1967
aI1968
aI1969
aI1970
aI1971
aI1972
aI1973
aI1978
aI1980
aI1983
atRp5420
sS'MN0000753706'
p5421
g3
((lp5422
I2008
aI2009
aI2003
aI2005
aI2006
atRp5423
sS'MN0000291909'
p5424
g3
((lp5425
I1985
atRp5426
sS'MN0000165624'
p5427
g3
((lp5428
I1980
aI1981
aI1982
atRp5429
sS'MN0000806645'
p5430
g3
((lp5431
I1972
aI1973
aI1976
aI1977
aI1978
aI1979
aI1980
aI1982
atRp5432
sS'MN0000853504'
p5433
g3
((lp5434
I1974
atRp5435
sS'MN0000252608'
p5436
g3
((lp5437
I1966
atRp5438
sS'MN0000010407'
p5439
g3
((lp5440
I1982
atRp5441
sS'MN0000253734'
p5442
g3
((lp5443
I1993
aI1996
aI1990
aI1991
atRp5444
sS'MN0000171117'
p5445
g3
((lp5446
I1969
atRp5447
sS'MN0000246611'
p5448
g3
((lp5449
I1982
atRp5450
sS'MN0000626358'
p5451
g3
((lp5452
I1963
atRp5453
sS'MN0000015927'
p5454
g3
((lp5455
I1987
atRp5456
sS'MN0000142106'
p5457
g3
((lp5458
I1979
atRp5459
sS'MN0000044751'
p5460
g3
((lp5461
I1999
atRp5462
sS'MN0000569914'
p5463
g3
((lp5464
I1967
atRp5465
sS'MN0000582313'
p5466
g3
((lp5467
I1969
aI1964
aI1965
atRp5468
sS'MN0000839432'
p5469
g3
((lp5470
I2002
aI2004
atRp5471
sS'MN0000820278'
p5472
g3
((lp5473
I1974
atRp5474
sS'MN0000757342'
p5475
g3
((lp5476
I2004
atRp5477
sS'MN0000583959'
p5478
g3
((lp5479
I2006
aI1975
aI1976
aI1978
aI1980
aI1982
atRp5480
sS'MN0000031067'
p5481
g3
((lp5482
I1962
aI1963
aI1964
aI1965
aI1967
aI1969
aI1971
aI1975
atRp5483
sS'MN0000408500'
p5484
g3
((lp5485
I1985
aI1986
atRp5486
sS'MN0000283335'
p5487
g3
((lp5488
I1982
aI1983
atRp5489
sS'MN0000064961'
p5490
g3
((lp5491
I1978
aI1979
atRp5492
sS'MN0003360385'
p5493
g3
((lp5494
I1960
atRp5495
sS'MN0000368112'
p5496
g3
((lp5497
I1998
aI1999
aI2000
aI2001
aI2002
aI2003
aI2004
aI2005
aI2007
aI2009
atRp5498
sS'MN0000192840'
p5499
g3
((lp5500
I1976
aI1977
aI1978
atRp5501
sS'MN0000207498'
p5502
g3
((lp5503
I1960
aI1961
atRp5504
sS'MN0000217792'
p5505
g3
((lp5506
I1981
aI1971
aI1972
aI1973
aI1975
atRp5507
sS'MN0000139655'
p5508
g3
((lp5509
I1984
aI1985
aI1987
aI1983
atRp5510
sS'MN0000856640'
p5511
g3
((lp5512
I1996
aI1997
atRp5513
sS'MN0000771438'
p5514
g3
((lp5515
I1972
atRp5516
sS'MN0000800373'
p5517
g3
((lp5518
I1979
atRp5519
sS'MN0000159699'
p5520
g3
((lp5521
I1981
atRp5522
sS'MN0000255887'
p5523
g3
((lp5524
I1986
aI1987
atRp5525
sS'MN0000626774'
p5526
g3
((lp5527
I1989
atRp5528
sS'MN0000089232'
p5529
g3
((lp5530
I1994
atRp5531
sS'MN0000784320'
p5532
g3
((lp5533
I1987
atRp5534
sS'MN0000164594'
p5535
g3
((lp5536
I1961
aI1962
aI1963
aI1964
aI1966
aI1967
aI1975
atRp5537
sS'MN0000016617'
p5538
g3
((lp5539
I1973
atRp5540
sS'MN0000503913'
p5541
g3
((lp5542
I1971
atRp5543
sS'MN0000368522'
p5544
g3
((lp5545
I1986
atRp5546
sS'MN0000149605'
p5547
g3
((lp5548
I2002
atRp5549
sS'MN0000923618'
p5550
g3
((lp5551
I1966
aI1967
atRp5552
sS'MN0000198396'
p5553
g3
((lp5554
I1969
atRp5555
sS'MN0001292549'
p5556
g3
((lp5557
I1965
aI1966
atRp5558
sS'MN0000007384'
p5559
g3
((lp5560
I2008
atRp5561
sS'MN0000569685'
p5562
g3
((lp5563
I1984
aI1986
aI1960
aI1964
aI1965
aI1966
aI1967
aI1968
aI1969
aI1970
aI1971
aI1972
aI1973
aI1974
aI1975
aI1980
atRp5564
sS'MN0000396531'
p5565
g3
((lp5566
I1979
atRp5567
sS'MN0000386603'
p5568
g3
((lp5569
I1970
aI1971
atRp5570
sS'MN0000320470'
p5571
g3
((lp5572
I2003
atRp5573
sS'MN0000065590'
p5574
g3
((lp5575
I1994
atRp5576
sS'MN0000290502'
p5577
g3
((lp5578
I2001
aI2004
aI1999
atRp5579
sS'MN0000688515'
p5580
g3
((lp5581
I2000
aI1999
atRp5582
sS'MN0000345355'
p5583
g3
((lp5584
I1994
aI1995
aI1996
aI1989
aI1999
atRp5585
sS'MN0000137494'
p5586
g3
((lp5587
I1960
aI1961
aI1962
aI1963
aI1964
aI1968
atRp5588
sS'MN0000308072'
p5589
g3
((lp5590
I1960
atRp5591
sS'MN0000571185'
p5592
g3
((lp5593
I1965
aI1966
atRp5594
sS'MN0000071409'
p5595
g3
((lp5596
I1961
aI1962
atRp5597
sS'MN0000116178'
p5598
g3
((lp5599
I1986
aI1982
aI1983
atRp5600
sS'MN0000950805'
p5601
g3
((lp5602
I1986
aI1987
aI1988
atRp5603
sS'MN0000159340'
p5604
g3
((lp5605
I2003
atRp5606
sS'MN0000792370'
p5607
g3
((lp5608
I1997
atRp5609
sS'MN0000808198'
p5610
g3
((lp5611
I1967
atRp5612
sS'MN0000954279'
p5613
g3
((lp5614
I1972
atRp5615
sS'MN0000013825'
p5616
g3
((lp5617
I2000
atRp5618
sS'MN0000418662'
p5619
g3
((lp5620
I1986
atRp5621
sS'MN0000806770'
p5622
g3
((lp5623
I1998
atRp5624
sS'MN0001239264'
p5625
g3
((lp5626
I1962
atRp5627
sS'MN0000796460'
p5628
g3
((lp5629
I2002
atRp5630
sS'MN0000031959'
p5631
g3
((lp5632
I2002
atRp5633
sS'MN0000770853'
p5634
g3
((lp5635
I1977
atRp5636
sS'MN0000919853'
p5637
g3
((lp5638
I1961
aI1963
aI1964
aI1966
aI1967
aI1969
aI1970
atRp5639
sS'MN0000087162'
p5640
g3
((lp5641
I1979
atRp5642
sS'MN0000403184'
p5643
g3
((lp5644
I1971
aI1972
aI1973
aI1974
aI1975
aI1976
atRp5645
sS'MN0000662438'
p5646
g3
((lp5647
I1960
aI1961
atRp5648
sS'MN0000191175'
p5649
g3
((lp5650
I1983
atRp5651
sS'MN0000585249'
p5652
g3
((lp5653
I1992
aI1993
aI1995
atRp5654
sS'MN0000198480'
p5655
g3
((lp5656
I1971
aI1972
aI1973
aI1974
aI1975
aI1976
aI1977
aI1979
atRp5657
sS'MN0000866841'
p5658
g3
((lp5659
I1985
aI1979
atRp5660
sS'MN0000413000'
p5661
g3
((lp5662
I2005
atRp5663
sS'MN0000265456'
p5664
g3
((lp5665
I1960
aI1961
aI1962
aI1963
aI1964
atRp5666
sS'MN0000478982'
p5667
g3
((lp5668
I1992
aI1993
aI1994
aI1998
atRp5669
sS'MN0000208076'
p5670
g3
((lp5671
I1984
aI1985
aI1986
aI1988
aI1989
aI1991
aI1992
aI1993
aI1994
aI1995
aI2001
aI2002
aI1982
atRp5672
sS'MN0000493122'
p5673
g3
((lp5674
I1966
aI1967
aI1968
aI1969
aI1970
aI1971
atRp5675
sS'MN0000826762'
p5676
g3
((lp5677
I1993
aI1994
atRp5678
sS'MN0001217575'
p5679
g3
((lp5680
I1960
atRp5681
sS'MN0000038491'
p5682
g3
((lp5683
I1976
atRp5684
sS'MN0000256349'
p5685
g3
((lp5686
I1969
aI1963
aI1965
atRp5687
sS'MN0000305468'
p5688
g3
((lp5689
I1988
aI1990
aI1991
atRp5690
sS'MN0000282841'
p5691
g3
((lp5692
I1966
aI1967
atRp5693
sS'MN0000723867'
p5694
g3
((lp5695
I1962
atRp5696
sS'MN0000865016'
p5697
g3
((lp5698
I1984
aI1985
aI1986
aI1988
aI1989
aI1996
aI1997
aI1983
atRp5699
sS'MN0000109025'
p5700
g3
((lp5701
I1976
atRp5702
sS'MN0000894847'
p5703
g3
((lp5704
I1984
aI1985
aI1986
aI1987
aI1982
aI1983
atRp5705
sS'MN0000154630'
p5706
g3
((lp5707
I1995
atRp5708
sS'MN0000678009'
p5709
g3
((lp5710
I1960
aI1961
aI1962
aI1963
aI1964
aI1969
aI1971
atRp5711
sS'MN0000075473'
p5712
g3
((lp5713
I1984
aI1985
atRp5714
sS'MN0000639304'
p5715
g3
((lp5716
I1996
atRp5717
sS'MN0000020812'
p5718
g3
((lp5719
I1992
aI1990
atRp5720
sS'MN0000350685'
p5721
g3
((lp5722
I2008
aI2009
aI2005
aI2006
aI2007
atRp5723
sS'MN0000061828'
p5724
g3
((lp5725
I1965
atRp5726
sS'MN0000007729'
p5727
g3
((lp5728
I1963
aI1964
atRp5729
sS'MN0000667669'
p5730
g3
((lp5731
I2001
atRp5732
sS'MN0000531238'
p5733
g3
((lp5734
I1961
atRp5735
sS'MN0000851698'
p5736
g3
((lp5737
I1982
atRp5738
sS'MN0000790833'
p5739
g3
((lp5740
I1984
aI1977
aI1979
aI1980
aI1981
aI1982
aI1983
atRp5741
sS'MN0000827367'
p5742
g3
((lp5743
I1968
atRp5744
sS'MN0000068896'
p5745
g3
((lp5746
I2002
aI2003
atRp5747
sS'MN0000093505'
p5748
g3
((lp5749
I1972
atRp5750
sS'MN0000590575'
p5751
g3
((lp5752
I2003
aI2005
atRp5753
sS'MN0000358055'
p5754
g3
((lp5755
I2000
atRp5756
sS'MN0000804703'
p5757
g3
((lp5758
I1986
atRp5759
sS'MN0000850187'
p5760
g3
((lp5761
I2002
atRp5762
sS'MN0000866445'
p5763
g3
((lp5764
I1978
aI1979
atRp5765
sS'MN0000748222'
p5766
g3
((lp5767
I1988
atRp5768
sS'MN0000780520'
p5769
g3
((lp5770
I1991
atRp5771
sS'MN0000945798'
p5772
g3
((lp5773
I1990
aI1991
atRp5774
sS'MN0000822910'
p5775
g3
((lp5776
I2002
atRp5777
sS'MN0000198649'
p5778
g3
((lp5779
I1994
atRp5780
sS'MN0000155928'
p5781
g3
((lp5782
I1983
atRp5783
sS'MN0000057663'
p5784
g3
((lp5785
I1995
aI1996
aI1997
aI1998
atRp5786
sS'MN0000254827'
p5787
g3
((lp5788
I2001
aI2002
aI2003
atRp5789
sS'MN0000045629'
p5790
g3
((lp5791
I1998
atRp5792
sS'MN0000851745'
p5793
g3
((lp5794
I1965
atRp5795
sS'MN0000832799'
p5796
g3
((lp5797
I1971
atRp5798
sS'MN0000602531'
p5799
g3
((lp5800
I2001
atRp5801
sS'MN0000789334'
p5802
g3
((lp5803
I1992
atRp5804
sS'MN0000276381'
p5805
g3
((lp5806
I1986
aI1990
atRp5807
sS'MN0000158656'
p5808
g3
((lp5809
I2006
atRp5810
sS'MN0001009627'
p5811
g3
((lp5812
I2009
aI2005
aI2006
aI2007
atRp5813
sS'MN0000572385'
p5814
g3
((lp5815
I1993
atRp5816
sS'MN0002169362'
p5817
g3
((lp5818
I1973
atRp5819
sS'MN0000584041'
p5820
g3
((lp5821
I2002
aI2003
aI2004
aI2005
aI2006
atRp5822
sS'MN0000865835'
p5823
g3
((lp5824
I1991
atRp5825
sS'MN0000546214'
p5826
g3
((lp5827
I2004
aI2005
aI2006
aI2007
atRp5828
sS'MN0000340111'
p5829
g3
((lp5830
I1977
atRp5831
sS'MN0000361926'
p5832
g3
((lp5833
I1968
atRp5834
sS'MN0000691371'
p5835
g3
((lp5836
I2005
atRp5837
sS'MN0000638960'
p5838
g3
((lp5839
I1962
atRp5840
sS'MN0000148066'
p5841
g3
((lp5842
I1976
atRp5843
sS'MN0000134600'
p5844
g3
((lp5845
I1995
aI1996
atRp5846
sS'MN0000751019'
p5847
g3
((lp5848
I1964
aI1965
aI1966
aI1967
aI1968
aI1983
atRp5849
sS'MN0000097509'
p5850
g3
((lp5851
I1984
aI1977
aI1978
aI1981
atRp5852
sS'MN0000066915'
p5853
g3
((lp5854
I1965
aI1966
aI1969
aI1971
aI1973
aI1974
aI1975
atRp5855
sS'MN0000093215'
p5856
g3
((lp5857
I1994
atRp5858
sS'MN0000939558'
p5859
g3
((lp5860
I1961
atRp5861
sS'MN0000884251'
p5862
g3
((lp5863
I2000
aI2001
aI2002
atRp5864
sS'MN0000019133'
p5865
g3
((lp5866
I1977
aI1978
aI1980
aI1982
aI1975
atRp5867
sS'MN0000669303'
p5868
g3
((lp5869
I1982
aI1974
aI1983
atRp5870
sS'MN0000502198'
p5871
g3
((lp5872
I2008
aI2009
aI2007
atRp5873
sS'MN0000118128'
p5874
g3
((lp5875
I1984
atRp5876
sS'MN0000300801'
p5877
g3
((lp5878
I1963
aI1964
atRp5879
sS'MN0000084082'
p5880
g3
((lp5881
I1979
atRp5882
sS'MN0000570400'
p5883
g3
((lp5884
I1998
atRp5885
sS'MN0000162197'
p5886
g3
((lp5887
I2005
atRp5888
sS'MN0000090889'
p5889
g3
((lp5890
I1967
atRp5891
sS'MN0000044776'
p5892
g3
((lp5893
I1999
atRp5894
sS'MN0000574637'
p5895
g3
((lp5896
I1998
atRp5897
sS'MN0000072999'
p5898
g3
((lp5899
I1968
aI1966
aI1967
atRp5900
sS'MN0000061582'
p5901
g3
((lp5902
I1960
aI1964
atRp5903
sS'MN0000148424'
p5904
g3
((lp5905
I1969
atRp5906
sS'MN0000839110'
p5907
g3
((lp5908
I1963
atRp5909
sS'MN0000315336'
p5910
g3
((lp5911
I1960
aI1962
aI1963
aI1965
aI1968
aI1969
aI1970
aI1971
aI1973
aI1974
atRp5912
sS'MN0000260809'
p5913
g3
((lp5914
I1995
atRp5915
sS'MN0000367417'
p5916
g3
((lp5917
I1993
atRp5918
sS'MN0000269972'
p5919
g3
((lp5920
I1960
aI1961
atRp5921
sS'MN0000752470'
p5922
g3
((lp5923
I1965
atRp5924
sS'MN0000087254'
p5925
g3
((lp5926
I2002
atRp5927
sS'MN0000722133'
p5928
g3
((lp5929
I2008
aI2009
aI2007
atRp5930
sS'MN0000218994'
p5931
g3
((lp5932
I1983
atRp5933
sS'MN0000733717'
p5934
g3
((lp5935
I2006
aI2007
atRp5936
sS'MN0000502163'
p5937
g3
((lp5938
I1976
aI1977
aI1979
aI1973
aI1975
atRp5939
sS'MN0000805274'
p5940
g3
((lp5941
I1993
aI1995
atRp5942
sS'MN0000792942'
p5943
g3
((lp5944
I1984
aI1980
aI1983
atRp5945
sS'MN0000413753'
p5946
g3
((lp5947
I1971
aI1973
aI1974
atRp5948
sS'MN0000360948'
p5949
g3
((lp5950
I2004
atRp5951
sS'MN0000298766'
p5952
g3
((lp5953
I1978
atRp5954
sS'MN0000298764'
p5955
g3
((lp5956
I1989
aI1990
aI1991
aI1992
aI1993
aI1994
atRp5957
sS'MN0000005882'
p5958
g3
((lp5959
I1971
aI1972
atRp5960
sS'MN0000046823'
p5961
g3
((lp5962
I2002
atRp5963
sS'MN0000344332'
p5964
g3
((lp5965
I1970
atRp5966
sS'MN0000896919'
p5967
g3
((lp5968
I1969
atRp5969
sS'MN0000339577'
p5970
g3
((lp5971
I1994
atRp5972
sS'MN0000410219'
p5973
g3
((lp5974
I1977
aI1970
aI1971
aI1973
atRp5975
sS'MN0000805298'
p5976
g3
((lp5977
I1961
atRp5978
sS'MN0000801244'
p5979
g3
((lp5980
I1978
atRp5981
sS'MN0000159805'
p5982
g3
((lp5983
I1990
atRp5984
sS'MN0000762731'
p5985
g3
((lp5986
I1969
aI1970
aI1971
aI1972
aI1973
aI1974
aI1975
atRp5987
sS'MN0000158407'
p5988
g3
((lp5989
I1987
atRp5990
sS'MN0000957102'
p5991
g3
((lp5992
I1993
aI1986
aI1987
atRp5993
sS'MN0000014967'
p5994
g3
((lp5995
I1976
aI1977
atRp5996
sS'MN0000835585'
p5997
g3
((lp5998
I1985
aI1986
aI1987
aI1989
aI1981
aI1983
atRp5999
sS'MN0000000968'
p6000
g3
((lp6001
I1981
aI1982
aI1975
atRp6002
sS'MN0000524522'
p6003
g3
((lp6004
I1995
atRp6005
sS'MN0000957296'
p6006
g3
((lp6007
I1974
atRp6008
sS'MN0000186597'
p6009
g3
((lp6010
I1986
atRp6011
sS'MN0000962339'
p6012
g3
((lp6013
I1977
aI1978
aI1980
aI1970
atRp6014
sS'MN0000062002'
p6015
g3
((lp6016
I1976
aI1979
aI1973
aI1974
aI1975
atRp6017
sS'MN0000096679'
p6018
g3
((lp6019
I1979
aI1981
atRp6020
sS'MN0003317224'
p6021
g3
((lp6022
I2001
atRp6023
sS'MN0000663858'
p6024
g3
((lp6025
I1964
atRp6026
sS'MN0000317865'
p6027
g3
((lp6028
I1999
aI2000
aI2001
aI2002
aI2005
aI2006
aI2007
atRp6029
sS'MN0000170214'
p6030
g3
((lp6031
I1960
aI1961
aI1962
aI1963
atRp6032
sS'MN0000496097'
p6033
g3
((lp6034
I1967
atRp6035
sS'MN0000301783'
p6036
g3
((lp6037
I1994
atRp6038
sS'MN0000170211'
p6039
g3
((lp6040
I1971
aI1972
aI1973
aI1974
aI1975
aI1976
atRp6041
sS'MN0000800103'
p6042
g3
((lp6043
I2001
aI1999
atRp6044
sS'MN0000118342'
p6045
g3
((lp6046
I1973
aI1974
atRp6047
sS'MN0000240461'
p6048
g3
((lp6049
I1996
atRp6050
sS'MN0000079959'
p6051
g3
((lp6052
I1997
atRp6053
sS'MN0000869649'
p6054
g3
((lp6055
I1996
aI1997
atRp6056
sS'MN0000527010'
p6057
g3
((lp6058
I1962
atRp6059
sS'MN0000478246'
p6060
g3
((lp6061
I1968
aI1963
aI1964
aI1974
atRp6062
sS'MN0002556485'
p6063
g3
((lp6064
I1987
aI1989
aI1990
aI1991
atRp6065
sS'MN0000591692'
p6066
g3
((lp6067
I1961
atRp6068
sS'MN0000124972'
p6069
g3
((lp6070
I1975
atRp6071
sS'MN0000506931'
p6072
g3
((lp6073
I1971
atRp6074
sS'MN0000949780'
p6075
g3
((lp6076
I2000
aI1997
atRp6077
sS'MN0000181460'
p6078
g3
((lp6079
I1990
atRp6080
sS'MN0000220946'
p6081
g3
((lp6082
I1968
aI1966
aI1967
atRp6083
sS'MN0000956093'
p6084
g3
((lp6085
I1988
atRp6086
sS'MN0000184811'
p6087
g3
((lp6088
I1994
aI1988
aI1989
aI1991
atRp6089
sS'MN0000375782'
p6090
g3
((lp6091
I1992
aI1993
atRp6092
sS'MN0000957632'
p6093
g3
((lp6094
I2000
atRp6095
sS'MN0000531886'
p6096
g3
((lp6097
I2006
atRp6098
sS'MN0000184814'
p6099
g3
((lp6100
I1960
aI1961
atRp6101
sS'MN0000671128'
p6102
g3
((lp6103
I1998
atRp6104
sS'MN0000369133'
p6105
g3
((lp6106
I1979
atRp6107
sS'MN0000886961'
p6108
g3
((lp6109
I2005
aI2006
atRp6110
sS'MN0000014784'
p6111
g3
((lp6112
I1996
atRp6113
sS'MN0000685396'
p6114
g3
((lp6115
I1989
atRp6116
sS'MN0000042768'
p6117
g3
((lp6118
I1962
atRp6119
sS'MN0000848594'
p6120
g3
((lp6121
I1975
atRp6122
sS'MN0000251358'
p6123
g3
((lp6124
I1997
atRp6125
sS'MN0000691696'
p6126
g3
((lp6127
I2000
atRp6128
sS'MN0000227527'
p6129
g3
((lp6130
I1962
atRp6131
sS'MN0000167361'
p6132
g3
((lp6133
I1996
aI1997
aI1998
aI1999
aI2002
aI2003
atRp6134
sS'MN0000225413'
p6135
g3
((lp6136
I1995
aI1997
atRp6137
sS'MN0000597094'
p6138
g3
((lp6139
I1994
atRp6140
sS'MN0000611929'
p6141
g3
((lp6142
I1982
atRp6143
sS'MN0000139089'
p6144
g3
((lp6145
I2000
aI2001
aI2003
aI1997
aI1998
atRp6146
sS'MN0000931804'
p6147
g3
((lp6148
I1966
atRp6149
sS'MN0000146490'
p6150
g3
((lp6151
I1998
aI1999
atRp6152
sS'MN0000548196'
p6153
g3
((lp6154
I1993
atRp6155
sS'MN0000965206'
p6156
g3
((lp6157
I1963
aI1964
aI1965
aI1966
atRp6158
sS'MN0000048507'
p6159
g3
((lp6160
I1988
aI1990
aI1975
atRp6161
sS'MN0000350840'
p6162
g3
((lp6163
I1974
aI1977
aI1978
aI1979
aI1980
aI1981
atRp6164
sS'MN0000812040'
p6165
g3
((lp6166
I1985
aI1971
atRp6167
sS'MN0000047789'
p6168
g3
((lp6169
I1996
atRp6170
sS'MN0000664817'
p6171
g3
((lp6172
I1989
aI1990
aI1991
aI1992
aI1994
aI1995
aI1996
aI1998
atRp6173
sS'MN0000569962'
p6174
g3
((lp6175
I1972
atRp6176
sS'MN0000875049'
p6177
g3
((lp6178
I1994
atRp6179
sS'MN0000238115'
p6180
g3
((lp6181
I1960
aI1961
aI1962
aI1963
aI1964
aI1965
aI1966
atRp6182
sS'MN0000491288'
p6183
g3
((lp6184
I1982
aI1975
atRp6185
sS'MN0000502437'
p6186
g3
((lp6187
I1976
aI1975
atRp6188
sS'MN0000641111'
p6189
g3
((lp6190
I1960
aI1962
atRp6191
sS'MN0000164053'
p6192
g3
((lp6193
I1995
aI1996
aI1998
aI1999
aI2001
aI2002
aI2005
atRp6194
sS'MN0000136971'
p6195
g3
((lp6196
I1975
atRp6197
sS'MN0000131650'
p6198
g3
((lp6199
I1985
aI1978
aI1979
aI1986
aI1983
atRp6200
sS'MN0000249908'
p6201
g3
((lp6202
I1972
aI1973
aI1974
atRp6203
sS'MN0000756754'
p6204
g3
((lp6205
I2009
atRp6206
sS'MN0000012491'
p6207
g3
((lp6208
I1993
aI1988
aI1990
atRp6209
sS'MN0000933772'
p6210
g3
((lp6211
I1994
aI1998
atRp6212
sS'MN0000621869'
p6213
g3
((lp6214
I2005
atRp6215
sS'MN0000675710'
p6216
g3
((lp6217
I1991
atRp6218
sS'MN0000807347'
p6219
g3
((lp6220
I1985
atRp6221
sS'MN0000945900'
p6222
g3
((lp6223
I1976
aI1974
aI1975
atRp6224
sS'MN0000200679'
p6225
g3
((lp6226
I2009
aI1997
atRp6227
sS'MN0000252509'
p6228
g3
((lp6229
I1967
aI1980
aI1974
aI1975
atRp6230
sS'MN0001941531'
p6231
g3
((lp6232
I1986
atRp6233
sS'MN0000150164'
p6234
g3
((lp6235
I1988
atRp6236
sS'MN0000213212'
p6237
g3
((lp6238
I1967
aI1981
aI1975
atRp6239
sS'MN0000941579'
p6240
g3
((lp6241
I1969
aI1964
aI1965
aI1966
aI1967
atRp6242
sS'MN0000408002'
p6243
g3
((lp6244
I1971
atRp6245
sS'MN0000670057'
p6246
g3
((lp6247
I1984
aI1978
aI1979
atRp6248
sS'MN0000768737'
p6249
g3
((lp6250
I1986
aI1987
aI1988
aI1989
aI1981
atRp6251
sS'MN0000240999'
p6252
g3
((lp6253
I1969
atRp6254
sS'MN0000933883'
p6255
g3
((lp6256
I1977
aI1978
aI1979
aI1980
atRp6257
sS'MN0000490004'
p6258
g3
((lp6259
I1977
atRp6260
sS'MN0000384675'
p6261
g3
((lp6262
I1968
aI1961
aI1962
aI1963
aI1964
atRp6263
sS'MN0000184967'
p6264
g3
((lp6265
I1960
atRp6266
sS'MN0000029867'
p6267
g3
((lp6268
I1965
aI1973
atRp6269
sS'MN0000807725'
p6270
g3
((lp6271
I2000
aI1999
atRp6272
sS'MN0000061479'
p6273
g3
((lp6274
I1960
atRp6275
sS'MN0000592098'
p6276
g3
((lp6277
I1989
atRp6278
sS'MN0000189644'
p6279
g3
((lp6280
I1960
aI1962
atRp6281
sS'MN0001306334'
p6282
g3
((lp6283
I1969
atRp6284
sS'MN0000811622'
p6285
g3
((lp6286
I1971
aI1972
aI1973
aI1974
aI1975
aI1976
aI1978
aI1981
aI1982
atRp6287
sS'MN0000811626'
p6288
g3
((lp6289
I1985
atRp6290
sS'MN0000729857'
p6291
g3
((lp6292
I2008
aI2007
atRp6293
sS'MN0000564239'
p6294
g3
((lp6295
I1965
aI1966
aI1967
aI1968
aI1969
aI1970
atRp6296
sS'MN0000210991'
p6297
g3
((lp6298
I2000
aI2001
aI1999
aI2005
aI1997
atRp6299
sS'MN0000376793'
p6300
g3
((lp6301
I2007
atRp6302
sS'MN0000573870'
p6303
g3
((lp6304
I1968
aI1966
atRp6305
sS'MN0000468962'
p6306
g3
((lp6307
I1978
atRp6308
sS'MN0000349180'
p6309
g3
((lp6310
I1986
atRp6311
sS'MN0000656081'
p6312
g3
((lp6313
I2007
atRp6314
sS'MN0000839369'
p6315
g3
((lp6316
I1962
aI1963
atRp6317
sS'MN0000029884'
p6318
g3
((lp6319
I1984
aI1985
aI1986
aI1989
aI1990
aI1993
aI1975
aI1997
aI2001
aI1971
aI1972
aI1973
aI1974
aI2007
aI1976
aI1978
aI1979
aI1980
aI1982
aI1983
atRp6320
sS'MN0000884449'
p6321
g3
((lp6322
I2008
atRp6323
sS'MN0000090276'
p6324
g3
((lp6325
I1972
aI1973
atRp6326
sS'MN0000894929'
p6327
g3
((lp6328
I1968
aI1964
atRp6329
sS'MN0000758402'
p6330
g3
((lp6331
I2000
atRp6332
sS'MN0000280692'
p6333
g3
((lp6334
I1995
atRp6335
sS'MN0000408994'
p6336
g3
((lp6337
I1961
atRp6338
sS'MN0000096804'
p6339
g3
((lp6340
I1988
atRp6341
sS'MN0000024527'
p6342
g3
((lp6343
I1975
atRp6344
sS'MN0000129775'
p6345
g3
((lp6346
I1967
aI1974
aI1975
aI1976
aI1978
aI1979
atRp6347
sS'MN0000418670'
p6348
g3
((lp6349
I1987
aI1983
atRp6350
sS'MN0000405903'
p6351
g3
((lp6352
I1988
aI1990
atRp6353
sS'MN0000200074'
p6354
g3
((lp6355
I1990
aI1991
aI1993
aI1995
aI1996
aI1998
aI1999
aI2001
aI2004
aI2008
atRp6356
sS'MN0000622060'
p6357
g3
((lp6358
I1978
atRp6359
sS'MN0000092812'
p6360
g3
((lp6361
I1990
atRp6362
sS'MN0000884686'
p6363
g3
((lp6364
I2007
atRp6365
sS'MN0000463742'
p6366
g3
((lp6367
I2006
atRp6368
sS'MN0000565521'
p6369
g3
((lp6370
I1976
aI1977
atRp6371
sS'MN0000592161'
p6372
g3
((lp6373
I2008
aI2009
atRp6374
sS'MN0000196690'
p6375
g3
((lp6376
I2001
aI1983
atRp6377
sS'MN0000078622'
p6378
g3
((lp6379
I1979
atRp6380
sS'MN0000374888'
p6381
g3
((lp6382
I2002
aI2004
atRp6383
sS'MN0000754219'
p6384
g3
((lp6385
I1960
aI1961
aI1962
atRp6386
sS'MN0000142531'
p6387
g3
((lp6388
I1961
aI1962
aI1963
aI1967
aI1977
atRp6389
sS'MN0000820636'
p6390
g3
((lp6391
I2004
atRp6392
sS'MN0000029086'
p6393
g3
((lp6394
I1993
aI1998
aI1999
aI2001
aI2002
aI2005
aI2006
aI2007
aI2009
atRp6395
sS'MN0000159214'
p6396
g3
((lp6397
I1964
aI1965
aI1966
aI1967
aI1968
aI1969
aI1970
atRp6398
sS'MN0000412538'
p6399
g3
((lp6400
I2000
atRp6401
sS'MN0000665364'
p6402
g3
((lp6403
I1983
atRp6404
sS'MN0000768349'
p6405
g3
((lp6406
I2002
atRp6407
sS'MN0000057840'
p6408
g3
((lp6409
I1966
aI1967
aI1968
aI1969
aI1970
aI1971
aI1972
aI1975
aI1983
atRp6410
sS'MN0000057907'
p6411
g3
((lp6412
I1990
atRp6413
sS'MN0000780346'
p6414
g3
((lp6415
I1994
aI1995
aI1996
atRp6416
sS'MN0000774145'
p6417
g3
((lp6418
I2004
atRp6419
sS'MN0000085397'
p6420
g3
((lp6421
I2003
aI1999
atRp6422
sS'MN0001049359'
p6423
g3
((lp6424
I2009
atRp6425
sS'MN0000241498'
p6426
g3
((lp6427
I1997
aI1998
atRp6428
sS'MN0002124302'
p6429
g3
((lp6430
I2009
atRp6431
sS'MN0000127220'
p6432
g3
((lp6433
I1970
atRp6434
sS'MN0000379125'
p6435
g3
((lp6436
I1970
aI1971
aI1974
aI1979
aI1981
aI1983
atRp6437
sS'MN0000011893'
p6438
g3
((lp6439
I1986
atRp6440
sS'MN0000010015'
p6441
g3
((lp6442
I1971
aI1965
atRp6443
sS'MN0000578730'
p6444
g3
((lp6445
I1969
aI1970
atRp6446
sS'MN0000645474'
p6447
g3
((lp6448
I1973
atRp6449
sS'MN0000787940'
p6450
g3
((lp6451
I1993
atRp6452
sS'MN0000655346'
p6453
g3
((lp6454
I1986
atRp6455
sS'MN0000485689'
p6456
g3
((lp6457
I1995
atRp6458
sS'MN0000092107'
p6459
g3
((lp6460
I2004
aI2005
aI2006
aI2007
aI2008
aI2009
atRp6461
sS'MN0000359026'
p6462
g3
((lp6463
I2000
aI2003
aI2005
aI2006
aI1999
atRp6464
sS'MN0000790820'
p6465
g3
((lp6466
I2001
atRp6467
sS'MN0000648765'
p6468
g3
((lp6469
I1990
atRp6470
sS'MN0000690254'
p6471
g3
((lp6472
I1984
aI1985
aI1986
aI1990
aI1991
aI1972
aI1975
aI1976
aI1977
aI1980
aI1983
atRp6473
sS'MN0000988005'
p6474
g3
((lp6475
I1978
atRp6476
sS'MN0000655746'
p6477
g3
((lp6478
I2000
aI2002
aI2007
atRp6479
sS'MN0000785611'
p6480
g3
((lp6481
I1964
aI1965
aI1967
atRp6482
sS'MN0000165982'
p6483
g3
((lp6484
I1971
aI1972
aI1973
aI1974
atRp6485
sS'MN0000065000'
p6486
g3
((lp6487
I1985
aI1986
atRp6488
sS'MN0000109274'
p6489
g3
((lp6490
I1962
aI1966
aI1967
atRp6491
sS'MN0000744265'
p6492
g3
((lp6493
I1969
aI1970
aI1980
atRp6494
sS'MN0000188467'
p6495
g3
((lp6496
I1986
atRp6497
sS'MN0000485204'
p6498
g3
((lp6499
I2008
aI2007
atRp6500
sS'MN0000532610'
p6501
g3
((lp6502
I2009
aI2006
atRp6503
sS'MN0000337119'
p6504
g3
((lp6505
I1984
aI1985
aI1986
aI1988
aI1989
aI1990
aI1991
aI1993
aI1994
aI1996
aI1997
aI2003
aI1981
aI1982
aI1983
atRp6506
sS'MN0000176358'
p6507
g3
((lp6508
I1997
atRp6509
sS'MN0000262445'
p6510
g3
((lp6511
I1990
atRp6512
sS'MN0000295756'
p6513
g3
((lp6514
I1985
aI1969
aI1970
aI1972
aI1976
aI1977
aI1979
aI1981
aI1982
atRp6515
sS'MN0000178799'
p6516
g3
((lp6517
I2008
aI2001
aI2002
aI2003
aI2005
atRp6518
sS'MN0000057124'
p6519
g3
((lp6520
I1968
aI1969
aI1970
atRp6521
sS'MN0000330453'
p6522
g3
((lp6523
I1992
aI1990
aI1991
atRp6524
sS'MN0000403794'
p6525
g3
((lp6526
I1976
atRp6527
sS'MN0001582971'
p6528
g3
((lp6529
I2008
aI2009
atRp6530
sS'MN0000771939'
p6531
g3
((lp6532
I1962
atRp6533
sS'MN0000152597'
p6534
g3
((lp6535
I2000
atRp6536
sS'MN0000739702'
p6537
g3
((lp6538
I1987
atRp6539
sS'MN0000086065'
p6540
g3
((lp6541
I1992
aI1993
aI1994
aI2006
aI1998
atRp6542
sS'MN0000883658'
p6543
g3
((lp6544
I1971
aI1973
atRp6545
sS'MN0000576718'
p6546
g3
((lp6547
I1992
aI1994
aI1995
aI1996
aI1991
atRp6548
sS'MN0000296762'
p6549
g3
((lp6550
I2004
atRp6551
sS'MN0000403151'
p6552
g3
((lp6553
I1966
atRp6554
sS'MN0000110104'
p6555
g3
((lp6556
I1971
atRp6557
sS'MN0000082013'
p6558
g3
((lp6559
I1961
aI1962
aI1963
aI1964
aI1965
aI1966
aI1967
aI1968
aI1969
aI1970
aI1971
aI1974
aI1975
atRp6560
sS'MN0000486645'
p6561
g3
((lp6562
I1983
atRp6563
sS'MN0002596252'
p6564
g3
((lp6565
I1985
atRp6566
sS'MN0000303050'
p6567
g3
((lp6568
I1970
aI1963
aI1964
aI1971
atRp6569
sS'MN0000188206'
p6570
g3
((lp6571
I2003
atRp6572
sS'MN0000277572'
p6573
g3
((lp6574
I2009
atRp6575
sS'MN0000998473'
p6576
g3
((lp6577
I2008
aI2009
atRp6578
sS'MN0000747163'
p6579
g3
((lp6580
I2003
atRp6581
sS'MN0000174198'
p6582
g3
((lp6583
I1998
aI1999
atRp6584
sS'MN0000631579'
p6585
g3
((lp6586
I1980
atRp6587
sS'MN0000631576'
p6588
g3
((lp6589
I1981
atRp6590
sS'MN0000015318'
p6591
g3
((lp6592
I2001
aI2002
atRp6593
sS'MN0000953589'
p6594
g3
((lp6595
I1979
atRp6596
sS'MN0000961868'
p6597
g3
((lp6598
I1993
atRp6599
sS'MN0000778656'
p6600
g3
((lp6601
I1972
aI1973
atRp6602
sS'MN0000766583'
p6603
g3
((lp6604
I1997
atRp6605
sS'MN0000693229'
p6606
g3
((lp6607
I1996
aI1997
atRp6608
sS'MN0000784814'
p6609
g3
((lp6610
I1993
aI1994
aI1996
atRp6611
sS'MN0000732652'
p6612
g3
((lp6613
I2008
aI2006
aI2007
atRp6614
sS'MN0000837946'
p6615
g3
((lp6616
I1984
aI1981
aI1982
aI1983
atRp6617
sS'MN0000689965'
p6618
g3
((lp6619
I1971
atRp6620
sS'MN0000222720'
p6621
g3
((lp6622
I1960
aI1961
atRp6623
sS'MN0000856785'
p6624
g3
((lp6625
I1994
aI1991
atRp6626
sS'MN0000101072'
p6627
g3
((lp6628
I2008
aI2009
aI2006
aI2007
atRp6629
sS'MN0000763492'
p6630
g3
((lp6631
I1970
aI1971
atRp6632
sS'MN0000866767'
p6633
g3
((lp6634
I1979
atRp6635
sS'MN0000193601'
p6636
g3
((lp6637
I1994
aI1997
atRp6638
sS'MN0000671953'
p6639
g3
((lp6640
I1985
aI1986
aI1987
aI1988
aI1990
aI1991
aI1993
aI1976
aI1977
aI1978
aI1979
aI1980
aI1982
aI1983
atRp6641
sS'MN0000057827'
p6642
g3
((lp6643
I1970
aI1971
aI1972
aI1974
aI1975
atRp6644
sS'MN0000419334'
p6645
g3
((lp6646
I1966
atRp6647
sS'MN0000107090'
p6648
g3
((lp6649
I1999
aI1987
aI1988
aI1989
aI1990
aI1991
aI1998
aI1996
aI1965
aI1966
aI1967
aI2002
aI1971
aI1972
aI1973
aI1974
aI1979
atRp6650
sS'MN0000516282'
p6651
g3
((lp6652
I1980
aI1982
atRp6653
sS'MN0000061480'
p6654
g3
((lp6655
I1965
aI1969
aI1970
aI1971
aI1972
aI1973
aI1974
atRp6656
sS'MN0000238322'
p6657
g3
((lp6658
I1993
aI1989
atRp6659
sS'MN0000241813'
p6660
g3
((lp6661
I1960
aI1961
atRp6662
sS'MN0000926237'
p6663
g3
((lp6664
I2000
aI1997
aI1998
atRp6665
sS'MN0000001113'
p6666
g3
((lp6667
I2003
atRp6668
sS'MN0000193025'
p6669
g3
((lp6670
I1987
atRp6671
sS'MN0000128950'
p6672
g3
((lp6673
I1964
atRp6674
sS'MN0000293448'
p6675
g3
((lp6676
I1980
atRp6677
sS'MN0000161920'
p6678
g3
((lp6679
I1977
aI1986
atRp6680
sS'MN0000334644'
p6681
g3
((lp6682
I1962
aI1970
aI1971
aI1972
aI1973
aI1974
aI1982
atRp6683
sS'MN0000962323'
p6684
g3
((lp6685
I2003
atRp6686
sS'MN0000533551'
p6687
g3
((lp6688
I2008
aI2006
aI2007
atRp6689
sS'MN0000019073'
p6690
g3
((lp6691
I1981
atRp6692
sS'MN0000219655'
p6693
g3
((lp6694
I1985
aI1976
aI1977
aI1978
aI1979
aI1980
aI1981
aI1982
aI1983
atRp6695
sS'MN0000393031'
p6696
g3
((lp6697
I1968
aI1969
aI1967
atRp6698
sS'MN0000172154'
p6699
g3
((lp6700
I1984
atRp6701
sS'MN0000394931'
p6702
g3
((lp6703
I1980
aI1981
aI1982
atRp6704
sS'MN0000282752'
p6705
g3
((lp6706
I1980
atRp6707
sS'MN0000631774'
p6708
g3
((lp6709
I1968
aI1969
aI1965
aI1966
aI1967
atRp6710
sS'MN0000357406'
p6711
g3
((lp6712
I2002
atRp6713
sS'MN0000858375'
p6714
g3
((lp6715
I1994
aI1999
atRp6716
sS'MN0000082955'
p6717
g3
((lp6718
I1966
aI1967
aI1968
aI1969
aI1970
aI1973
atRp6719
sS'MN0001018022'
p6720
g3
((lp6721
I2008
atRp6722
sS'MN0000079960'
p6723
g3
((lp6724
I1986
aI1979
aI1994
aI1987
atRp6725
sS'MN0000742085'
p6726
g3
((lp6727
I1990
atRp6728
sS'MN0000560079'
p6729
g3
((lp6730
I1972
atRp6731
sS'MN0000936206'
p6732
g3
((lp6733
I1984
aI1998
aI1999
aI1981
aI1982
aI1983
atRp6734
sS'MN0000577261'
p6735
g3
((lp6736
I1961
atRp6737
sS'MN0000501023'
p6738
g3
((lp6739
I1988
atRp6740
sS'MN0000894335'
p6741
g3
((lp6742
I1960
aI1961
aI1962
aI1966
aI1967
atRp6743
sS'MN0000817315'
p6744
g3
((lp6745
I1984
aI1985
aI1996
aI2006
aI1992
atRp6746
sS'MN0000927736'
p6747
g3
((lp6748
I1972
atRp6749
sS'MN0000592954'
p6750
g3
((lp6751
I1994
aI1995
aI1998
aI1999
aI2000
aI2002
aI2003
aI2004
aI2006
aI2007
aI2009
atRp6752
sS'MN0000295545'
p6753
g3
((lp6754
I1971
atRp6755
sS'MN0000245250'
p6756
g3
((lp6757
I2005
aI2006
aI2007
atRp6758
sS'MN0000195874'
p6759
g3
((lp6760
I1984
aI1983
atRp6761
sS'MN0000296487'
p6762
g3
((lp6763
I1984
aI1985
aI1980
aI1973
aI1975
atRp6764
sS'MN0000018419'
p6765
g3
((lp6766
I1968
atRp6767
sS'MN0000329232'
p6768
g3
((lp6769
I2002
atRp6770
sS'MN0000130407'
p6771
g3
((lp6772
I1993
atRp6773
sS'MN0000417598'
p6774
g3
((lp6775
I1964
atRp6776
sS'MN0000032071'
p6777
g3
((lp6778
I1975
atRp6779
sS'MN0000923745'
p6780
g3
((lp6781
I2001
atRp6782
sS'MN0000062729'
p6783
g3
((lp6784
I1969
aI1970
aI1971
aI1972
atRp6785
sS'MN0000048300'
p6786
g3
((lp6787
I1984
aI1967
aI1971
aI1977
aI1979
aI1980
atRp6788
sS'MN0000028053'
p6789
g3
((lp6790
I1963
atRp6791
sS'MN0000637022'
p6792
g3
((lp6793
I1966
atRp6794
sS'MN0000015262'
p6795
g3
((lp6796
I2003
atRp6797
sS'MN0000212918'
p6798
g3
((lp6799
I1997
atRp6800
sS'MN0003304178'
p6801
g3
((lp6802
I2005
atRp6803
sS'MN0001759424'
p6804
g3
((lp6805
I1971
atRp6806
sS'MN0000286184'
p6807
g3
((lp6808
I1963
atRp6809
sS'MN0000151979'
p6810
g3
((lp6811
I1976
aI1977
aI1975
atRp6812
sS'MN0000778344'
p6813
g3
((lp6814
I1961
atRp6815
sS'MN0000375685'
p6816
g3
((lp6817
I1972
atRp6818
sS'MN0000308871'
p6819
g3
((lp6820
I1964
aI1965
aI1966
atRp6821
sS'MN0000829125'
p6822
g3
((lp6823
I1977
atRp6824
sS'MN0000139418'
p6825
g3
((lp6826
I2004
atRp6827
sS'MN0000542976'
p6828
g3
((lp6829
I1976
aI1969
aI1970
aI1971
aI1972
atRp6830
sS'MN0000509367'
p6831
g3
((lp6832
I1961
aI1963
aI1964
aI1965
aI1966
aI1967
aI1968
aI1970
aI1972
aI1974
aI1975
atRp6833
sS'MN0001545319'
p6834
g3
((lp6835
I2009
atRp6836
sS'MN0000116984'
p6837
g3
((lp6838
I1960
aI1961
aI1962
aI1963
aI1964
atRp6839
sS'MN0000249973'
p6840
g3
((lp6841
I1980
aI1981
atRp6842
sS'MN0000227352'
p6843
g3
((lp6844
I1968
atRp6845
sS'MN0000069645'
p6846
g3
((lp6847
I1960
aI1961
aI1963
aI1964
aI1967
aI1968
aI1969
atRp6848
sS'MN0000926428'
p6849
g3
((lp6850
I1984
aI1983
atRp6851
sS'MN0000798801'
p6852
g3
((lp6853
I1966
atRp6854
sS'MN0000226869'
p6855
g3
((lp6856
I1975
atRp6857
sS'MN0000383526'
p6858
g3
((lp6859
I2008
atRp6860
sS'MN0000569374'
p6861
g3
((lp6862
I1974
atRp6863
sS'MN0000661211'
p6864
g3
((lp6865
I1991
atRp6866
sS'MN0000664378'
p6867
g3
((lp6868
I1961
aI1962
aI1967
aI1968
aI1969
aI1970
aI1972
aI1973
aI1974
aI1975
aI1976
aI1977
aI1978
aI1980
aI1981
atRp6869
sS'MN0000039300'
p6870
g3
((lp6871
I1971
atRp6872
sS'MN0000199090'
p6873
g3
((lp6874
I1978
aI1971
atRp6875
sS'MN0000422405'
p6876
g3
((lp6877
I1989
atRp6878
sS'MN0000023168'
p6879
g3
((lp6880
I1962
aI1963
atRp6881
sS'MN0000825087'
p6882
g3
((lp6883
I1989
atRp6884
sS'MN0000338566'
p6885
g3
((lp6886
I1988
atRp6887
sS'MN0000933898'
p6888
g3
((lp6889
I2002
aI2003
aI2004
atRp6890
sS'MN0000163264'
p6891
g3
((lp6892
I2005
atRp6893
sS'MN0000419603'
p6894
g3
((lp6895
I1965
atRp6896
sS'MN0000492037'
p6897
g3
((lp6898
I1993
atRp6899
sS'MN0000585210'
p6900
g3
((lp6901
I1982
atRp6902
sS'MN0000100854'
p6903
g3
((lp6904
I1965
atRp6905
sS'MN0000572499'
p6906
g3
((lp6907
I1964
atRp6908
sS'MN0000086729'
p6909
g3
((lp6910
I1963
atRp6911
sS'MN0001036613'
p6912
g3
((lp6913
I2009
atRp6914
sS'MN0000448207'
p6915
g3
((lp6916
I1996
atRp6917
sS'MN0000871656'
p6918
g3
((lp6919
I2004
atRp6920
sS'MN0000035076'
p6921
g3
((lp6922
I1989
aI1990
atRp6923
sS'MN0000647518'
p6924
g3
((lp6925
I1973
atRp6926
sS'MN0000431439'
p6927
g3
((lp6928
I1992
atRp6929
sS'MN0000006232'
p6930
g3
((lp6931
I1996
atRp6932
sS'MN0000850161'
p6933
g3
((lp6934
I1960
atRp6935
sS'MN0000827760'
p6936
g3
((lp6937
I1985
atRp6938
sS'MN0000029650'
p6939
g3
((lp6940
I1983
atRp6941
sS'MN0000922728'
p6942
g3
((lp6943
I1974
aI1975
aI1976
aI1977
aI1978
aI1979
aI1980
aI1981
aI1982
atRp6944
sS'MN0000208784'
p6945
g3
((lp6946
I1984
atRp6947
sS'MN0000237205'
p6948
g3
((lp6949
I1985
aI1986
aI1987
aI1989
aI1990
aI1991
aI1992
aI1994
aI1995
aI1996
aI1998
aI1999
aI2000
aI2001
aI2003
aI2005
aI2006
aI2008
aI2009
atRp6950
sS'MN0000154297'
p6951
g3
((lp6952
I2005
atRp6953
sS'MN0000200791'
p6954
g3
((lp6955
I1976
aI1970
aI1979
aI1980
aI1975
atRp6956
sS'MN0000894465'
p6957
g3
((lp6958
I1964
aI1965
aI1966
aI1967
aI1968
aI1969
aI1971
aI1972
aI1973
aI1974
aI1975
aI1976
aI1978
aI1980
aI1981
aI1982
aI1983
aI1984
aI1986
aI1989
aI1990
aI1991
aI1994
aI1998
aI2003
atRp6959
sS'MN0000184199'
p6960
g3
((lp6961
I2002
aI2004
aI2007
atRp6962
sS'MN0000294085'
p6963
g3
((lp6964
I1980
atRp6965
sS'MN0000456381'
p6966
g3
((lp6967
I1995
atRp6968
sS'MN0000085095'
p6969
g3
((lp6970
I1962
aI1965
atRp6971
sS'MN0000664770'
p6972
g3
((lp6973
I2001
atRp6974
sS'MN0000291724'
p6975
g3
((lp6976
I1966
aI1967
atRp6977
sS'MN0000200882'
p6978
g3
((lp6979
I1961
aI1962
aI1963
aI1964
aI1965
aI1966
aI1968
atRp6980
sS'MN0001417061'
p6981
g3
((lp6982
I1982
atRp6983
sS'MN0000094222'
p6984
g3
((lp6985
I2002
atRp6986
sS'MN0000690134'
p6987
g3
((lp6988
I1975
atRp6989
sS'MN0000071373'
p6990
g3
((lp6991
I2000
aI2001
aI2002
atRp6992
sS'MN0000844707'
p6993
g3
((lp6994
I1963
atRp6995
sS'MN0000989528'
p6996
g3
((lp6997
I2009
atRp6998
sS'MN0000128440'
p6999
g3
((lp7000
I1984
aI1985
aI1986
aI1987
aI1988
aI1989
aI1993
aI2004
aI1982
aI1983
atRp7001
sS'MN0000242359'
p7002
g3
((lp7003
I1967
atRp7004
sS'MN0000128099'
p7005
g3
((lp7006
I1986
aI1960
aI1961
aI1962
aI1963
aI1964
aI1965
aI1966
aI1967
aI1968
aI1969
aI1970
aI1971
aI1972
aI1973
aI1974
aI1975
aI1976
aI1977
atRp7007
sS'MN0000103162'
p7008
g3
((lp7009
I1963
aI1965
aI1966
atRp7010
sS'MN0000085410'
p7011
g3
((lp7012
I1969
aI1971
aI1965
aI1966
atRp7013
sS'MN0000185584'
p7014
g3
((lp7015
I1960
aI1961
aI1962
aI1963
aI1964
aI1965
aI1966
aI1981
atRp7016
sS'MN0000619868'
p7017
g3
((lp7018
I1961
atRp7019
sS'MN0000762097'
p7020
g3
((lp7021
I2006
atRp7022
sS'MN0000674749'
p7023
g3
((lp7024
I1985
aI1975
aI1980
aI1981
aI1982
aI1983
atRp7025
sS'MN0000581149'
p7026
g3
((lp7027
I2000
atRp7028
sS'MN0000173647'
p7029
g3
((lp7030
I1976
aI1977
aI1978
aI1979
aI1980
aI1981
aI1983
atRp7031
sS'MN0000472102'
p7032
g3
((lp7033
I2008
aI2009
atRp7034
sS'MN0000572578'
p7035
g3
((lp7036
I1985
aI1986
aI1989
atRp7037
sS'MN0000074857'
p7038
g3
((lp7039
I1964
atRp7040
sS'MN0000171637'
p7041
g3
((lp7042
I1986
aI1960
aI1961
aI1962
aI1963
aI1964
atRp7043
sS'MN0000277764'
p7044
g3
((lp7045
I2009
aI2003
aI2005
aI2006
aI2007
atRp7046
sS'MN0000556320'
p7047
g3
((lp7048
I1965
atRp7049
sS'MN0000559405'
p7050
g3
((lp7051
I2004
aI2005
aI2007
atRp7052
sS'MN0000749530'
p7053
g3
((lp7054
I1995
atRp7055
sS'MN0000252315'
p7056
g3
((lp7057
I1996
aI1997
atRp7058
sS'MN0000785817'
p7059
g3
((lp7060
I1960
atRp7061
sS'MN0000933781'
p7062
g3
((lp7063
I1972
aI1973
aI1974
aI1975
atRp7064
sS'MN0000007979'
p7065
g3
((lp7066
I1967
atRp7067
sS'MN0000235792'
p7068
g3
((lp7069
I2000
atRp7070
sS'MN0000034181'
p7071
g3
((lp7072
I1994
atRp7073
sS'MN0000182900'
p7074
g3
((lp7075
I1987
aI1988
aI1990
aI1998
aI2003
aI1975
aI1976
aI1977
aI1979
aI1980
aI1982
atRp7076
sS'MN0000807041'
p7077
g3
((lp7078
I1981
atRp7079
sS'MN0000475586'
p7080
g3
((lp7081
I2000
atRp7082
sS'MN0000223746'
p7083
g3
((lp7084
I1977
atRp7085
sS'MN0000924176'
p7086
g3
((lp7087
I2002
atRp7088
sS'MN0000646260'
p7089
g3
((lp7090
I1976
aI1974
aI1975
atRp7091
sS'MN0000815537'
p7092
g3
((lp7093
I1992
aI1995
aI1990
atRp7094
sS'MN0000296802'
p7095
g3
((lp7096
I1997
atRp7097
sS'MN0003445040'
p7098
g3
((lp7099
I1960
atRp7100
sS'MN0000065396'
p7101
g3
((lp7102
I1970
aI1964
aI1965
atRp7103
sS'MN0000065397'
p7104
g3
((lp7105
I1968
aI1969
aI1970
aI1967
atRp7106
sS'MN0000686897'
p7107
g3
((lp7108
I1970
aI1971
aI1972
aI1974
aI1975
aI1976
aI1977
aI1978
aI1979
aI1980
aI1982
aI1983
atRp7109
sS'MN0000569600'
p7110
g3
((lp7111
I2006
atRp7112
sS'MN0000233228'
p7113
g3
((lp7114
I1966
aI1967
aI1968
aI1969
aI1970
aI1971
aI1976
aI1977
aI1978
atRp7115
sS'MN0000809066'
p7116
g3
((lp7117
I1963
aI1964
aI1965
atRp7118
sS'MN0000593772'
p7119
g3
((lp7120
I1984
aI1979
aI1980
aI1981
aI1982
atRp7121
sS'MN0000620386'
p7122
g3
((lp7123
I1966
aI1967
aI1968
aI1969
aI1970
aI1971
aI1972
aI1973
aI1980
aI1981
atRp7124
sS'MN0000045313'
p7125
g3
((lp7126
I1986
aI1987
aI1988
aI1989
aI1990
aI1981
aI1982
atRp7127
sS'MN0000384883'
p7128
g3
((lp7129
I1971
atRp7130
sS'MN0000280061'
p7131
g3
((lp7132
I1994
atRp7133
sS'MN0000139604'
p7134
g3
((lp7135
I1980
atRp7136
sS'MN0000830653'
p7137
g3
((lp7138
I1972
atRp7139
sS'MN0000803448'
p7140
g3
((lp7141
I1968
aI1967
atRp7142
sS'MN0000168958'
p7143
g3
((lp7144
I1968
aI1969
aI1970
aI1966
aI1967
atRp7145
sS'MN0001162681'
p7146
g3
((lp7147
I1992
aI1994
aI1990
aI1991
atRp7148
sS'MN0000227675'
p7149
g3
((lp7150
I1976
aI1964
aI1965
aI1966
aI1967
atRp7151
sS'MN0000677242'
p7152
g3
((lp7153
I1972
atRp7154
sS'MN0000677241'
p7155
g3
((lp7156
I2005
aI2006
atRp7157
sS'MN0000359494'
p7158
g3
((lp7159
I1967
atRp7160
sS'MN0000253408'
p7161
g3
((lp7162
I1988
aI1989
atRp7163
sS'MN0000821571'
p7164
g3
((lp7165
I1987
aI1991
aI1973
aI1974
aI1975
aI1976
aI1977
aI1979
aI1980
aI1981
atRp7166
sS'MN0000752673'
p7167
g3
((lp7168
I1979
aI1980
atRp7169
sS'MN0000216978'
p7170
g3
((lp7171
I1995
atRp7172
sS'MN0000238686'
p7173
g3
((lp7174
I2008
aI2006
aI2007
atRp7175
sS'MN0000277059'
p7176
g3
((lp7177
I2003
atRp7178
sS'MN0000266160'
p7179
g3
((lp7180
I1964
atRp7181
sS'MN0001177924'
p7182
g3
((lp7183
I1977
atRp7184
sS'MN0000303403'
p7185
g3
((lp7186
I1996
atRp7187
sS'MN0001260666'
p7188
g3
((lp7189
I1960
atRp7190
sS'MN0000053606'
p7191
g3
((lp7192
I1973
aI1974
aI1975
atRp7193
sS'MN0000021050'
p7194
g3
((lp7195
I1987
atRp7196
sS'MN0000859589'
p7197
g3
((lp7198
I2008
atRp7199
sS'MN0000020050'
p7200
g3
((lp7201
I1970
aI1971
aI1972
atRp7202
sS'MN0000079356'
p7203
g3
((lp7204
I1969
atRp7205
sS'MN0000079654'
p7206
g3
((lp7207
I1962
atRp7208
sS'MN0000517074'
p7209
g3
((lp7210
I1993
aI1994
aI1997
aI1998
aI1999
aI2000
aI2001
atRp7211
sS'MN0000883318'
p7212
g3
((lp7213
I1991
aI1992
aI1993
aI1999
aI2000
aI2002
aI2006
atRp7214
sS'MN0000861351'
p7215
g3
((lp7216
I2000
aI2001
aI2002
aI2003
aI2004
aI2005
aI2007
aI2008
atRp7217
sS'MN0000322092'
p7218
g3
((lp7219
I1992
aI1993
aI1988
atRp7220
sS'MN0000527463'
p7221
g3
((lp7222
I1961
atRp7223
sS'MN0000553483'
p7224
g3
((lp7225
I1991
atRp7226
sS'MN0000132449'
p7227
g3
((lp7228
I1976
aI1977
aI1978
aI1979
aI1980
aI1981
aI1983
atRp7229
sS'MN0000476824'
p7230
g3
((lp7231
I1962
atRp7232
sS'MN0000794306'
p7233
g3
((lp7234
I1991
atRp7235
sS'MN0000382487'
p7236
g3
((lp7237
I1989
atRp7238
sS'MN0000322765'
p7239
g3
((lp7240
I1985
aI1986
atRp7241
sS'MN0000498987'
p7242
g3
((lp7243
I1993
aI1994
aI1996
aI1997
aI1998
atRp7244
sS'MN0000546678'
p7245
g3
((lp7246
I1993
aI1991
atRp7247
sS'MN0000060476'
p7248
g3
((lp7249
I1969
aI1970
aI1971
atRp7250
sS'MN0000752789'
p7251
g3
((lp7252
I1994
atRp7253
sS'MN0000398865'
p7254
g3
((lp7255
I2006
atRp7256
sS'MN0001544219'
p7257
g3
((lp7258
I1975
atRp7259
sS'MN0000283015'
p7260
g3
((lp7261
I1998
aI1999
atRp7262
sS'MN0000039480'
p7263
g3
((lp7264
I1995
aI1988
aI1989
aI1990
aI1991
atRp7265
sS'MN0000243474'
p7266
g3
((lp7267
I1984
aI1985
aI1986
aI1987
aI1992
aI1996
aI2001
aI2004
aI2006
aI1982
aI1983
atRp7268
sS'MN0000807869'
p7269
g3
((lp7270
I2002
aI2003
aI2004
aI2005
aI2006
aI2007
atRp7271
sS'MN0000671588'
p7272
g3
((lp7273
I1990
atRp7274
sS'MN0000194743'
p7275
g3
((lp7276
I1980
atRp7277
sS'MN0000742899'
p7278
g3
((lp7279
I1962
aI1964
atRp7280
sS'MN0000304401'
p7281
g3
((lp7282
I1972
aI1967
atRp7283
sS'MN0000232679'
p7284
g3
((lp7285
I1971
atRp7286
sS'MN0000789064'
p7287
g3
((lp7288
I1992
aI1993
aI1991
atRp7289
sS'MN0000321321'
p7290
g3
((lp7291
I1964
aI1967
aI1968
aI1969
aI1970
aI1981
atRp7292
sS'MN0000959876'
p7293
g3
((lp7294
I1993
aI1994
atRp7295
sS'MN0000374784'
p7296
g3
((lp7297
I1960
atRp7298
sS'MN0000078758'
p7299
g3
((lp7300
I2001
atRp7301
sS'MN0000763930'
p7302
g3
((lp7303
I1960
aI1961
aI1962
aI1964
atRp7304
sS'MN0000381689'
p7305
g3
((lp7306
I2005
aI2006
atRp7307
sS'MN0000135059'
p7308
g3
((lp7309
I1968
aI1969
aI1967
atRp7310
sS'MN0000022574'
p7311
g3
((lp7312
I1968
atRp7313
sS'MN0000105129'
p7314
g3
((lp7315
I1994
aI1995
aI1997
aI1999
atRp7316
sS'MN0000784732'
p7317
g3
((lp7318
I1984
aI1979
aI1982
aI1983
atRp7319
sS'MN0001596522'
p7320
g3
((lp7321
I2008
atRp7322
sS'MN0000357419'
p7323
g3
((lp7324
I1961
atRp7325
sS'MN0000942580'
p7326
g3
((lp7327
I1977
aI1978
atRp7328
sS'MN0000215058'
p7329
g3
((lp7330
I1996
atRp7331
sS'MN0000747177'
p7332
g3
((lp7333
I1985
atRp7334
sS'MN0000002923'
p7335
g3
((lp7336
I1987
atRp7337
sS'MN0000081968'
p7338
g3
((lp7339
I1960
atRp7340
sS'MN0000077732'
p7341
g3
((lp7342
I1960
aI1961
aI1962
aI1963
aI1964
aI1965
aI1966
aI1967
aI1968
aI1969
atRp7343
sS'MN0000803242'
p7344
g3
((lp7345
I1972
atRp7346
sS'MN0000199995'
p7347
g3
((lp7348
I1984
aI1986
aI1987
aI1991
aI1992
aI1977
aI1978
aI1980
aI1981
aI1982
aI1983
atRp7349
sS'MN0000329313'
p7350
g3
((lp7351
I1968
aI1969
atRp7352
sS'MN0000121236'
p7353
g3
((lp7354
I2007
atRp7355
sS'MN0000106916'
p7356
g3
((lp7357
I2000
aI2001
aI2002
aI2003
aI2005
aI2008
atRp7358
sS'MN0000657041'
p7359
g3
((lp7360
I1984
aI1985
aI1988
aI1982
aI1991
atRp7361
sS'MN0000135378'
p7362
g3
((lp7363
I1960
atRp7364
sS'MN0000978425'
p7365
g3
((lp7366
I1977
atRp7367
sS'MN0000220966'
p7368
g3
((lp7369
I1965
atRp7370
sS'MN0000747757'
p7371
g3
((lp7372
I1980
atRp7373
sS'MN0000224257'
p7374
g3
((lp7375
I1997
aI1998
aI1999
aI2000
aI2001
aI2003
aI2004
aI2006
aI2007
aI2009
atRp7376
sS'MN0001391253'
p7377
g3
((lp7378
I2009
atRp7379
sS'MN0000801865'
p7380
g3
((lp7381
I1978
atRp7382
sS'MN0000790797'
p7383
g3
((lp7384
I2002
aI2005
atRp7385
sS'MN0000654067'
p7386
g3
((lp7387
I1964
atRp7388
sS'MN0000134729'
p7389
g3
((lp7390
I1990
atRp7391
sS'MN0000740499'
p7392
g3
((lp7393
I1995
atRp7394
sS'MN0000193320'
p7395
g3
((lp7396
I1984
aI1987
aI1988
aI1989
aI1992
aI1993
aI1995
aI1983
atRp7397
sS'MN0000895443'
p7398
g3
((lp7399
I1986
aI1995
aI1982
aI1983
atRp7400
sS'MN0000770628'
p7401
g3
((lp7402
I1960
atRp7403
sS'MN0000334740'
p7404
g3
((lp7405
I1984
aI1974
aI1977
aI1980
aI1981
aI1983
atRp7406
sS'MN0000787428'
p7407
g3
((lp7408
I2004
aI2006
atRp7409
sS'MN0000780734'
p7410
g3
((lp7411
I2000
atRp7412
sS'MN0000509156'
p7413
g3
((lp7414
I2005
atRp7415
sS'MN0000232461'
p7416
g3
((lp7417
I1994
atRp7418
sS'MN0000150962'
p7419
g3
((lp7420
I2001
aI2002
aI1999
aI2007
atRp7421
sS'MN0000929862'
p7422
g3
((lp7423
I1982
atRp7424
sS'MN0000488908'
p7425
g3
((lp7426
I2001
aI2002
aI2004
aI2006
atRp7427
sS'MN0000153526'
p7428
g3
((lp7429
I1963
aI1964
aI1968
aI1976
aI1977
aI1979
aI1980
aI1981
aI1982
aI1983
atRp7430
sS'MN0000056739'
p7431
g3
((lp7432
I1967
atRp7433
sS'MN0000839392'
p7434
g3
((lp7435
I2009
atRp7436
sS'MN0000058380'
p7437
g3
((lp7438
I1981
aI1982
atRp7439
sS'MN0000012307'
p7440
g3
((lp7441
I1992
aI1988
aI1989
aI1990
aI1991
atRp7442
sS'MN0000143394'
p7443
g3
((lp7444
I1974
aI1975
atRp7445
sS'MN0000761706'
p7446
g3
((lp7447
I1960
aI1961
aI1962
aI1963
atRp7448
sS'MN0000852007'
p7449
g3
((lp7450
I1989
aI1960
aI1961
aI1962
aI1963
aI1964
aI1965
aI1966
aI1967
aI1980
atRp7451
sS'MN0000180228'
p7452
g3
((lp7453
I1960
aI1961
aI1962
aI1963
aI1964
aI1965
aI1966
aI1967
aI1968
aI1969
aI1970
aI1971
aI1972
aI1973
aI1974
aI1975
aI1976
atRp7454
sS'MN0000246628'
p7455
g3
((lp7456
I1968
aI1973
aI1974
aI1965
atRp7457
sS'MN0000361393'
p7458
g3
((lp7459
I2004
aI2006
aI1978
aI1979
aI1981
aI1983
atRp7460
sS'MN0000080428'
p7461
g3
((lp7462
I1961
aI1962
aI1965
aI1966
aI1967
aI1968
aI1969
aI1970
aI1971
atRp7463
sS'MN0000496646'
p7464
g3
((lp7465
I1972
atRp7466
sS'MN0000571845'
p7467
g3
((lp7468
I1966
aI1967
atRp7469
sS'MN0000002454'
p7470
g3
((lp7471
I1993
atRp7472
sS'MN0000022257'
p7473
g3
((lp7474
I1992
aI1993
aI1987
atRp7475
sS'MN0000536275'
p7476
g3
((lp7477
I1971
aI1973
aI1975
aI1976
aI1977
aI1978
atRp7478
sS'MN0000234844'
p7479
g3
((lp7480
I1987
atRp7481
sS'MN0000317108'
p7482
g3
((lp7483
I1984
aI1985
aI1986
aI1982
aI1983
atRp7484
sS'MN0000012877'
p7485
g3
((lp7486
I1973
aI1974
atRp7487
sS'MN0000297990'
p7488
g3
((lp7489
I1970
aI1971
atRp7490
sS'MN0000049271'
p7491
g3
((lp7492
I1972
aI1975
atRp7493
sS'MN0000352575'
p7494
g3
((lp7495
I1993
atRp7496
sS'MN0000414700'
p7497
g3
((lp7498
I2005
aI2006
aI2007
atRp7499
sS'MN0000632233'
p7500
g3
((lp7501
I2009
aI2006
aI2007
atRp7502
sS'MN0000574033'
p7503
g3
((lp7504
I1984
aI1983
atRp7505
sS'MN0003303393'
p7506
g3
((lp7507
I1965
aI1966
atRp7508
sS'MN0001275843'
p7509
g3
((lp7510
I1961
aI1966
atRp7511
sS'MN0000232480'
p7512
g3
((lp7513
I1977
aI1979
aI1975
atRp7514
sS'MN0000165076'
p7515
g3
((lp7516
I1986
aI1987
atRp7517
sS'MN0000165077'
p7518
g3
((lp7519
I2003
atRp7520
sS'MN0000458423'
p7521
g3
((lp7522
I1983
atRp7523
sS'MN0000314346'
p7524
g3
((lp7525
I1965
atRp7526
sS'MN0000184502'
p7527
g3
((lp7528
I1960
aI1963
atRp7529
sS'MN0000485135'
p7530
g3
((lp7531
I2004
atRp7532
sS'MN0000077963'
p7533
g3
((lp7534
I1991
atRp7535
sS'MN0000807361'
p7536
g3
((lp7537
I2003
aI1999
atRp7538
sS'MN0000757136'
p7539
g3
((lp7540
I1996
atRp7541
sS'MN0000655497'
p7542
g3
((lp7543
I1997
atRp7544
sS'MN0000066370'
p7545
g3
((lp7546
I1961
atRp7547
sS'MN0000248920'
p7548
g3
((lp7549
I2001
aI2002
aI2004
aI2005
atRp7550
sS'MN0000166505'
p7551
g3
((lp7552
I2007
atRp7553
sS'MN0000842802'
p7554
g3
((lp7555
I1992
aI1977
aI1986
aI1980
aI1982
atRp7556
sS'MN0000774807'
p7557
g3
((lp7558
I1970
atRp7559
sS'MN0000610706'
p7560
g3
((lp7561
I1976
aI1977
aI1971
aI1972
aI1973
atRp7562
sS'MN0000294891'
p7563
g3
((lp7564
I1987
aI1990
aI1991
aI1992
aI1993
aI1994
atRp7565
sS'MN0000943936'
p7566
g3
((lp7567
I1969
aI1970
aI1971
atRp7568
sS'MN0000059819'
p7569
g3
((lp7570
I1968
aI1971
aI1972
aI1973
aI1974
aI1975
atRp7571
sS'MN0000830538'
p7572
g3
((lp7573
I1985
aI1988
aI1990
aI1982
aI1983
atRp7574
sS'MN0000955484'
p7575
g3
((lp7576
I1972
atRp7577
sS'MN0000468938'
p7578
g3
((lp7579
I2005
atRp7580
sS'MN0000521674'
p7581
g3
((lp7582
I1975
atRp7583
sS'MN0002295785'
p7584
g3
((lp7585
I2008
atRp7586
sS'MN0000795053'
p7587
g3
((lp7588
I2004
aI2005
aI2007
atRp7589
sS'MN0000027136'
p7590
g3
((lp7591
I2002
aI2006
atRp7592
sS'MN0000178750'
p7593
g3
((lp7594
I1986
aI1983
atRp7595
sS'MN0000413524'
p7596
g3
((lp7597
I1986
aI1982
aI1983
atRp7598
sS'MN0000929043'
p7599
g3
((lp7600
I1983
atRp7601
sS'MN0000988440'
p7602
g3
((lp7603
I1970
aI1971
aI1973
aI1987
aI1975
atRp7604
sS'MN0000256974'
p7605
g3
((lp7606
I1977
aI1978
atRp7607
sS'MN0000286518'
p7608
g3
((lp7609
I1986
atRp7610
sS'MN0000502371'
p7611
g3
((lp7612
I2008
aI2003
aI2004
aI2005
aI2006
atRp7613
sS'MN0000287936'
p7614
g3
((lp7615
I1968
atRp7616
sS'MN0000800212'
p7617
g3
((lp7618
I1999
atRp7619
sS'MN0000754055'
p7620
g3
((lp7621
I1992
aI1995
aI1996
atRp7622
sS'MN0000327735'
p7623
g3
((lp7624
I1984
aI1985
aI1987
aI1988
aI1990
aI1977
aI1978
aI1981
aI1982
atRp7625
sS'MN0000403882'
p7626
g3
((lp7627
I1987
atRp7628
sS'MN0000060666'
p7629
g3
((lp7630
I1961
atRp7631
sS'MN0000038573'
p7632
g3
((lp7633
I1994
atRp7634
sS'MN0000049374'
p7635
g3
((lp7636
I1985
aI1995
aI1991
atRp7637
sS'MN0000918600'
p7638
g3
((lp7639
I1984
atRp7640
sS'MN0000294377'
p7641
g3
((lp7642
I1978
aI1979
aI1980
atRp7643
sS'MN0000376204'
p7644
g3
((lp7645
I1992
aI1993
aI1995
aI1997
aI1999
aI2000
aI2001
aI2003
aI2006
aI2007
aI2009
atRp7646
sS'MN0000038579'
p7647
g3
((lp7648
I1982
atRp7649
sS'MN0000797431'
p7650
g3
((lp7651
I1995
atRp7652
sS'MN0002217514'
p7653
g3
((lp7654
I1965
atRp7655
sS'MN0000955569'
p7656
g3
((lp7657
I1967
atRp7658
sS'MN0000217344'
p7659
g3
((lp7660
I2003
atRp7661
sS'MN0000497426'
p7662
g3
((lp7663
I1963
atRp7664
sS'MN0000141681'
p7665
g3
((lp7666
I1985
aI1986
aI1987
atRp7667
sS'MN0000111898'
p7668
g3
((lp7669
I2006
atRp7670
sS'MN0000129551'
p7671
g3
((lp7672
I2004
atRp7673
sS'MN0000919805'
p7674
g3
((lp7675
I2002
aI2003
aI2004
aI2005
aI2006
aI2007
aI2008
aI2009
atRp7676
sS'MN0000863988'
p7677
g3
((lp7678
I1983
atRp7679
sS'MN0000834418'
p7680
g3
((lp7681
I1977
aI1978
atRp7682
sS'MN0000490738'
p7683
g3
((lp7684
I1995
aI1996
aI1997
aI1998
aI2001
aI2002
aI2003
aI2004
atRp7685
sS'MN0000163085'
p7686
g3
((lp7687
I1990
atRp7688
sS'MN0000058035'
p7689
g3
((lp7690
I1963
aI1964
aI1966
atRp7691
sS'MN0000258000'
p7692
g3
((lp7693
I2008
aI2009
aI2005
atRp7694
sS'MN0000744232'
p7695
g3
((lp7696
I1981
atRp7697
sS'MN0000026504'
p7698
g3
((lp7699
I2002
atRp7700
sS'MN0000882782'
p7701
g3
((lp7702
I1967
atRp7703
sS'MN0000050656'
p7704
g3
((lp7705
I1961
aI1962
atRp7706
sS'MN0000075194'
p7707
g3
((lp7708
I1971
atRp7709
sS'MN0000190946'
p7710
g3
((lp7711
I1964
atRp7712
sS'MN0000037893'
p7713
g3
((lp7714
I1995
atRp7715
sS'MN0000409954'
p7716
g3
((lp7717
I1963
aI1970
aI1971
aI1973
aI1967
atRp7718
sS'MN0000396676'
p7719
g3
((lp7720
I1998
aI1999
atRp7721
sS'MN0000165855'
p7722
g3
((lp7723
I1960
aI1962
atRp7724
sS'MN0000290390'
p7725
g3
((lp7726
I1968
aI1966
atRp7727
sS'MN0000489787'
p7728
g3
((lp7729
I1966
atRp7730
sS'MN0000797690'
p7731
g3
((lp7732
I1962
atRp7733
sS'MN0000057923'
p7734
g3
((lp7735
I1962
aI1963
aI1978
atRp7736
sS'MN0000075665'
p7737
g3
((lp7738
I1965
atRp7739
sS'MN0000234325'
p7740
g3
((lp7741
I1970
aI1971
aI1975
atRp7742
sS'MN0001596834'
p7743
g3
((lp7744
I2009
atRp7745
sS'MN0000677857'
p7746
g3
((lp7747
I2004
atRp7748
sS'MN0000137286'
p7749
g3
((lp7750
I1985
atRp7751
sS'MN0000250798'
p7752
g3
((lp7753
I1997
atRp7754
sS'MN0000947563'
p7755
g3
((lp7756
I1993
aI1996
atRp7757
sS'MN0000510805'
p7758
g3
((lp7759
I1993
aI2000
aI2001
aI2002
aI2003
aI2004
aI2005
aI2006
aI2007
aI2008
aI2009
atRp7760
sS'MN0000424244'
p7761
g3
((lp7762
I1992
aI1986
aI2007
aI1991
atRp7763
sS'MN0000840708'
p7764
g3
((lp7765
I1999
atRp7766
sS'MN0001264486'
p7767
g3
((lp7768
I1965
atRp7769
sS'MN0000773383'
p7770
g3
((lp7771
I1972
aI1974
aI1977
aI1978
aI1981
aI1982
atRp7772
sS'MN0000075683'
p7773
g3
((lp7774
I1966
aI1967
atRp7775
sS'MN0000359559'
p7776
g3
((lp7777
I1994
aI1995
aI1988
aI1989
aI1991
atRp7778
sS'MN0000064864'
p7779
g3
((lp7780
I1976
aI1975
atRp7781
sS'MN0000069813'
p7782
g3
((lp7783
I2003
aI2005
aI2006
aI2007
atRp7784
sS'MN0000196993'
p7785
g3
((lp7786
I1976
aI1977
aI1978
aI1979
atRp7787
sS'MN0000849405'
p7788
g3
((lp7789
I2003
aI2005
aI2007
atRp7790
sS'MN0000187437'
p7791
g3
((lp7792
I1986
atRp7793
sS'MN0000343930'
p7794
g3
((lp7795
I1994
atRp7796
sS'MN0000394013'
p7797
g3
((lp7798
I2008
atRp7799
sS'MN0000866417'
p7800
g3
((lp7801
I1988
aI1990
atRp7802
sS'MN0000524228'
p7803
g3
((lp7804
I1998
atRp7805
sS'MN0000956268'
p7806
g3
((lp7807
I1992
aI1990
aI1991
atRp7808
sS'MN0001007298'
p7809
g3
((lp7810
I1972
atRp7811
sS'MN0002722429'
p7812
g3
((lp7813
I1998
atRp7814
sS'MN0000775323'
p7815
g3
((lp7816
I1995
aI1990
atRp7817
sS'MN0000145086'
p7818
g3
((lp7819
I1969
atRp7820
sS'MN0000216364'
p7821
g3
((lp7822
I2004
atRp7823
sS'MN0000123360'
p7824
g3
((lp7825
I1992
atRp7826
sS'MN0000198162'
p7827
g3
((lp7828
I1963
aI1967
aI1968
aI1969
aI1970
aI1971
aI1972
aI1973
aI1974
aI1976
aI1977
atRp7829
sS'MN0000044696'
p7830
g3
((lp7831
I1996
atRp7832
sS'MN0000133980'
p7833
g3
((lp7834
I1966
aI1967
atRp7835
sS'MN0000097203'
p7836
g3
((lp7837
I1998
atRp7838
sS'MN0000281254'
p7839
g3
((lp7840
I1997
aI1999
aI2000
aI2001
aI2002
aI2003
aI2005
aI2006
atRp7841
sS'MN0000786383'
p7842
g3
((lp7843
I1993
atRp7844
sS'MN0000946769'
p7845
g3
((lp7846
I2008
aI2009
atRp7847
sS'MN0000240081'
p7848
g3
((lp7849
I1964
aI1965
atRp7850
sS'MN0000790509'
p7851
g3
((lp7852
I1984
atRp7853
sS'MN0000055128'
p7854
g3
((lp7855
I1960
aI1962
aI1967
atRp7856
sS'MN0001057446'
p7857
g3
((lp7858
I2009
atRp7859
sS'MN0000674600'
p7860
g3
((lp7861
I1979
atRp7862
sS'MN0000814220'
p7863
g3
((lp7864
I1977
aI1978
atRp7865
sS'MN0000820545'
p7866
g3
((lp7867
I1985
atRp7868
sS'MN0000097531'
p7869
g3
((lp7870
I1980
atRp7871
sS'MN0000766066'
p7872
g3
((lp7873
I1962
aI1963
aI1964
aI1965
aI1966
aI1967
aI1968
aI1969
aI1972
atRp7874
sS'MN0000307278'
p7875
g3
((lp7876
I1994
aI1995
atRp7877
sS'MN0000046784'
p7878
g3
((lp7879
I1975
aI1973
aI1967
atRp7880
sS'MN0000956869'
p7881
g3
((lp7882
I1962
aI1963
atRp7883
sS'MN0000371582'
p7884
g3
((lp7885
I2002
aI2003
atRp7886
sS'MN0000110161'
p7887
g3
((lp7888
I1984
aI1985
aI1986
aI1987
aI1988
aI1989
aI1991
aI1969
aI1970
aI1971
aI1972
aI1973
aI1974
aI1975
aI1976
aI1977
aI1978
aI1979
aI1980
aI1982
atRp7889
sS'MN0000169124'
p7890
g3
((lp7891
I1968
aI1961
atRp7892
sS'MN0000100196'
p7893
g3
((lp7894
I1991
atRp7895
sS'MN0000575139'
p7896
g3
((lp7897
I1961
atRp7898
sS'MN0000140608'
p7899
g3
((lp7900
I1996
atRp7901
sS'MN0000053739'
p7902
g3
((lp7903
I1984
aI1989
aI1990
aI1991
aI1972
aI1973
aI1974
aI1979
aI1980
aI1983
atRp7904
sS'MN0000125064'
p7905
g3
((lp7906
I1961
aI1962
atRp7907
sS'MN0000126048'
p7908
g3
((lp7909
I1986
aI1987
aI1988
atRp7910
sS'MN0000298888'
p7911
g3
((lp7912
I1973
atRp7913
sS'MN0003392839'
p7914
g3
((lp7915
I1993
atRp7916
sS'MN0000787960'
p7917
g3
((lp7918
I1993
aI1994
aI1995
aI1999
aI2000
aI2002
atRp7919
sS'MN0000097173'
p7920
g3
((lp7921
I1978
atRp7922
sS'MN0000122219'
p7923
g3
((lp7924
I2001
atRp7925
sS'MN0000359179'
p7926
g3
((lp7927
I1978
aI1980
aI1982
atRp7928
sS'MN0000930786'
p7929
g3
((lp7930
I2001
atRp7931
sS'MN0000004271'
p7932
g3
((lp7933
I1973
aI1974
aI1975
atRp7934
sS'MN0000763831'
p7935
g3
((lp7936
I1960
atRp7937
sS'MN0000607448'
p7938
g3
((lp7939
I1967
aI1970
aI1971
aI1972
aI1973
aI1974
aI1975
aI1976
aI1978
atRp7940
sS'MN0000806822'
p7941
g3
((lp7942
I1962
aI1963
atRp7943
sS'MN0000953324'
p7944
g3
((lp7945
I1974
atRp7946
sS'MN0000806829'
p7947
g3
((lp7948
I2003
atRp7949
sS'MN0000134761'
p7950
g3
((lp7951
I2009
aI2003
aI2006
atRp7952
sS'MN0002960510'
p7953
g3
((lp7954
I2000
aI2001
atRp7955
sS'MN0001929264'
p7956
g3
((lp7957
I1963
aI1964
atRp7958
sS'MN0000409670'
p7959
g3
((lp7960
I1970
aI1971
aI1972
aI1973
atRp7961
sS'MN0000782285'
p7962
g3
((lp7963
I1996
atRp7964
sS'MN0000873085'
p7965
g3
((lp7966
I1982
aI1983
atRp7967
sS'MN0000257787'
p7968
g3
((lp7969
I2005
aI2006
atRp7970
sS'MN0002529330'
p7971
g3
((lp7972
I1983
atRp7973
sS'MN0000525789'
p7974
g3
((lp7975
I1971
atRp7976
sS'MN0000303506'
p7977
g3
((lp7978
I1994
aI1995
aI1998
aI2000
aI2001
aI2002
aI2004
aI2008
aI2009
atRp7979
sS'MN0001029659'
p7980
g3
((lp7981
I2009
atRp7982
sS'MN0000898828'
p7983
g3
((lp7984
I1964
aI1965
aI1966
atRp7985
sS'MN0000132348'
p7986
g3
((lp7987
I1991
atRp7988
sS'MN0000278575'
p7989
g3
((lp7990
I1974
atRp7991
sS'MN0000768367'
p7992
g3
((lp7993
I1988
atRp7994
sS'MN0000688900'
p7995
g3
((lp7996
I2004
aI2007
atRp7997
sS'MN0000331338'
p7998
g3
((lp7999
I1968
aI1964
aI1965
aI1966
aI1967
atRp8000
sS'MN0000373560'
p8001
g3
((lp8002
I1966
atRp8003
sS'MN0000331473'
p8004
g3
((lp8005
I1981
atRp8006
sS'MN0000133528'
p8007
g3
((lp8008
I1972
atRp8009
sS'MN0000765365'
p8010
g3
((lp8011
I1960
atRp8012
sS'MN0000838875'
p8013
g3
((lp8014
I1985
atRp8015
sS'MN0000007920'
p8016
g3
((lp8017
I2009
atRp8018
sS'MN0000014931'
p8019
g3
((lp8020
I1993
atRp8021
sS'MN0000179205'
p8022
g3
((lp8023
I1975
aI1972
aI1973
aI1981
atRp8024
sS'MN0001497537'
p8025
g3
((lp8026
I2005
atRp8027
sS'MN0000192537'
p8028
g3
((lp8029
I2003
aI2004
atRp8030
sS'MN0000403542'
p8031
g3
((lp8032
I1971
atRp8033
sS'MN0000457807'
p8034
g3
((lp8035
I1970
aI1965
aI1967
atRp8036
sS'MN0000924367'
p8037
g3
((lp8038
I2008
aI2009
aI2006
aI2007
atRp8039
sS'MN0000173925'
p8040
g3
((lp8041
I1969
aI1970
aI1966
atRp8042
sS'MN0000177122'
p8043
g3
((lp8044
I1993
aI2005
atRp8045
sS'MN0000647246'
p8046
g3
((lp8047
I1988
atRp8048
sS'MN0000682096'
p8049
g3
((lp8050
I2003
atRp8051
sS'MN0000245534'
p8052
g3
((lp8053
I1973
aI1974
atRp8054
sS'MN0000018258'
p8055
g3
((lp8056
I1985
aI1980
aI1981
aI2004
atRp8057
sS'MN0000156938'
p8058
g3
((lp8059
I1993
atRp8060
sS'MN0000922398'
p8061
g3
((lp8062
I2004
atRp8063
sS'MN0000621112'
p8064
g3
((lp8065
I2000
aI2001
aI2003
aI1999
atRp8066
sS'MN0000099888'
p8067
g3
((lp8068
I1965
aI1966
atRp8069
sS'MN0000931015'
p8070
g3
((lp8071
I1992
atRp8072
sS'MN0000459183'
p8073
g3
((lp8074
I2008
atRp8075
sS'MN0000187478'
p8076
g3
((lp8077
I1985
aI1989
aI1990
aI1996
aI1970
aI1971
aI1972
aI1974
aI1976
aI1978
aI1979
aI1980
aI1981
aI1983
atRp8078
sS'MN0000205930'
p8079
g3
((lp8080
I1961
aI1962
aI1963
aI1964
aI1965
aI1966
aI1970
atRp8081
sS'MN0000793848'
p8082
g3
((lp8083
I1997
atRp8084
sS'MN0001055285'
p8085
g3
((lp8086
I2000
aI2001
aI2005
aI1997
atRp8087
sS'MN0000567862'
p8088
g3
((lp8089
I1984
aI1982
aI1983
atRp8090
sS'MN0000802875'
p8091
g3
((lp8092
I1993
aI1995
atRp8093
sS'MN0000802302'
p8094
g3
((lp8095
I1984
aI1985
aI1986
aI2000
aI1974
aI1975
aI1976
aI1977
aI1978
atRp8096
sS'MN0000831934'
p8097
g3
((lp8098
I1996
aI1997
atRp8099
sS'MN0000099246'
p8100
g3
((lp8101
I1990
atRp8102
sS'MN0000515628'
p8103
g3
((lp8104
I1971
aI1972
aI1973
aI1974
aI1975
atRp8105
sS'MN0000248392'
p8106
g3
((lp8107
I1968
aI1967
atRp8108
sS'MN0000421278'
p8109
g3
((lp8110
I1965
atRp8111
sS'MN0000019892'
p8112
g3
((lp8113
I1985
aI1986
aI1989
aI1990
aI1993
aI1983
atRp8114
sS'MN0000855194'
p8115
g3
((lp8116
I1987
aI1988
atRp8117
sS'MN0000666073'
p8118
g3
((lp8119
I2008
aI2009
aI2005
atRp8120
sS'MN0000048816'
p8121
g3
((lp8122
I1980
atRp8123
sS'MN0000197476'
p8124
g3
((lp8125
I1961
aI1962
aI1963
atRp8126
sS'MN0000174155'
p8127
g3
((lp8128
I1991
atRp8129
sS'MN0000660507'
p8130
g3
((lp8131
I1979
aI1972
atRp8132
sS'MN0000759644'
p8133
g3
((lp8134
I1963
atRp8135
sS'MN0000179191'
p8136
g3
((lp8137
I1994
atRp8138
sS'MN0000066429'
p8139
g3
((lp8140
I1962
aI1963
aI1964
aI1974
atRp8141
sS'MN0000165663'
p8142
g3
((lp8143
I1984
atRp8144
sS'MN0000996141'
p8145
g3
((lp8146
I2008
atRp8147
sS'MN0000189582'
p8148
g3
((lp8149
I2006
atRp8150
sS'MN0000551762'
p8151
g3
((lp8152
I2008
aI2009
aI2007
atRp8153
sS'MN0000043444'
p8154
g3
((lp8155
I1978
aI1979
atRp8156
sS'MN0000855529'
p8157
g3
((lp8158
I2008
atRp8159
sS'MN0000112462'
p8160
g3
((lp8161
I1968
aI1969
atRp8162
sS'MN0000289177'
p8163
g3
((lp8164
I1965
aI1966
aI1967
atRp8165
sS'MN0000918290'
p8166
g3
((lp8167
I1976
aI1985
aI1983
atRp8168
sS'MN0000893724'
p8169
g3
((lp8170
I1987
atRp8171
sS'MN0000195305'
p8172
g3
((lp8173
I1973
atRp8174
sS'MN0000084458'
p8175
g3
((lp8176
I2002
aI2005
aI2006
atRp8177
sS'MN0000002111'
p8178
g3
((lp8179
I1994
atRp8180
sS'MN0000307461'
p8181
g3
((lp8182
I1970
aI1971
aI1978
atRp8183
sS'MN0000814852'
p8184
g3
((lp8185
I1976
aI1969
atRp8186
sS'MN0000302106'
p8187
g3
((lp8188
I1992
aI1997
aI1990
aI1991
atRp8189
sS'MN0000240267'
p8190
g3
((lp8191
I1980
aI1981
atRp8192
sS'MN0000179423'
p8193
g3
((lp8194
I1975
atRp8195
sS'MN0000480108'
p8196
g3
((lp8197
I1985
aI1987
atRp8198
sS'MN0000350139'
p8199
g3
((lp8200
I2008
aI2009
aI2006
aI2007
atRp8201
sS'MN0001393658'
p8202
g3
((lp8203
I1966
atRp8204
sS'MN0000263019'
p8205
g3
((lp8206
I1965
aI1966
atRp8207
sS'MN0000203516'
p8208
g3
((lp8209
I1960
aI1961
atRp8210
sS'MN0000062412'
p8211
g3
((lp8212
I2000
aI2002
aI2003
aI2004
aI2006
aI2008
atRp8213
sS'MN0000656130'
p8214
g3
((lp8215
I2008
aI2007
atRp8216
sS'MN0000240758'
p8217
g3
((lp8218
I1969
atRp8219
sS'MN0000088180'
p8220
g3
((lp8221
I2008
aI2000
aI1999
atRp8222
sS'MN0000135032'
p8223
g3
((lp8224
I1965
atRp8225
sS'MN0000923384'
p8226
g3
((lp8227
I1984
aI1980
aI1981
aI1982
atRp8228
sS'MN0000495933'
p8229
g3
((lp8230
I1962
atRp8231
sS'MN0000335884'
p8232
g3
((lp8233
I1971
atRp8234
sS'MN0000289685'
p8235
g3
((lp8236
I1997
atRp8237
sS'MN0000371879'
p8238
g3
((lp8239
I1980
aI1981
aI1975
atRp8240
sS'MN0001589033'
p8241
g3
((lp8242
I1966
atRp8243
sS'MN0000128143'
p8244
g3
((lp8245
I2008
aI2009
aI2005
atRp8246
sS'MN0000659517'
p8247
g3
((lp8248
I1969
aI1970
aI1971
aI1972
aI1973
aI1974
aI1975
aI1976
atRp8249
sS'MN0000145557'
p8250
g3
((lp8251
I1961
atRp8252
sS'MN0000476541'
p8253
g3
((lp8254
I2007
atRp8255
sS'MN0000944084'
p8256
g3
((lp8257
I1993
aI1997
aI1998
aI1999
aI2000
aI2001
aI2002
aI2003
aI2004
aI2005
aI2006
aI2007
aI2008
aI2009
atRp8258
sS'MN0000758453'
p8259
g3
((lp8260
I1995
atRp8261
sS'MN0000839504'
p8262
g3
((lp8263
I1995
atRp8264
sS'MN0000679157'
p8265
g3
((lp8266
I1987
atRp8267
sS'MN0000240632'
p8268
g3
((lp8269
I1962
atRp8270
sS'MN0000179730'
p8271
g3
((lp8272
I1960
aI1965
aI1970
aI1973
aI1974
aI1975
aI1976
atRp8273
sS'MN0000771136'
p8274
g3
((lp8275
I1990
atRp8276
sS'MN0000400158'
p8277
g3
((lp8278
I1994
aI1996
atRp8279
sS'MN0000069534'
p8280
g3
((lp8281
I1984
aI1985
aI1986
aI1987
aI1988
aI1989
aI1992
aI1993
aI1994
aI1995
aI2000
aI2001
aI2006
aI2007
aI2009
atRp8282
sS'MN0000031008'
p8283
g3
((lp8284
I1977
aI1978
atRp8285
sS'MN0000799373'
p8286
g3
((lp8287
I1969
atRp8288
sS'MN0001201595'
p8289
g3
((lp8290
I1986
atRp8291
sS'MN0000661524'
p8292
g3
((lp8293
I1984
aI1987
aI1991
aI1999
aI1976
aI1977
aI1978
aI1979
aI1980
aI1982
aI1983
atRp8294
sS'MN0000387954'
p8295
g3
((lp8296
I1968
aI1970
atRp8297
sS'MN0000568137'
p8298
g3
((lp8299
I2005
atRp8300
sS'MN0000318085'
p8301
g3
((lp8302
I2006
atRp8303
sS'MN0000251375'
p8304
g3
((lp8305
I1971
atRp8306
sS'MN0000408946'
p8307
g3
((lp8308
I1960
atRp8309
sS'MN0000049367'
p8310
g3
((lp8311
I1976
aI1977
aI1974
atRp8312
sS'MN0000118791'
p8313
g3
((lp8314
I1996
aI1997
aI2000
aI2004
aI2005
aI2007
atRp8315
sS'MN0000767035'
p8316
g3
((lp8317
I1994
aI1995
atRp8318
sS'MN0000739975'
p8319
g3
((lp8320
I1996
atRp8321
sS'MN0000626939'
p8322
g3
((lp8323
I2006
atRp8324
sS'MN0000855531'
p8325
g3
((lp8326
I1984
aI1985
aI1964
aI1965
aI1966
aI1967
aI1970
aI1971
aI1972
aI1973
aI1974
aI1977
aI1978
aI1979
aI1980
aI1981
aI1982
atRp8327
sS'MN0000778330'
p8328
g3
((lp8329
I1991
atRp8330
sS'MN0000753985'
p8331
g3
((lp8332
I1961
atRp8333
sS'MN0000309328'
p8334
g3
((lp8335
I1963
atRp8336
sS'MN0000017929'
p8337
g3
((lp8338
I1986
aI1981
atRp8339
sS'MN0000696046'
p8340
g3
((lp8341
I1991
atRp8342
sS'MN0001523463'
p8343
g3
((lp8344
I1985
atRp8345
sS'MN0000027767'
p8346
g3
((lp8347
I1962
aI1963
aI1965
aI1966
aI1971
aI1972
atRp8348
sS'MN0000378624'
p8349
g3
((lp8350
I1989
aI1990
aI1970
aI1975
aI1978
aI1981
atRp8351
sS'MN0000051063'
p8352
g3
((lp8353
I1966
aI1967
atRp8354
sS'MN0000136585'
p8355
g3
((lp8356
I1960
atRp8357
sS'MN0000831381'
p8358
g3
((lp8359
I1976
atRp8360
sS'MN0000781932'
p8361
g3
((lp8362
I1968
atRp8363
sS'MN0000600435'
p8364
g3
((lp8365
I1997
atRp8366
sS'MN0000182817'
p8367
g3
((lp8368
I1971
atRp8369
sS'MN0000182360'
p8370
g3
((lp8371
I1973
atRp8372
sS'MN0000344609'
p8373
g3
((lp8374
I1991
atRp8375
sS'MN0000084814'
p8376
g3
((lp8377
I1984
aI1986
aI1989
aI1981
aI1982
aI1983
atRp8378
sS'MN0000837486'
p8379
g3
((lp8380
I1980
aI1983
atRp8381
sS'MN0000271967'
p8382
g3
((lp8383
I1970
atRp8384
sS'MN0000811708'
p8385
g3
((lp8386
I1998
atRp8387
sS'MN0000009437'
p8388
g3
((lp8389
I2000
aI2001
aI2004
aI2005
aI1999
atRp8390
sS'MN0000568861'
p8391
g3
((lp8392
I1968
aI1967
atRp8393
sS'MN0000869409'
p8394
g3
((lp8395
I1979
atRp8396
sS'MN0000399361'
p8397
g3
((lp8398
I2005
atRp8399
sS'MN0000011426'
p8400
g3
((lp8401
I1996
atRp8402
sS'MN0000016361'
p8403
g3
((lp8404
I1965
aI1966
atRp8405
sS'MN0000766986'
p8406
g3
((lp8407
I1962
atRp8408
sS'MN0000867307'
p8409
g3
((lp8410
I2008
aI2006
atRp8411
sS'MN0000495366'
p8412
g3
((lp8413
I1980
aI1983
atRp8414
sS'MN0000817011'
p8415
g3
((lp8416
I1988
aI1989
atRp8417
sS'MN0000570067'
p8418
g3
((lp8419
I1976
aI1977
aI1972
atRp8420
sS'MN0000146242'
p8421
g3
((lp8422
I1995
atRp8423
sS'MN0000070800'
p8424
g3
((lp8425
I1984
aI1986
aI1987
aI1982
aI1990
atRp8426
sS'MN0000376613'
p8427
g3
((lp8428
I2000
aI1999
atRp8429
sS'MN0000454068'
p8430
g3
((lp8431
I1987
atRp8432
sS'MN0000120675'
p8433
g3
((lp8434
I2000
aI2003
aI1999
atRp8435
sS'MN0000031358'
p8436
g3
((lp8437
I2002
atRp8438
sS'MN0000406657'
p8439
g3
((lp8440
I1997
aI1998
atRp8441
sS'MN0000781172'
p8442
g3
((lp8443
I1968
aI1962
aI1963
aI1964
aI1966
atRp8444
sS'MN0000569541'
p8445
g3
((lp8446
I1991
atRp8447
sS'MN0000379669'
p8448
g3
((lp8449
I1991
aI1993
aI1995
aI1997
aI1999
aI2002
atRp8450
sS'MN0000178122'
p8451
g3
((lp8452
I2002
aI1995
atRp8453
sS'MN0000201779'
p8454
g3
((lp8455
I1984
atRp8456
sS'MN0000333796'
p8457
g3
((lp8458
I1985
atRp8459
sS'MN0002289353'
p8460
g3
((lp8461
I1967
atRp8462
sS'MN0000662545'
p8463
g3
((lp8464
I2001
atRp8465
sS'MN0000126168'
p8466
g3
((lp8467
I2001
aI2004
atRp8468
sS'MN0000689606'
p8469
g3
((lp8470
I2008
aI2009
aI2006
aI2007
atRp8471
sS'MN0000169003'
p8472
g3
((lp8473
I1989
atRp8474
sS'MN0000038182'
p8475
g3
((lp8476
I1964
aI1965
aI1966
aI1967
atRp8477
sS'MN0000937672'
p8478
g3
((lp8479
I1990
atRp8480
sS'MN0000581713'
p8481
g3
((lp8482
I2006
atRp8483
sS'MN0000806877'
p8484
g3
((lp8485
I1960
aI1962
atRp8486
sS'MN0000035943'
p8487
g3
((lp8488
I1980
aI1989
aI1982
atRp8489
sS'MN0000073914'
p8490
g3
((lp8491
I1961
atRp8492
sS'MN0000524239'
p8493
g3
((lp8494
I1960
aI1961
aI1962
aI1963
aI1964
aI1965
aI1967
aI1970
atRp8495
sS'MN0000341672'
p8496
g3
((lp8497
I2000
aI2003
atRp8498
sS'MN0000933458'
p8499
g3
((lp8500
I2008
aI2005
aI2007
atRp8501
sS'MN0000251206'
p8502
g3
((lp8503
I2004
atRp8504
sS'MN0000290072'
p8505
g3
((lp8506
I1971
aI1972
aI1973
aI1974
aI1975
aI1978
aI1980
aI1982
atRp8507
sS'MN0000861757'
p8508
g3
((lp8509
I1988
atRp8510
sS'MN0003064444'
p8511
g3
((lp8512
I1986
atRp8513
sS'MN0000034094'
p8514
g3
((lp8515
I1968
aI1969
aI1970
atRp8516
sS'MN0000023925'
p8517
g3
((lp8518
I1976
aI1977
aI1978
aI1983
atRp8519
sS'MN0000270162'
p8520
g3
((lp8521
I2004
atRp8522
sS'MN0000090079'
p8523
g3
((lp8524
I2000
aI1999
atRp8525
sS'MN0000678465'
p8526
g3
((lp8527
I2001
atRp8528
sS'MN0000075540'
p8529
g3
((lp8530
I1964
aI1965
aI1966
aI1968
aI1969
aI1970
aI1971
aI1972
aI1973
atRp8531
sS'MN0000057151'
p8532
g3
((lp8533
I1999
atRp8534
sS'MN0000239628'
p8535
g3
((lp8536
I2006
atRp8537
sS'MN0000813463'
p8538
g3
((lp8539
I1984
aI1985
aI1986
aI1995
aI1987
atRp8540
sS'MN0000075100'
p8541
g3
((lp8542
I1986
aI1974
aI1975
aI1976
aI1977
aI1979
aI1982
atRp8543
sS'MN0000154927'
p8544
g3
((lp8545
I1992
aI1988
aI1991
atRp8546
sS'MN0000123391'
p8547
g3
((lp8548
I1964
atRp8549
sS'MN0000771905'
p8550
g3
((lp8551
I2004
aI2005
aI2006
atRp8552
sS'MN0000463803'
p8553
g3
((lp8554
I1995
atRp8555
sS'MN0000068934'
p8556
g3
((lp8557
I1992
aI1999
atRp8558
sS'MN0000628467'
p8559
g3
((lp8560
I1998
aI1999
aI2000
aI2001
aI2002
aI2003
aI2004
aI2005
aI2007
aI2008
atRp8561
sS'MN0000412710'
p8562
g3
((lp8563
I1989
atRp8564
sS'MN0000563349'
p8565
g3
((lp8566
I1986
atRp8567
sS'MN0000475431'
p8568
g3
((lp8569
I1984
aI1982
aI1983
atRp8570
sS'MN0002479562'
p8571
g3
((lp8572
I1989
aI1990
atRp8573
sS'MN0000053428'
p8574
g3
((lp8575
I1974
atRp8576
sS'MN0000143928'
p8577
g3
((lp8578
I1979
atRp8579
sS'MN0000246947'
p8580
g3
((lp8581
I1971
aI1972
atRp8582
sS'MN0000684830'
p8583
g3
((lp8584
I1964
aI1965
aI1966
aI1967
aI1968
aI1969
atRp8585
sS'MN0000403120'
p8586
g3
((lp8587
I1968
atRp8588
sS'MN0000755979'
p8589
g3
((lp8590
I1973
atRp8591
sS'MN0000237235'
p8592
g3
((lp8593
I1964
atRp8594
sS'MN0000219287'
p8595
g3
((lp8596
I1977
aI1978
atRp8597
sS'MN0000282384'
p8598
g3
((lp8599
I1960
atRp8600
sS'MN0000988471'
p8601
g3
((lp8602
I1992
aI2001
aI1989
aI1998
atRp8603
sS'MN0000197867'
p8604
g3
((lp8605
I1964
aI1965
atRp8606
sS'MN0000075308'
p8607
g3
((lp8608
I1993
aI1989
atRp8609
sS'MN0000267814'
p8610
g3
((lp8611
I1976
aI1977
aI1979
aI1982
aI1975
atRp8612
sS'MN0000145180'
p8613
g3
((lp8614
I1962
aI1969
aI1971
aI1972
aI1974
aI1976
aI1977
atRp8615
sS'MN0000246376'
p8616
g3
((lp8617
I1961
aI1962
aI1963
aI1964
atRp8618
sS'MN0001413235'
p8619
g3
((lp8620
I1972
atRp8621
sS'MN0000602378'
p8622
g3
((lp8623
I2007
atRp8624
sS'MN0001176522'
p8625
g3
((lp8626
I1964
atRp8627
sS'MN0000186390'
p8628
g3
((lp8629
I1971
aI1972
aI1973
aI1989
atRp8630
sS'MN0000036106'
p8631
g3
((lp8632
I1984
aI1986
aI1993
aI1968
aI1970
aI1974
aI1976
aI1977
aI1981
aI1982
atRp8633
sS'MN0000841286'
p8634
g3
((lp8635
I1984
atRp8636
sS'MN0000407101'
p8637
g3
((lp8638
I1978
aI1979
aI1980
aI1982
atRp8639
sS'MN0000950441'
p8640
g3
((lp8641
I1992
aI1985
aI1990
aI1993
atRp8642
sS'MN0000774956'
p8643
g3
((lp8644
I1961
aI1963
atRp8645
sS'MN0000603195'
p8646
g3
((lp8647
I1972
atRp8648
sS'MN0001038956'
p8649
g3
((lp8650
I2009
atRp8651
sS'MN0000883069'
p8652
g3
((lp8653
I1996
atRp8654
sS'MN0000125506'
p8655
g3
((lp8656
I1998
aI1999
aI2000
aI2001
aI2003
aI2004
aI2006
atRp8657
sS'MN0000285232'
p8658
g3
((lp8659
I2005
aI2007
atRp8660
sS'MN0000977198'
p8661
g3
((lp8662
I2008
aI2006
aI2007
atRp8663
sS'MN0000757157'
p8664
g3
((lp8665
I1986
aI1987
aI1989
aI1991
atRp8666
sS'MN0000262281'
p8667
g3
((lp8668
I2003
atRp8669
sS'MN0000401287'
p8670
g3
((lp8671
I1994
atRp8672
sS'MN0000355451'
p8673
g3
((lp8674
I1969
atRp8675
sS'MN0000099198'
p8676
g3
((lp8677
I1960
atRp8678
sS'MN0000963005'
p8679
g3
((lp8680
I2002
aI1998
atRp8681
sS'MN0000161572'
p8682
g3
((lp8683
I1984
aI1975
atRp8684
sS'MN0000297702'
p8685
g3
((lp8686
I1984
aI1987
aI1977
aI1979
aI1982
aI1983
atRp8687
sS'MN0000809271'
p8688
g3
((lp8689
I1995
atRp8690
sS'MN0000793456'
p8691
g3
((lp8692
I1990
atRp8693
sS'MN0000749970'
p8694
g3
((lp8695
I1976
aI1977
aI1978
aI1979
aI1980
atRp8696
sS'MN0000128776'
p8697
g3
((lp8698
I1986
atRp8699
sS'MN0000847906'
p8700
g3
((lp8701
I1994
atRp8702
sS'MN0000169228'
p8703
g3
((lp8704
I1995
atRp8705
sS'MN0000832833'
p8706
g3
((lp8707
I2000
aI2001
atRp8708
sS'MN0000424296'
p8709
g3
((lp8710
I1963
aI1964
aI1965
aI1966
aI1967
aI1974
atRp8711
sS'MN0000081619'
p8712
g3
((lp8713
I2000
aI2001
aI2002
aI2003
aI2004
aI2005
aI2006
aI2007
aI2008
aI2009
atRp8714
sS'MN0000046861'
p8715
g3
((lp8716
I1960
aI1961
aI1962
aI1964
aI1965
aI1966
aI1967
aI1968
aI1970
aI1971
aI1973
aI1975
atRp8717
sS'MN0000608945'
p8718
g3
((lp8719
I1994
aI1995
aI1996
aI1998
aI1999
aI2002
aI2004
atRp8720
sS'MN0000199229'
p8721
g3
((lp8722
I1960
atRp8723
sS'MN0000004869'
p8724
g3
((lp8725
I1972
atRp8726
sS'MN0000575012'
p8727
g3
((lp8728
I1993
aI1963
atRp8729
sS'MN0000743709'
p8730
g3
((lp8731
I2001
atRp8732
sS'MN0000593930'
p8733
g3
((lp8734
I1972
atRp8735
sS'MN0000014699'
p8736
g3
((lp8737
I1988
atRp8738
sS'MN0000892771'
p8739
g3
((lp8740
I1997
aI1967
aI1969
aI1970
aI1972
aI1973
aI1974
aI1975
aI1976
aI1977
aI1978
aI1979
atRp8741
sS'MN0000194063'
p8742
g3
((lp8743
I1998
aI1999
aI2000
aI2001
aI2005
aI2009
atRp8744
sS'MN0000894245'
p8745
g3
((lp8746
I1960
aI1961
atRp8747
sS'MN0000482600'
p8748
g3
((lp8749
I1966
aI1967
atRp8750
sS'MN0000205851'
p8751
g3
((lp8752
I1972
atRp8753
sS'MN0000150590'
p8754
g3
((lp8755
I1999
atRp8756
sS'MN0000351227'
p8757
g3
((lp8758
I1987
aI1988
aI1989
aI1990
aI1991
aI1992
aI1994
aI1997
atRp8759
sS'MN0000813731'
p8760
g3
((lp8761
I1993
aI1987
aI1988
aI1989
aI1990
atRp8762
sS'MN0000902274'
p8763
g3
((lp8764
I1969
atRp8765
sS'MN0000107997'
p8766
g3
((lp8767
I1964
aI1965
atRp8768
sS'MN0001511874'
p8769
g3
((lp8770
I1972
atRp8771
sS'MN0000121157'
p8772
g3
((lp8773
I1962
aI1963
aI1964
aI1965
aI1966
aI1967
atRp8774
sS'MN0000219428'
p8775
g3
((lp8776
I2001
aI2002
aI2009
atRp8777
sS'MN0003018652'
p8778
g3
((lp8779
I1974
atRp8780
sS'MN0000292389'
p8781
g3
((lp8782
I1997
atRp8783
sS'MN0000347148'
p8784
g3
((lp8785
I1984
aI1985
aI1987
aI1988
aI1983
atRp8786
sS'MN0000085915'
p8787
g3
((lp8788
I1985
aI1986
aI1990
aI1992
aI1997
aI1974
aI1977
aI1978
aI1979
aI1980
aI1981
aI1982
aI1983
atRp8789
sS'MN0000019083'
p8790
g3
((lp8791
I1976
aI1978
aI1980
aI1974
aI1982
atRp8792
sS'MN0000246960'
p8793
g3
((lp8794
I1984
aI1985
aI1986
atRp8795
sS'MN0000802464'
p8796
g3
((lp8797
I1994
atRp8798
sS'MN0000307049'
p8799
g3
((lp8800
I2000
aI1998
atRp8801
sS'MN0000475209'
p8802
g3
((lp8803
I1965
aI1966
atRp8804
sS'MN0000798809'
p8805
g3
((lp8806
I1966
aI1967
atRp8807
sS'MN0000805493'
p8808
g3
((lp8809
I1970
aI1972
aI1973
atRp8810
sS'MN0000357773'
p8811
g3
((lp8812
I1960
atRp8813
sS'MN0000047999'
p8814
g3
((lp8815
I1991
atRp8816
sS'MN0000931202'
p8817
g3
((lp8818
I1962
atRp8819
sS'MN0000138407'
p8820
g3
((lp8821
I1971
aI1972
aI1973
aI1974
aI1975
aI1976
aI1977
atRp8822
sS'MN0002132219'
p8823
g3
((lp8824
I2009
atRp8825
sS'MN0000193305'
p8826
g3
((lp8827
I2006
atRp8828
sS'MN0001620636'
p8829
g3
((lp8830
I2009
atRp8831
sS'MN0000088778'
p8832
g3
((lp8833
I1998
atRp8834
sS'MN0001661219'
p8835
g3
((lp8836
I1961
atRp8837
sS'MN0000651549'
p8838
g3
((lp8839
I1975
atRp8840
sS'MN0000231407'
p8841
g3
((lp8842
I1976
atRp8843
sS'MN0000619388'
p8844
g3
((lp8845
I2006
atRp8846
sS'MN0000270667'
p8847
g3
((lp8848
I1994
aI2003
aI1999
atRp8849
sS'MN0000076881'
p8850
g3
((lp8851
I1960
aI1961
aI1962
aI1963
atRp8852
sS'MN0000672656'
p8853
g3
((lp8854
I2004
aI2007
atRp8855
sS'MN0000052093'
p8856
g3
((lp8857
I1984
aI1986
aI1989
aI1991
aI1982
aI1983
atRp8858
sS'MN0000214593'
p8859
g3
((lp8860
I2000
atRp8861
sS'MN0001202301'
p8862
g3
((lp8863
I1975
atRp8864
sS'MN0000186805'
p8865
g3
((lp8866
I1988
aI1975
aI1976
aI1977
aI1978
aI1979
aI1980
atRp8867
sS'MN0000081832'
p8868
g3
((lp8869
I1984
aI1985
aI1987
aI1988
aI1989
aI1991
aI1977
aI1978
aI1979
aI1980
atRp8870
sS'MN0000049774'
p8871
g3
((lp8872
I1994
aI1995
atRp8873
sS'MN0000667738'
p8874
g3
((lp8875
I1977
aI1978
atRp8876
sS'MN0000566430'
p8877
g3
((lp8878
I2002
aI1995
aI2004
atRp8879
sS'MN0000563551'
p8880
g3
((lp8881
I1993
atRp8882
sS'MN0001296614'
p8883
g3
((lp8884
I1998
atRp8885
sS'MN0000224186'
p8886
g3
((lp8887
I1985
aI1986
aI1987
aI1989
aI1991
aI1992
aI1993
aI1994
aI1996
aI1997
aI2006
aI1983
atRp8888
sS'MN0000757085'
p8889
g3
((lp8890
I1988
aI1989
atRp8891
sS'MN0000869305'
p8892
g3
((lp8893
I1998
atRp8894
sS'MN0000743968'
p8895
g3
((lp8896
I1984
aI1980
aI1982
atRp8897
sS'MN0000773642'
p8898
g3
((lp8899
I1963
aI1964
aI1965
aI1966
atRp8900
sS'MN0000271029'
p8901
g3
((lp8902
I1962
aI1963
aI1965
aI1966
atRp8903
sS'MN0000129317'
p8904
g3
((lp8905
I1982
atRp8906
sS'MN0000777366'
p8907
g3
((lp8908
I1995
aI1996
atRp8909
sS'MN0000194246'
p8910
g3
((lp8911
I1996
aI1999
atRp8912
sS'MN0000246885'
p8913
g3
((lp8914
I1984
aI1960
aI1961
aI1962
aI1963
aI1964
aI1965
aI1969
aI1973
aI1974
aI1978
atRp8915
sS'MN0000013589'
p8916
g3
((lp8917
I1965
aI1966
atRp8918
sS'MN0000136939'
p8919
g3
((lp8920
I1998
atRp8921
sS'MN0000385797'
p8922
g3
((lp8923
I2008
atRp8924
sS'MN0000829172'
p8925
g3
((lp8926
I1962
atRp8927
sS'MN0000836133'
p8928
g3
((lp8929
I1961
atRp8930
sS'MN0000509356'
p8931
g3
((lp8932
I1985
aI1986
aI1987
aI1991
aI1992
aI1982
aI1983
atRp8933
sS'MN0000773442'
p8934
g3
((lp8935
I2008
aI2003
aI2004
atRp8936
sS'MN0000165011'
p8937
g3
((lp8938
I1986
aI1962
aI1963
aI1964
aI1965
aI1966
aI1967
aI1968
aI1969
aI1970
aI1971
aI1972
aI1974
aI1976
aI1979
aI1980
aI1981
aI1982
aI1983
atRp8939
sS'MN0000309885'
p8940
g3
((lp8941
I1990
atRp8942
sS'MN0000120010'
p8943
g3
((lp8944
I2002
aI2005
aI2006
aI2007
atRp8945
sS'MN0000132657'
p8946
g3
((lp8947
I1988
atRp8948
sS'MN0000780258'
p8949
g3
((lp8950
I1999
aI2000
aI2001
aI2002
aI2003
aI2004
aI2006
aI2007
atRp8951
sS'MN0000615247'
p8952
g3
((lp8953
I2007
atRp8954
sS'MN0000017021'
p8955
g3
((lp8956
I2006
atRp8957
sS'MN0000733005'
p8958
g3
((lp8959
I2007
atRp8960
sS'MN0000812711'
p8961
g3
((lp8962
I2008
aI2005
atRp8963
sS'MN0000587982'
p8964
g3
((lp8965
I1997
atRp8966
sS'MN0000949630'
p8967
g3
((lp8968
I1995
aI1999
aI2000
aI2002
aI2004
aI2005
aI2006
aI2007
atRp8969
sS'MN0000842351'
p8970
g3
((lp8971
I1980
atRp8972
sS'MN0000245049'
p8973
g3
((lp8974
I1968
aI1963
atRp8975
sS'MN0000117001'
p8976
g3
((lp8977
I1960
atRp8978
sS'MN0000936749'
p8979
g3
((lp8980
I1972
atRp8981
sS'MN0000852376'
p8982
g3
((lp8983
I1991
atRp8984
sS'MN0000332141'
p8985
g3
((lp8986
I1961
aI1962
aI1964
aI1968
aI1972
aI1973
atRp8987
sS'MN0000806542'
p8988
g3
((lp8989
I1960
aI1961
aI1962
aI1963
aI1964
aI1965
aI1967
aI1968
aI1969
atRp8990
sS'MN0000488436'
p8991
g3
((lp8992
I1970
atRp8993
sS'MN0000798587'
p8994
g3
((lp8995
I2007
atRp8996
sS'MN0000174557'
p8997
g3
((lp8998
I1962
aI1963
aI1971
aI1972
aI1973
aI1974
aI1982
atRp8999
sS'MN0000454240'
p9000
g3
((lp9001
I1976
atRp9002
sS'MN0000895677'
p9003
g3
((lp9004
I2006
atRp9005
sS'MN0000002273'
p9006
g3
((lp9007
I1965
atRp9008
sS'MN0000856451'
p9009
g3
((lp9010
I1984
aI1983
atRp9011
sS'MN0002849126'
p9012
g3
((lp9013
I1966
atRp9014
sS'MN0000597585'
p9015
g3
((lp9016
I1996
atRp9017
sS'MN0000777210'
p9018
g3
((lp9019
I1969
aI1970
aI1973
aI1974
aI1975
aI1979
aI1980
aI1981
aI1982
atRp9020
sS'MN0000831733'
p9021
g3
((lp9022
I2005
atRp9023
sS'MN0000076561'
p9024
g3
((lp9025
I2000
aI1992
aI1999
aI1993
atRp9026
sS'MN0001947662'
p9027
g3
((lp9028
I1966
atRp9029
sS'MN0000253657'
p9030
g3
((lp9031
I2006
atRp9032
sS'MN0000364445'
p9033
g3
((lp9034
I1978
aI1979
aI1980
aI1981
atRp9035
sS'MN0000151549'
p9036
g3
((lp9037
I1986
aI1987
aI1988
aI1989
aI1990
aI1991
atRp9038
sS'MN0000790750'
p9039
g3
((lp9040
I1982
atRp9041
sS'MN0000548397'
p9042
g3
((lp9043
I2008
aI2009
aI2007
atRp9044
sS'MN0000312004'
p9045
g3
((lp9046
I2008
aI2005
atRp9047
sS'MN0000807949'
p9048
g3
((lp9049
I1988
atRp9050
sS'MN0000640261'
p9051
g3
((lp9052
I2004
atRp9053
sS'MN0000506596'
p9054
g3
((lp9055
I1975
atRp9056
sS'MN0000174007'
p9057
g3
((lp9058
I1992
atRp9059
sS'MN0000944700'
p9060
g3
((lp9061
I2008
aI2009
atRp9062
sS'MN0000635466'
p9063
g3
((lp9064
I2001
atRp9065
sS'MN0000150239'
p9066
g3
((lp9067
I1997
atRp9068
sS'MN0000128681'
p9069
g3
((lp9070
I2001
atRp9071
sS'MN0000070929'
p9072
g3
((lp9073
I1984
aI1989
aI1969
aI1970
aI1974
aI1977
aI1979
aI1980
aI1981
atRp9074
sS'MN0000310941'
p9075
g3
((lp9076
I1996
atRp9077
sS'MN0000830464'
p9078
g3
((lp9079
I1960
atRp9080
sS'MN0000360346'
p9081
g3
((lp9082
I2000
atRp9083
sS'MN0000771203'
p9084
g3
((lp9085
I1982
atRp9086
sS'MN0000260384'
p9087
g3
((lp9088
I1984
aI1985
aI1986
aI1989
atRp9089
sS'MN0000107294'
p9090
g3
((lp9091
I1990
atRp9092
sS'MN0000978359'
p9093
g3
((lp9094
I2008
atRp9095
sS'MN0000494474'
p9096
g3
((lp9097
I1979
atRp9098
sS'MN0000085445'
p9099
g3
((lp9100
I1960
atRp9101
sS'MN0000796741'
p9102
g3
((lp9103
I1968
aI1965
aI1966
aI1967
atRp9104
sS'MN0002901281'
p9105
g3
((lp9106
I1962
aI1963
aI1964
atRp9107
sS'MN0000012180'
p9108
g3
((lp9109
I1996
aI1997
aI2000
aI2001
aI2002
aI2003
aI2004
aI2005
aI2006
aI2008
aI2009
atRp9110
sS'MN0000573978'
p9111
g3
((lp9112
I1989
atRp9113
sS'MN0000987777'
p9114
g3
((lp9115
I2000
aI2002
aI1996
aI1999
atRp9116
sS'MN0001891126'
p9117
g3
((lp9118
I1961
aI1962
atRp9119
sS'MN0000574772'
p9120
g3
((lp9121
I1990
aI1993
aI1979
aI1980
aI1982
aI1983
atRp9122
sS'MN0000205006'
p9123
g3
((lp9124
I1973
atRp9125
sS'MN0001987787'
p9126
g3
((lp9127
I1978
atRp9128
sS'MN0000227988'
p9129
g3
((lp9130
I1992
aI1994
atRp9131
sS'MN0000674150'
p9132
g3
((lp9133
I1971
aI1972
aI1973
aI1974
aI1975
aI1976
aI1977
aI1978
aI1979
aI1981
atRp9134
sS'MN0000245760'
p9135
g3
((lp9136
I1970
atRp9137
sS'MN0001979110'
p9138
g3
((lp9139
I1991
atRp9140
sS'MN0001020707'
p9141
g3
((lp9142
I2009
atRp9143
sS'MN0000762496'
p9144
g3
((lp9145
I1995
atRp9146
sS'MN0000933262'
p9147
g3
((lp9148
I1965
atRp9149
sS'MN0000675976'
p9150
g3
((lp9151
I1987
atRp9152
sS'MN0000628981'
p9153
g3
((lp9154
I1968
aI1967
atRp9155
sS'MN0000390390'
p9156
g3
((lp9157
I1971
aI1973
aI1974
aI1975
aI1976
aI1977
atRp9158
sS'MN0000070811'
p9159
g3
((lp9160
I1989
aI1990
atRp9161
sS'MN0000090124'
p9162
g3
((lp9163
I1990
atRp9164
sS'MN0000851158'
p9165
g3
((lp9166
I1965
atRp9167
sS'MN0000376608'
p9168
g3
((lp9169
I1961
aI1962
aI1963
aI1964
aI1965
aI1966
aI1967
aI1968
aI1969
atRp9170
sS'MN0001649799'
p9171
g3
((lp9172
I1969
atRp9173
sS'MN0000213089'
p9174
g3
((lp9175
I1962
atRp9176
sS'MN0000200184'
p9177
g3
((lp9178
I1996
atRp9179
sS'MN0000642542'
p9180
g3
((lp9181
I1969
aI1963
atRp9182
sS'MN0000332257'
p9183
g3
((lp9184
I1993
aI1989
atRp9185
sS'MN0000754032'
p9186
g3
((lp9187
I1996
aI1995
aI1964
aI1965
aI1966
aI1967
aI1968
aI1969
aI1970
aI1976
aI1978
atRp9188
sS'MN0000087407'
p9189
g3
((lp9190
I1980
atRp9191
sS'MN0000766557'
p9192
g3
((lp9193
I2000
atRp9194
sS'MN0000137084'
p9195
g3
((lp9196
I1987
aI1988
aI1989
aI1990
aI1991
aI1992
aI1993
atRp9197
sS'MN0000639626'
p9198
g3
((lp9199
I1995
atRp9200
sS'MN0000934367'
p9201
g3
((lp9202
I2007
atRp9203
sS'MN0000201760'
p9204
g3
((lp9205
I1984
aI1976
aI1977
aI1978
aI1979
aI1980
aI1981
aI1982
aI1983
atRp9206
sS'MN0002726439'
p9207
g3
((lp9208
I2009
atRp9209
sS'MN0000491802'
p9210
g3
((lp9211
I1979
atRp9212
sS'MN0000860561'
p9213
g3
((lp9214
I2009
aI2006
atRp9215
sS'MN0000050520'
p9216
g3
((lp9217
I1969
aI1973
aI1967
atRp9218
sS'MN0000106145'
p9219
g3
((lp9220
I2008
atRp9221
sS'MN0000746470'
p9222
g3
((lp9223
I1984
atRp9224
sS'MN0000184043'
p9225
g3
((lp9226
I1999
aI2003
aI2005
aI2007
aI2008
aI2009
atRp9227
sS'MN0000792530'
p9228
g3
((lp9229
I1994
aI1996
aI1997
aI1998
aI1999
atRp9230
sS'MN0000731084'
p9231
g3
((lp9232
I1961
aI1962
atRp9233
sS'MN0000016227'
p9234
g3
((lp9235
I1973
aI1974
aI1975
aI1976
aI1977
aI1980
atRp9236
sS'MN0000955936'
p9237
g3
((lp9238
I1976
atRp9239
sS'MN0000289599'
p9240
g3
((lp9241
I2008
aI2001
aI2003
aI2004
aI2007
atRp9242
sS'MN0000290040'
p9243
g3
((lp9244
I1961
atRp9245
sS'MN0000749167'
p9246
g3
((lp9247
I1963
aI1964
aI1965
aI1966
aI1967
aI1968
atRp9248
sS'MN0000199162'
p9249
g3
((lp9250
I1995
atRp9251
sS'MN0000841870'
p9252
g3
((lp9253
I1998
atRp9254
sS'MN0000355998'
p9255
g3
((lp9256
I2003
aI2004
atRp9257
sS'MN0000391586'
p9258
g3
((lp9259
I2005
aI2006
atRp9260
sS'MN0000171855'
p9261
g3
((lp9262
I1962
atRp9263
sS'MN0000467203'
p9264
g3
((lp9265
I1971
aI1984
aI1987
aI1988
aI1991
aI1992
aI1993
aI1995
aI1996
aI1997
aI2001
aI2003
aI1972
aI1973
aI1975
aI1979
aI1980
aI1981
aI1983
atRp9266
sS'MN0000146841'
p9267
g3
((lp9268
I2001
atRp9269
sS'MN0000519603'
p9270
g3
((lp9271
I1989
aI1990
atRp9272
sS'MN0002313776'
p9273
g3
((lp9274
I1969
atRp9275
sS'MN0000341806'
p9276
g3
((lp9277
I2009
atRp9278
sS'MN0000574829'
p9279
g3
((lp9280
I1971
atRp9281
sS'MN0000302595'
p9282
g3
((lp9283
I1972
atRp9284
sS'MN0000267320'
p9285
g3
((lp9286
I1970
atRp9287
sS'MN0000305541'
p9288
g3
((lp9289
I1960
atRp9290
sS'MN0000588696'
p9291
g3
((lp9292
I1963
atRp9293
sS'MN0000622805'
p9294
g3
((lp9295
I1963
aI1964
aI1965
aI1966
aI1967
aI1968
aI1969
aI1970
aI1971
aI1972
aI1973
aI1974
aI1976
aI1977
aI1980
aI1981
aI1982
aI1984
aI1985
aI1986
aI1987
aI1988
aI1991
aI2005
atRp9296
sS'MN0000921002'
p9297
g3
((lp9298
I1970
aI1971
aI1973
atRp9299
sS'MN0000266151'
p9300
g3
((lp9301
I1993
aI1994
atRp9302
sS'MN0000071812'
p9303
g3
((lp9304
I1965
aI1966
aI1967
aI1968
aI1972
aI1982
atRp9305
sS'MN0000215930'
p9306
g3
((lp9307
I1976
aI1962
aI1963
aI1965
atRp9308
sS'MN0000167931'
p9309
g3
((lp9310
I1996
atRp9311
sS'MN0000823762'
p9312
g3
((lp9313
I1996
atRp9314
sS'MN0000743623'
p9315
g3
((lp9316
I1996
atRp9317
sS'MN0002014109'
p9318
g3
((lp9319
I1972
atRp9320
sS'MN0000162415'
p9321
g3
((lp9322
I1976
aI1977
atRp9323
sS'MN0000138112'
p9324
g3
((lp9325
I1992
atRp9326
sS'MN0000578999'
p9327
g3
((lp9328
I1994
aI1996
aI1997
aI1998
aI2000
aI2001
aI2002
aI2003
atRp9329
sS'MN0003137622'
p9330
g3
((lp9331
I1994
atRp9332
sS'MN0000139908'
p9333
g3
((lp9334
I1989
atRp9335
sS'MN0000355208'
p9336
g3
((lp9337
I1993
atRp9338
sS'MN0000986573'
p9339
g3
((lp9340
I2009
aI2006
atRp9341
sS'MN0000198783'
p9342
g3
((lp9343
I1960
aI1961
aI1962
atRp9344
sS'MN0000821948'
p9345
g3
((lp9346
I1991
atRp9347
sS'MN0000192828'
p9348
g3
((lp9349
I1983
atRp9350
sS'MN0000324854'
p9351
g3
((lp9352
I1984
aI1985
aI1986
aI1989
aI1991
aI1972
aI1973
aI1976
aI1980
aI1981
aI1982
atRp9353
sS'MN0000758317'
p9354
g3
((lp9355
I1962
atRp9356
sS'MN0000096379'
p9357
g3
((lp9358
I1991
aI1992
aI1993
aI1994
aI1995
aI1997
aI1999
aI2001
atRp9359
sS'MN0000181914'
p9360
g3
((lp9361
I1979
atRp9362
sS'MN0000034988'
p9363
g3
((lp9364
I1964
atRp9365
sS'MN0000678167'
p9366
g3
((lp9367
I1992
aI1993
aI1995
atRp9368
sS'MN0000133987'
p9369
g3
((lp9370
I1973
atRp9371
sS'MN0000814657'
p9372
g3
((lp9373
I1962
atRp9374
sS'MN0000895074'
p9375
g3
((lp9376
I1984
aI1985
aI1980
atRp9377
sS'MN0000742827'
p9378
g3
((lp9379
I1965
atRp9380
sS'MN0000606915'
p9381
g3
((lp9382
I1999
atRp9383
sS'MN0000808304'
p9384
g3
((lp9385
I1987
aI1989
aI1990
atRp9386
sS'MN0000793664'
p9387
g3
((lp9388
I1986
atRp9389
sS'MN0000785585'
p9390
g3
((lp9391
I1961
atRp9392
sS'MN0000576043'
p9393
g3
((lp9394
I1962
atRp9395
sS'MN0000774941'
p9396
g3
((lp9397
I2000
aI1995
aI1998
aI1999
atRp9398
sS'MN0000686359'
p9399
g3
((lp9400
I2004
aI2006
atRp9401
sS'MN0000558954'
p9402
g3
((lp9403
I2008
aI2009
aI2005
aI2007
atRp9404
sS'MN0000784524'
p9405
g3
((lp9406
I1963
aI1964
atRp9407
sS'MN0000459616'
p9408
g3
((lp9409
I1985
aI1986
aI1990
aI1982
atRp9410
sS'MN0000768877'
p9411
g3
((lp9412
I1970
atRp9413
sS'MN0000225930'
p9414
g3
((lp9415
I1994
aI2003
atRp9416
sS'MN0001361069'
p9417
g3
((lp9418
I1978
atRp9419
sS'MN0000073682'
p9420
g3
((lp9421
I2002
aI2005
aI2007
atRp9422
sS'MN0002093150'
p9423
g3
((lp9424
I1964
aI1965
atRp9425
sS'MN0000624190'
p9426
g3
((lp9427
I2005
atRp9428
sS'MN0000669738'
p9429
g3
((lp9430
I1997
atRp9431
sS'MN0000000534'
p9432
g3
((lp9433
I1998
atRp9434
sS'MN0000026952'
p9435
g3
((lp9436
I2003
atRp9437
sS'MN0000522068'
p9438
g3
((lp9439
I1978
atRp9440
sS'MN0000482677'
p9441
g3
((lp9442
I1993
atRp9443
sS'MN0000150048'
p9444
g3
((lp9445
I1994
aI1996
atRp9446
sS'MN0000239545'
p9447
g3
((lp9448
I1978
aI1972
atRp9449
sS'MN0000633313'
p9450
g3
((lp9451
I2006
aI2007
atRp9452
sS'MN0000125352'
p9453
g3
((lp9454
I1973
atRp9455
sS'MN0000927555'
p9456
g3
((lp9457
I1985
aI1986
aI1987
aI1961
aI1994
aI1962
aI1964
aI1965
aI1998
aI1967
aI1968
aI1969
aI1970
aI1971
aI1973
aI1974
aI1976
aI1980
aI1981
aI1983
atRp9458
sS'MN0000375329'
p9459
g3
((lp9460
I1997
atRp9461
sS'MN0000619423'
p9462
g3
((lp9463
I1978
aI1979
aI1982
atRp9464
sS'MN0000224294'
p9465
g3
((lp9466
I1984
aI1985
aI1972
aI1973
aI1975
atRp9467
sS'MN0000846113'
p9468
g3
((lp9469
I2001
atRp9470
sS'MN0000175579'
p9471
g3
((lp9472
I2008
aI2002
aI2005
atRp9473
sS'MN0000767016'
p9474
g3
((lp9475
I1988
aI1990
aI1991
aI1994
aI1996
aI1999
atRp9476
sS'MN0002391135'
p9477
g3
((lp9478
I1977
atRp9479
sS'MN0000115253'
p9480
g3
((lp9481
I2000
aI2005
atRp9482
sS'MN0001532591'
p9483
g3
((lp9484
I2009
atRp9485
sS'MN0000402637'
p9486
g3
((lp9487
I1965
atRp9488
sS'MN0002447909'
p9489
g3
((lp9490
I1982
atRp9491
sS'MN0000347151'
p9492
g3
((lp9493
I1996
aI1998
aI1999
aI2001
aI2003
aI2008
atRp9494
sS'MN0000483070'
p9495
g3
((lp9496
I1993
aI1995
aI1996
atRp9497
sS'MN0000820232'
p9498
g3
((lp9499
I1961
aI1963
atRp9500
sS'MN0000251491'
p9501
g3
((lp9502
I1975
aI1976
aI1977
aI1978
aI1980
aI1981
atRp9503
sS'MN0000019323'
p9504
g3
((lp9505
I1998
atRp9506
sS'MN0000355449'
p9507
g3
((lp9508
I1969
atRp9509
sS'MN0000805316'
p9510
g3
((lp9511
I2006
atRp9512
sS'MN0000583161'
p9513
g3
((lp9514
I1998
atRp9515
sS'MN0000021334'
p9516
g3
((lp9517
I1984
aI1985
aI1987
aI1979
aI1980
aI1981
atRp9518
sS'MN0000785101'
p9519
g3
((lp9520
I1984
aI1986
aI1987
aI1988
aI1983
atRp9521
sS'MN0000853492'
p9522
g3
((lp9523
I1982
atRp9524
sS'MN0000156471'
p9525
g3
((lp9526
I1997
atRp9527
sS'MN0002548827'
p9528
g3
((lp9529
I1996
atRp9530
sS'MN0000158540'
p9531
g3
((lp9532
I2008
aI2004
aI2006
atRp9533
sS'MN0000227088'
p9534
g3
((lp9535
I1996
aI1997
aI1998
atRp9536
sS'MN0000482705'
p9537
g3
((lp9538
I1964
atRp9539
sS'MN0000946137'
p9540
g3
((lp9541
I1968
aI1969
aI1970
aI1972
atRp9542
sS'MN0000104742'
p9543
g3
((lp9544
I1998
atRp9545
sS'MN0000682056'
p9546
g3
((lp9547
I2001
aI1996
aI1998
aI2004
atRp9548
sS'MN0000309653'
p9549
g3
((lp9550
I1969
atRp9551
sS'MN0000515600'
p9552
g3
((lp9553
I1976
aI1977
aI1979
atRp9554
sS'MN0000387530'
p9555
g3
((lp9556
I1995
atRp9557
sS'MN0000586493'
p9558
g3
((lp9559
I1983
atRp9560
sS'MN0000334770'
p9561
g3
((lp9562
I1964
aI1965
aI1966
aI1967
aI1968
aI1969
aI1975
atRp9563
sS'MN0000981156'
p9564
g3
((lp9565
I2009
atRp9566
sS'MN0001193500'
p9567
g3
((lp9568
I1982
atRp9569
sS'MN0000238495'
p9570
g3
((lp9571
I1969
atRp9572
sS'MN0000390185'
p9573
g3
((lp9574
I2008
aI2006
aI2007
atRp9575
sS'MN0000157676'
p9576
g3
((lp9577
I1999
aI2000
aI2002
aI2003
aI2004
aI2005
aI2006
aI2009
atRp9578
sS'MN0000255494'
p9579
g3
((lp9580
I1972
atRp9581
sS'MN0000382455'
p9582
g3
((lp9583
I2000
aI1996
atRp9584
sS'MN0000312140'
p9585
g3
((lp9586
I1960
aI1962
atRp9587
sS'MN0000165261'
p9588
g3
((lp9589
I1978
atRp9590
sS'MN0000144629'
p9591
g3
((lp9592
I1968
atRp9593
sS'MN0000019740'
p9594
g3
((lp9595
I2002
atRp9596
sS'MN0000262255'
p9597
g3
((lp9598
I1991
aI1992
aI1993
aI1994
aI1996
aI1997
aI1999
aI2000
aI2001
aI2002
aI2005
aI2008
aI2009
atRp9599
sS'MN0000692251'
p9600
g3
((lp9601
I1970
aI1966
aI1967
atRp9602
sS'MN0000741718'
p9603
g3
((lp9604
I1992
aI1993
aI1995
aI1998
atRp9605
sS'MN0000618713'
p9606
g3
((lp9607
I1982
atRp9608
sS'MN0000130689'
p9609
g3
((lp9610
I1984
aI1986
aI1972
aI1973
aI1977
aI1978
aI1982
aI1983
atRp9611
sS'MN0000138699'
p9612
g3
((lp9613
I1979
aI1974
aI1982
atRp9614
sS'MN0000178775'
p9615
g3
((lp9616
I1989
atRp9617
sS'MN0000368367'
p9618
g3
((lp9619
I1963
aI1964
aI1965
aI1966
aI1968
aI1969
aI1971
atRp9620
sS'MN0000296903'
p9621
g3
((lp9622
I1989
atRp9623
sS'MN0000359966'
p9624
g3
((lp9625
I1979
atRp9626
sS'MN0000153590'
p9627
g3
((lp9628
I1986
aI1971
aI1972
atRp9629
sS'MN0000775904'
p9630
g3
((lp9631
I1984
aI1987
aI1983
atRp9632
sS'MN0000816538'
p9633
g3
((lp9634
I1974
atRp9635
sS'MN0000131627'
p9636
g3
((lp9637
I1968
aI1969
aI1970
aI1971
aI1972
aI1976
atRp9638
sS'MN0001824897'
p9639
g3
((lp9640
I1997
atRp9641
sS'MN0000110792'
p9642
g3
((lp9643
I1978
atRp9644
sS'MN0000075825'
p9645
g3
((lp9646
I1960
aI1961
atRp9647
sS'MN0000013593'
p9648
g3
((lp9649
I1975
atRp9650
sS'MN0000757328'
p9651
g3
((lp9652
I1962
atRp9653
sS'MN0000947816'
p9654
g3
((lp9655
I1960
atRp9656
sS'MN0000669580'
p9657
g3
((lp9658
I1976
aI1975
atRp9659
sS'MN0000817751'
p9660
g3
((lp9661
I1965
atRp9662
sS'MN0000890724'
p9663
g3
((lp9664
I1976
aI1969
aI1970
atRp9665
sS'MN0000048903'
p9666
g3
((lp9667
I2003
atRp9668
sS'MN0000996096'
p9669
g3
((lp9670
I2009
atRp9671
sS'MN0000316269'
p9672
g3
((lp9673
I1985
aI1986
aI1982
aI1983
atRp9674
sS'MN0000068733'
p9675
g3
((lp9676
I1961
atRp9677
sS'MN0000110558'
p9678
g3
((lp9679
I2003
atRp9680
sS'MN0000002867'
p9681
g3
((lp9682
I1979
aI1980
atRp9683
sS'MN0000121185'
p9684
g3
((lp9685
I1974
atRp9686
s.