(dp0
VMN0000295276
p1
(lp2
I691
asVMN0000344609
p3
(lp4
I540
aI541
asS'Shaggy Featuring Rayvon'
p5
(lp6
I336
asVMN0000472925
p7
(lp8
I160
asVMN0000530745
p9
(lp10
I207
aI687
asVMN0000167517
p11
(lp12
I134
aI154
aI170
aI190
asVMN0000053606
p13
(lp14
I45
asVMN0000008828
p15
(lp16
I255
aI432
aI460
asVMN0000020050
p17
(lp18
I643
asVMN0000239921
p19
(lp20
I486
asVMN0000883318
p21
(lp22
I489
aI493
asVMN0000540010
p23
(lp24
I488
asVMN0000799053
p25
(lp26
I469
asVMN0000866491
p27
(lp28
I302
aI317
asVMN0000387973
p29
(lp30
I63
asVMN0000553483
p31
(lp32
I76
asVMN0000069153
p33
(lp34
I591
asVMN0000105129
p35
(lp36
I338
aI383
aI401
aI407
asVMN0000209142
p37
(lp38
I480
aI689
asVMN0000049026
p39
(lp40
I698
asVMN0000114342
p41
(lp42
I206
aI215
asVMN0000103484
p43
(lp44
I353
aI381
asVMN0000943827
p45
(lp46
I153
asVMN0000136871
p47
(lp48
I131
asVMN0000835585
p49
(lp50
I425
aI479
aI678
asVMN0000662067
p51
(lp52
I58
asVMN0000027136
p53
(lp54
I670
asVMN0000667669
p55
(lp56
I210
asVMN0000959876
p57
(lp58
I57
asVMN0000084446
p59
(lp60
I435
asVMN0000002923
p61
(lp62
I226
asVMN0000605375
p63
(lp64
I371
aI464
aI466
asVMN0000123754
p65
(lp66
I637
asVMN0000199995
p67
(lp68
I316
aI320
aI455
asS'Vitamin C Featuring Lady Saw'
p69
(lp70
I413
asVMN0000106916
p71
(lp72
I519
aI608
asVMN0000776371
p73
(lp74
I312
asS'Jimmy Somerville'
p75
(lp76
I416
asVMN0000747757
p77
(lp78
I426
asVMN0000925635
p79
(lp80
I130
asVMN0000094752
p81
(lp82
I511
asVMN0000137390
p83
(lp84
I241
aI277
aI284
asVMN0000193320
p85
(lp86
I274
aI296
aI405
aI438
aI546
aI603
asVMN0000043714
p87
(lp88
I575
aI576
aI585
aI620
aI673
asVMN0000610339
p89
(lp90
I361
aI579
asVMN0000105354
p91
(lp92
I369
aI657
asVMN0000334193
p93
(lp94
I334
asVMN0000929862
p95
(lp96
I333
asVMN0000621639
p97
(lp98
I344
aI364
asVMN0000372322
p99
(lp100
I395
asVMN0000850692
p101
(lp102
I382
aI384
aI583
asVMN0000180228
p103
(lp104
I602
asVMN0000246628
p105
(lp106
I566
asVMN0000361393
p107
(lp108
I341
asVMN0000536275
p109
(lp110
I299
asVMN0000317108
p111
(lp112
I550
asVMN0000624215
p113
(lp114
I240
asVMN0000945196
p115
(lp116
I123
asVMN0000165077
p117
(lp118
I601
asVMN0000936425
p119
(lp120
I564
asVMN0000178122
p121
(lp122
I139
asVMN0000923033
p123
(lp124
I276
aI300
aI616
asVMN0000104714
p125
(lp126
I70
asVMN0000339624
p127
(lp128
I285
asVMN0000842802
p129
(lp130
I252
aI318
asVMN0000830538
p131
(lp132
I679
asVMN0000988627
p133
(lp134
I179
asVMN0000017387
p135
(lp136
I261
aI397
asVMN0000934069
p137
(lp138
I671
asVMN0000961234
p139
(lp140
I275
asVMN0000010458
p141
(lp142
I574
asVMN0000153443
p143
(lp144
I11
asVMN0000797431
p145
(lp146
I347
asVMN0000134729
p147
(lp148
I224
asVMN0000260206
p149
(lp150
I218
aI222
aI309
aI319
aI356
aI365
aI367
aI412
aI451
aI462
aI592
aI599
aI600
aI632
aI638
aI676
asVMN0000006987
p151
(lp152
I658
asVMN0000594665
p153
(lp154
I554
asVMN0000243008
p155
(lp156
I94
asVMN0000156938
p157
(lp158
I282
asVMN0000762496
p159
(lp160
I360
asVMN0000078467
p161
(lp162
I434
asVMN0000758453
p163
(lp164
I477
asVMN0000005953
p165
(lp166
I100
aI101
asVMN0000033666
p167
(lp168
I273
asVMN0000478603
p169
(lp170
I529
asVMN0000955647
p171
(lp172
I417
asVMN0000614598
p173
(lp174
I527
asVMN0000852688
p175
(lp176
I297
asVMN0000775323
p177
(lp178
I355
asVMN0000758630
p179
(lp180
I265
aI339
asVMN0000128440
p181
(lp182
I227
asVMN0000059101
p183
(lp184
I545
asVMN0000281254
p185
(lp186
I323
aI368
aI584
asVMN0000219203
p187
(lp188
I228
aI247
aI662
asVMN0000780258
p189
(lp190
I507
asVMN0000099246
p191
(lp192
I267
asVMN0000110161
p193
(lp194
I439
aI467
aI483
aI502
aI512
aI525
aI582
aI615
aI644
asVMN0000100196
p195
(lp196
I21
asVMN0000391003
p197
(lp198
I354
asVMN0000140608
p199
(lp200
I520
asVMN0000074520
p201
(lp202
I199
asVMN0000790732
p203
(lp204
I194
asVMN0000804703
p205
(lp206
I441
asVMN0000583959
p207
(lp208
I310
asVMN0000175049
p209
(lp210
I696
asVMN0000041874
p211
(lp212
I279
asVMN0000113300
p213
(lp214
I442
asVMN0000696015
p215
(lp216
I578
asVMN0000290072
p217
(lp218
I690
asVMN0000066915
p219
(lp220
I337
asVMN0000864209
p221
(lp222
I492
aI562
aI587
aI595
aI612
aI653
aI668
asVMN0000792839
p223
(lp224
I260
asVMN0000127063
p225
(lp226
I444
asVMN0000837886
p227
(lp228
I164
asVMN0000303506
p229
(lp230
I504
asVMN0000184091
p231
(lp232
I83
aI84
aI85
aI86
asVMN0000796763
p233
(lp234
I121
aI122
asVMN0000162487
p235
(lp236
I104
asVMN0000047789
p237
(lp238
I598
asVMN0000208774
p239
(lp240
I621
asVMN0000290502
p241
(lp242
I152
asVMN0000345355
p243
(lp244
I697
asVMN0000263271
p245
(lp246
I223
asVMN0000816890
p247
(lp248
I326
asVMN0000031380
p249
(lp250
I548
aI634
aI664
aI692
asVMN0000162269
p251
(lp252
I322
aI363
aI437
aI494
asVMN0000198480
p253
(lp254
I165
asVMN0000478982
p255
(lp256
I409
asVMN0000813463
p257
(lp258
I475
asVMN0000801971
p259
(lp260
I120
asVMN0000826762
p261
(lp262
I675
asVMN0000865016
p263
(lp264
I478
asVMN0000304401
p265
(lp266
I589
asVMN0000585896
p267
(lp268
I95
asVMN0000748222
p269
(lp270
I421
asVMN0000264350
p271
(lp272
I311
aI340
aI594
asVMN0000011754
p273
(lp274
I694
asVMN0000057663
p275
(lp276
I627
asVMN0000252495
p277
(lp278
I406
asVMN0000546214
p279
(lp280
I237
asVMN0000134600
p281
(lp282
I544
aI580
asVMN0000498987
p283
(lp284
I60
asVMN0000659517
p285
(lp286
I597
aI703
asVMN0000669303
p287
(lp288
I655
asVMN0000058549
p289
(lp290
I490
asVMN0000674662
p291
(lp292
I20
asVMN0000279337
p293
(lp294
I393
asVMN0000626939
p295
(lp296
I212
asVMN0000845662
p297
(lp298
I699
asVMN0000420381
p299
(lp300
I636
asVMN0000502163
p301
(lp302
I71
aI72
asVMN0000378624
p303
(lp304
I68
asVMN0000298764
p305
(lp306
I626
asVMN0000046823
p307
(lp308
I73
asVMN0000159805
p309
(lp310
I538
asVMN0000492249
p311
(lp312
I452
asVMN0000661795
p313
(lp314
I366
asVMN0000029600
p315
(lp316
I114
asVMN0000635466
p317
(lp318
I167
asVMN0000618713
p319
(lp320
I481
asVMN0000070800
p321
(lp322
I454
asVMN0000376613
p323
(lp324
I59
asVMN0000758444
p325
(lp326
I287
asVMN0000317865
p327
(lp328
I642
asVMN0000270667
p329
(lp330
I235
asVMN0000496487
p331
(lp332
I448
asVMN0000548338
p333
(lp334
I46
asVMN0000024944
p335
(lp336
I465
aI630
asVMN0000390532
p337
(lp338
I304
aI443
asVMN0000776093
p339
(lp340
I234
aI324
asVMN0000754251
p341
(lp342
I2
asVMN0000222436
p343
(lp344
I470
aI700
asVMN0000005307
p345
(lp346
I136
asVMN0000144458
p347
(lp348
I549
asVMN0000184811
p349
(lp350
I447
asVMN0000341672
p351
(lp352
I205
aI219
asVMN0000158309
p353
(lp354
I376
aI547
aI639
aI651
asVMN0000402872
p355
(lp356
I571
asVMN0000023925
p357
(lp358
I93
asVMN0000000441
p359
(lp360
I195
asVMN0000545074
p361
(lp362
I49
aI54
asVMN0000101946
p363
(lp364
I648
aI656
asVMN0000628467
p365
(lp366
I148
asVMN0000139089
p367
(lp368
I204
asVMN0000475431
p369
(lp370
I646
asVMN0000822910
p371
(lp372
I143
aI147
asVMN0000358408
p373
(lp374
I557
asVMN0000260212
p375
(lp376
I424
asVMN0000988471
p377
(lp378
I403
aI542
asVMN0000164053
p379
(lp380
I539
asVMN0000414889
p381
(lp382
I198
asVMN0000131650
p383
(lp384
I262
asVMN0000046814
p385
(lp386
I106
asVMN0000036106
p387
(lp388
I387
asVMN0000091549
p389
(lp390
I243
asVMN0000963005
p391
(lp392
I419
asVMN0000390390
p393
(lp394
I358
asVMN0000046727
p395
(lp396
I65
asVMN0000832833
p397
(lp398
I661
asVMN0000490004
p399
(lp400
I197
asVMN0000757085
p401
(lp402
I667
asVMN0000081619
p403
(lp404
I522
aI604
asVMN0000685647
p405
(lp406
I249
aI270
aI505
asVMN0000152023
p407
(lp408
I214
asVMN0000194063
p409
(lp410
I688
asVMN0000373634
p411
(lp412
I231
asVMN0000926237
p413
(lp414
I211
aI610
asVMN0000359119
p415
(lp416
I22
asVMN0000081316
p417
(lp418
I618
asVMN0000113753
p419
(lp420
I321
asVMN0000406657
p421
(lp422
I606
asVMN0000085915
p423
(lp424
I238
aI348
aI517
aI530
aI652
asVMN0000022928
p425
(lp426
I570
asVMN0000129775
p427
(lp428
I402
asVMN0000678339
p429
(lp430
I458
asVMN0000200074
p431
(lp432
I149
aI150
asVMN0000737886
p433
(lp434
I471
aI473
asVMN0000029086
p435
(lp436
I665
asVMN0000159214
p437
(lp438
I680
asVMN0000098342
p439
(lp440
I524
asVMN0000040743
p441
(lp442
I138
aI163
asVMN0000012472
p443
(lp444
I684
asVMN0000645474
p445
(lp446
I607
asVMN0000075747
p447
(lp448
I44
asVMN0000224186
p449
(lp450
I474
asVMN0000790820
p451
(lp452
I178
asVMN0000597309
p453
(lp454
I628
aI649
asVMN0000690254
p455
(lp456
I496
aI497
asVMN0000194246
p457
(lp458
I115
aI191
asVMN0000165011
p459
(lp460
I14
aI15
aI16
asVMN0000608945
p461
(lp462
I526
aI647
asVMN0000665860
p463
(lp464
I415
asVMN0000577627
p465
(lp466
I36
asVMN0000337119
p467
(lp468
I250
asVMN0000026227
p469
(lp470
I613
asVMN0000949630
p471
(lp472
I157
asS'Jennifer Lopez'
p473
(lp474
I380
asVMN0000182415
p475
(lp476
I472
asVMN0000806542
p477
(lp478
I495
asVMN0000238322
p479
(lp480
I313
aI400
asVMN0000174557
p481
(lp482
I328
aI414
aI577
asVMN0000204386
p483
(lp484
I423
asVMN0000576718
p485
(lp486
I315
aI399
aI450
asVMN0000796734
p487
(lp488
I352
aI374
aI398
aI440
asVMN0000212614
p489
(lp490
I74
asVMN0000239827
p491
(lp492
I217
asVMN0000748994
p493
(lp494
I683
asVMN0000124492
p495
(lp496
I80
aI81
aI82
asVMN0000048507
p497
(lp498
I555
asVMN0000467382
p499
(lp500
I350
asVMN0000163229
p501
(lp502
I108
aI109
asVMN0000303061
p503
(lp504
I7
asVMN0000921895
p505
(lp506
I55
asVMN0000107090
p507
(lp508
I137
asVMN0000665908
p509
(lp510
I359
aI453
asVMN0000351227
p511
(lp512
I461
aI482
aI500
aI506
aI513
aI685
aI701
asVMN0000069534
p513
(lp514
I254
asVMN0000080780
p515
(lp516
I272
aI487
aI559
asVMN0000812877
p517
(lp518
I201
asVMN0000090124
p519
(lp520
I491
asVMN0000334644
p521
(lp522
I166
asVMN0000393031
p523
(lp524
I563
asVMN0000332257
p525
(lp526
I4
aI5
asVMN0000014651
p527
(lp528
I428
asVMN0000858375
p529
(lp530
I499
asVMN0000201760
p531
(lp532
I283
asVMN0000079960
p533
(lp534
I314
aI586
asVMN0000270497
p535
(lp536
I351
asVMN0000599732
p537
(lp538
I572
asS'Will Smith Featuring Tra-Knox'
p539
(lp540
I590
asVMN0000270491
p541
(lp542
I325
asVMN0000184043
p543
(lp544
I177
asVMN0000792530
p545
(lp546
I209
aI230
aI498
asVMN0000147785
p547
(lp548
I232
asVMN0000289599
p549
(lp550
I528
aI629
aI635
asVMN0000467203
p551
(lp552
I173
asVMN0000110011
p553
(lp554
I248
asVMN0000328014
p555
(lp556
I702
asVMN0000622805
p557
(lp558
I335
aI446
aI588
aI593
aI596
asVMN0000094813
p559
(lp560
I445
asVMN0000151979
p561
(lp562
I346
aI560
asVMN0000743623
p563
(lp564
I303
asVMN0000578999
p565
(lp566
I518
aI556
asVMN0000077732
p567
(lp568
I686
asVMN0000355208
p569
(lp570
I379
asVMN0000084209
p571
(lp572
I329
asVMN0000227352
p573
(lp574
I509
asVMN0000029808
p575
(lp576
I427
aI633
asVMN0000987621
p577
(lp578
I308
aI357
aI433
asVMN0000892827
p579
(lp580
I521
aI561
asVMN0000383889
p581
(lp582
I301
aI343
aI484
asVMN0000376204
p583
(lp584
I117
aI118
asVMN0000459616
p585
(lp586
I126
aI127
aI128
aI129
asVMN0000225930
p587
(lp588
I396
asVMN0000000534
p589
(lp590
I391
asVMN0000206241
p591
(lp592
I213
asVMN0000612716
p593
(lp594
I389
asVMN0000237205
p595
(lp596
I268
aI286
aI288
aI327
asVMN0000011707
p597
(lp598
I331
aI410
aI411
aI617
asVMN0000927555
p599
(lp600
I239
aI244
aI245
asVMN0000894465
p601
(lp602
I510
asVMN0000144847
p603
(lp604
I269
aI278
aI290
aI291
aI292
aI293
aI294
aI295
aI420
aI422
aI449
asVMN0000175579
p605
(lp606
I220
asVMN0000768321
p607
(lp608
I257
aI258
aI259
asVMN0000932665
p609
(lp610
I158
asVMN0000303626
p611
(lp612
I418
aI558
asVMN0000604852
p613
(lp614
I236
aI266
aI345
aI375
asVMN0000163213
p615
(lp616
I10
asVMN0000242211
p617
(lp618
I208
asVMN0000128099
p619
(lp620
I436
aI508
asVMN0000785101
p621
(lp622
I225
aI663
asVMN0000037730
p623
(lp624
I216
aI271
asVMN0000316834
p625
(lp626
I342
aI551
asVMN0000224345
p627
(lp628
I289
asVMN0000007689
p629
(lp630
I457
aI624
aI645
asVMN0000227088
p631
(lp632
I459
asVMN0000262794
p633
(lp634
I233
asVMN0000146841
p635
(lp636
I516
asVMN0000169677
p637
(lp638
I677
asVMN0000543055
p639
(lp640
I18
aI19
asVMN0000537548
p641
(lp642
I64
asVMN0000765595
p643
(lp644
I281
aI431
aI535
aI553
aI654
aI666
aI681
asVMN0000213212
p645
(lp646
I463
asVMN0000069986
p647
(lp648
I623
asVMN0000182900
p649
(lp650
I307
aI377
aI378
aI392
aI408
aI429
aI501
aI581
aI622
asVMN0000262255
p651
(lp652
I430
aI672
asVMN0000130689
p653
(lp654
I298
asVMN0000138699
p655
(lp656
I515
asVMN0000183311
p657
(lp658
I332
asVMN0000072041
p659
(lp660
I305
aI390
aI394
aI456
aI531
aI552
aI625
asVMN0000816538
p661
(lp662
I609
asVMN0000064303
p663
(lp664
I105
asVMN0000738402
p665
(lp666
I111
asVMN0000045313
p667
(lp668
I251
asVMN0000768328
p669
(lp670
I253
asVMN0000048903
p671
(lp672
I372
asVMN0000038805
p673
(lp674
I12
as.