ccollections
deque
p1
((lp2
VMN0000892775
p3
aVMN0000836103
p4
aVMN0000052062
p5
aVMN0000617613
p6
aVMN0000231013
p7
aVMN0000286866
p8
aVMN0000216348
p9
aVMN0000241762
p10
aVMN0000806336
p11
aVMN0000987481
p12
aVMN0000214523
p13
aVMN0001254906
p14
aVMN0000607105
p15
aVMN0000006566
p16
aVMN0000672918
p17
aVMN0000274520
p18
aVMN0000564740
p19
aVMN0000216348
p20
aVMN0000267411
p21
aVMN0000220312
p22
aVMN0000269247
p23
aVMN0000617536
p24
aVMN0000741731
p25
aVMN0000268161
p26
aVMN0000181725
p27
aVMN0000481008
p28
aVMN0000053730
p29
aVMN0000522622
p30
aVMN0000752211
p31
aVMN0000722448
p32
aVMN0000834292
p33
aVMN0001393036
p34
aVMN0000216318
p35
aVMN0000472238
p36
aVMN0000219630
p37
aVMN0000194554
p38
aVMN0000376793
p39
aVMN0000284882
p40
aVMN0000992833
p41
aVMN0000178284
p42
aVMN0000080664
p43
aVMN0000276626
p44
aVMN0000462105
p45
aVMN0000773121
p46
aVMN0000808388
p47
aVMN0000226299
p48
aVMN0000151769
p49
aVMN0000530086
p50
aVMN0001874561
p51
aVMN0000476371
p52
aVMN0000169079
p53
aVMN0002086838
p54
aVMN0000436739
p55
aVMN0000615827
p56
aVMN0000814615
p57
aVMN0000767937
p58
aVMN0000748878
p59
aVMN0000313547
p60
aVMN0001014229
p61
aVMN0000213805
p62
aVMN0000887032
p63
aVMN0001756887
p64
aVMN0000811528
p65
aVMN0000773849
p66
aVMN0000376793
p67
aVMN0000937202
p68
aVMN0000358172
p69
aVMN0000502305
p70
aVMN0000307525
p71
aVMN0000663113
p72
aVMN0001292210
p73
aVMN0000191512
p74
aVMN0000962906
p75
aVMN0000224828
p76
aVMN0000356702
p77
aVMN0000079610
p78
aVMN0000837129
p79
aVMN0000837129
p80
aVMN0000742286
p81
aVMN0001785420
p82
aVMN0000080664
p83
aVMN0000024246
p84
aVMN0000837129
p85
aVMN0000356178
p86
aVMN0001172073
p87
aVMN0000159312
p88
aVMN0000570322
p89
aVMN0000619376
p90
aVMN0000920172
p91
aVMN0001413399
p92
aVMN0000539199
p93
aVMN0001965074
p94
aVMN0002320152
p95
aVMN0000302219
p96
aVMN0002063135
p97
aVMN0000227496
p98
aVMN0001896580
p99
aVMN0002327868
p100
aVMN0000319425
p101
aVMN0000950780
p102
aVMN0000734735
p103
aVMN0000984749
p104
aVMN0000140786
p105
aVMN0000946966
p106
aVMN0000480703
p107
aVMN0000480703
p108
aVMN0000949025
p109
aVMN0000321592
p110
aVMN0000064698
p111
aVMN0000656021
p112
aVMN0000138235
p113
aVMN0000742160
p114
aVMN0000890683
p115
aVMN0000808249
p116
aVMN0000922054
p117
aVMN0000597875
p118
aVMN0000513638
p119
aVMN0000109002
p120
aVMN0000084864
p121
aVMN0000754158
p122
aVMN0000952044
p123
aVMN0000112178
p124
aVMN0000239768
p125
aVMN0000620570
p126
aVMN0000169189
p127
aVMN0002009000
p128
aVMN0000829236
p129
aVMN0000279203
p130
aVMN0000439864
p131
aVMN0000227708
p132
aVMN0000001306
p133
aVMN0000577837
p134
aVMN0001291846
p135
aVMN0001532203
p136
aVMN0000190360
p137
aVMN0000359732
p138
aVMN0000012570
p139
aVMN0000031932
p140
aVMN0000188697
p141
aVMN0000499322
p142
aVMN0000948768
p143
aVMN0000405934
p144
aVMN0000867180
p145
aVMN0000301940
p146
aVMN0003164881
p147
aVMN0000792018
p148
aVMN0000529050
p149
aVMN0000151679
p150
aVMN0000918995
p151
aVMN0000673427
p152
aVMN0000167254
p153
aVMN0000687455
p154
aVMN0000870589
p155
aVMN0000930651
p156
aVMN0000145695
p157
aVMN0000103043
p158
aVMN0000276280
p159
aVMN0002130688
p160
aVMN0000794181
p161
aVMN0000209620
p162
aVMN0000641530
p163
aVMN0000240403
p164
aVMN0000392230
p165
aVMN0000645244
p166
aVMN0000239047
p167
aVMN0000740360
p168
aVMN0000284207
p169
aVMN0000516202
p170
aVMN0000064954
p171
aVMN0003174419
p172
aVMN0000952991
p173
aVMN0000159857
p174
aVMN0000745687
p175
aVMN0000295866
p176
aVMN0002534462
p177
aVMN0000210868
p178
aVMN0000492076
p179
aVMN0003241911
p180
aVMN0000301940
p181
aVMN0000149294
p182
aVMN0000857260
p183
aVMN0001453090
p184
aVMN0001256821
p185
aVMN0001372983
p186
aVMN0001453090
p187
aVMN0000615937
p188
aVMN0000047246
p189
aVMN0002137043
p190
aVMN0000110753
p191
aVMN0000000584
p192
aVMN0000057036
p193
aVMN0001867922
p194
aVMN0001328479
p195
aVMN0001792514
p196
aVMN0000035381
p197
aVMN0002286081
p198
aVMN0001594212
p199
aVMN0000195710
p200
aVMN0000195826
p201
aVMN0000348085
p202
aVMN0001007832
p203
aVMN0000092208
p204
aVMN0001527669
p205
aVMN0000168471
p206
aVMN0000934320
p207
aVMN0000578009
p208
aVMN0001478930
p209
aVMN0000649029
p210
aVMN0000681850
p211
aVMN0000482456
p212
aVMN0000395075
p213
aVMN0000170084
p214
aVMN0000378021
p215
aVMN0001538503
p216
aVMN0000053159
p217
aVMN0000319956
p218
aVMN0000936149
p219
aVMN0000451320
p220
aVMN0000864346
p221
aVMN0000329978
p222
aVMN0000310455
p223
aVMN0000408736
p224
aVMN0000461391
p225
aVMN0001405133
p226
aVMN0000257490
p227
aVMN0000751048
p228
aVMN0000193851
p229
aVMN0000803829
p230
aVMN0000077951
p231
aVMN0000017715
p232
aVMN0000263728
p233
aVMN0000865678
p234
aVMN0001649739
p235
aVMN0000662463
p236
aVMN0000809765
p237
aVMN0000299567
p238
aVMN0000158090
p239
aVMN0003241911
p240
aVMN0000714320
p241
aVMN0000802389
p242
aVMN0000066662
p243
aVMN0001265259
p244
aVMN0000228371
p245
aVMN0000133420
p246
aVMN0000037368
p247
aVMN0000435993
p248
aVMN0000852771
p249
aVMN0000933781
p250
aVMN0000632959
p251
aVMN0001374207
p252
aVMN0000732993
p253
aVMN0000193606
p254
aVMN0000623353
p255
aVMN0000921384
p256
aVMN0000052693
p257
aVMN0000035720
p258
aVMN0000563871
p259
aVMN0002393596
p260
aVMN0000055166
p261
aVMN0003316228
p262
aVMN0000929659
p263
aVMN0000730412
p264
aVMN0000671369
p265
aVMN0000806900
p266
aVMN0000085445
p267
aVMN0000276626
p268
aVMN0000086627
p269
aVMN0000942292
p270
aVMN0000329873
p271
aVMN0003081917
p272
aVMN0000628269
p273
aVMN0000395331
p274
aVMN0000495303
p275
aVMN0000146437
p276
aVMN0000832387
p277
aVMN0000067109
p278
aVMN0001209155
p279
aVMN0000159312
p280
aVMN0000931546
p281
aVMN0000237653
p282
aVMN0000471181
p283
aVMN0000212230
p284
aVMN0000002486
p285
aVMN0000567822
p286
aVMN0000237653
p287
aVMN0000750092
p288
aVMN0000173522
p289
aVMN0002406958
p290
aVMN0000825168
p291
aVMN0000502989
p292
aVMN0000297839
p293
aVMN0000182989
p294
aVMN0000216318
p295
aVMN0000667111
p296
aVMN0000126723
p297
aVMN0000769076
p298
aVMN0000172423
p299
aVMN0000174842
p300
aVMN0000784770
p301
aVMN0000390936
p302
aVMN0000038207
p303
aVMN0000080242
p304
aVMN0000196342
p305
aVMN0000263350
p306
aVMN0000807089
p307
aVMN0000608395
p308
aVMN0000192028
p309
aVMN0000421170
p310
aVMN0000195373
p311
aVMN0000152063
p312
aVMN0000004838
p313
aVMN0000674417
p314
aVMN0000539707
p315
aVMN0001453090
p316
aVMN0000238245
p317
aVMN0000066618
p318
aVMN0000193606
p319
aVMN0000847244
p320
aVMN0000481443
p321
aVMN0000186477
p322
aVMN0000450700
p323
aVMN0000928411
p324
aVMN0000254556
p325
aVMN0000153933
p326
aVMN0000520623
p327
aVMN0000303851
p328
aVMN0000180850
p329
aVMN0000340734
p330
aVMN0000357247
p331
aVMN0000506049
p332
aVMN0001591840
p333
aVMN0000249194
p334
aVMN0000140786
p335
aVMN0000802382
p336
aVMN0000049026
p337
aVMN0000460953
p338
aVMN0001769855
p339
aVMN0000855402
p340
aVMN0002186653
p341
aVMN0000643620
p342
aVMN0000305301
p343
aVMN0000066770
p344
aVMN0000167201
p345
aVMN0000077657
p346
aVMN0000271788
p347
aVMN0000135180
p348
aVMN0000292031
p349
aVMN0000678736
p350
aVMN0000066770
p351
aVMN0000608054
p352
aVMN0000077657
p353
aVMN0000325643
p354
aVMN0000292031
p355
aVMN0000162718
p356
aVMN0000986695
p357
aVMN0000484607
p358
aVMN0000462323
p359
aVMN0000331323
p360
aVMN0000129551
p361
aVMN0000592161
p362
aVMN0000836998
p363
aVMN0000022369
p364
aVMN0001211412
p365
aVMN0000717371
p366
aVMN0000515896
p367
aVMN0000457168
p368
aVMN0000387484
p369
aVMN0002599355
p370
aVMN0000404098
p371
aVMN0000078877
p372
aVMN0000374099
p373
aVMN0000325727
p374
aVMN0000491447
p375
aVMN0000622886
p376
aVMN0000491447
p377
aVMN0000622886
p378
aVMN0000023411
p379
aVMN0000080350
p380
aVMN0000173806
p381
aVMN0000024102
p382
aVMN0000306918
p383
aVMN0000409088
p384
aVMN0001643263
p385
aVMN0000006534
p386
aVMN0000394161
p387
aVMN0000784396
p388
aVMN0000456170
p389
aVMN0000203416
p390
aVMN0000945806
p391
aVMN0000578836
p392
aVMN0002653603
p393
aVMN0000888100
p394
aVMN0000751390
p395
aVMN0000537726
p396
aVMN0000165446
p397
aVMN0001638289
p398
aVMN0000946259
p399
aVMN0000772005
p400
aVMN0000192294
p401
aVMN0000548300
p402
aVMN0000808416
p403
aVMN0000937138
p404
aVMN0000080664
p405
aVMN0000276626
p406
aVMN0000329873
p407
aVMN0002543071
p408
aVMN0000892843
p409
aVMN0000007480
p410
aVMN0000856342
p411
aVMN0000191512
p412
aVMN0000551858
p413
aVMN0001534585
p414
aVMN0000921413
p415
aVMN0000583870
p416
aVMN0001164531
p417
aVMN0000283538
p418
aVMN0000246947
p419
aVMN0001179539
p420
aVMN0001381990
p421
aVMN0001190565
p422
aVMN0001231509
p423
aVMN0000634072
p424
aVMN0000023010
p425
aVMN0000148830
p426
aVMN0000057165
p427
aVMN0000254997
p428
aVMN0000038182
p429
aVMN0000146088
p430
aVMN0000740882
p431
aVMN0000833536
p432
aVMN0000014474
p433
aVMN0000632020
p434
aVMN0000066328
p435
aVMN0000011904
p436
aVMN0000851455
p437
aVMN0001281692
p438
aVMN0000014391
p439
aVMN0000925821
p440
aVMN0000737077
p441
aVMN0000180325
p442
aVMN0000068319
p443
aVMN0000936196
p444
aVMN0001164391
p445
aVMN0000628639
p446
aVMN0001164391
p447
aVMN0002839169
p448
aVMN0000952991
p449
aVMN0002836662
p450
aVMN0000058035
p451
aVMN0000847855
p452
aVMN0000663255
p453
aVMN0000890631
p454
aVMN0000125191
p455
aVMN0001526942
p456
aVMN0001775558
p457
aVMN0000899218
p458
aVMN0000220668
p459
aVMN0000848688
p460
aVMN0000588698
p461
aVMN0000977825
p462
aVMN0000582930
p463
aVMN0000400836
p464
aVMN0000724877
p465
aVMN0000538536
p466
aVMN0000595933
p467
aVMN0000024800
p468
aVMN0000723412
p469
aVMN0001340026
p470
aVMN0000181124
p471
aVMN0000679889
p472
aVMN0000100627
p473
aVMN0000255910
p474
aVMN0000259447
p475
aVMN0001563401
p476
aVMN0000073682
p477
aVMN0000893632
p478
aVMN0000277230
p479
aVMN0000787464
p480
aVMN0000620759
p481
aVMN0000115140
p482
aVMN0000670088
p483
aVMN0000933354
p484
aVMN0000460953
p485
aVMN0001999334
p486
aVMN0000753836
p487
aVMN0001503735
p488
aVMN0000003412
p489
aVMN0000039300
p490
aVMN0000304141
p491
aVMN0000469688
p492
aVMN0000852771
p493
aVMN0000037787
p494
aVMN0000195040
p495
aVMN0000208473
p496
aVMN0000672162
p497
aVMN0000558588
p498
aVMN0000288154
p499
aVMN0000159583
p500
aVMN0000232891
p501
aVMN0000093128
p502
aVMN0000015288
p503
aVMN0000989222
p504
aVMN0000681171
p505
aVMN0000377982
p506
aVMN0000499399
p507
aVMN0000379074
p508
aVMN0001433113
p509
aVMN0002401289
p510
aVMN0000332335
p511
aVMN0000657170
p512
aVMN0000319354
p513
aVMN0000634072
p514
aVMN0001343538
p515
aVMN0000319354
p516
aVMN0000962928
p517
aVMN0000004399
p518
aVMN0000696445
p519
aVMN0000789211
p520
aVMN0000184923
p521
aVMN0000947766
p522
aVMN0001671845
p523
aVMN0000623447
p524
aVMN0001838346
p525
aVMN0000187013
p526
aVMN0000478246
p527
aVMN0000075008
p528
aVMN0000060144
p529
aVMN0000560916
p530
aVMN0000827323
p531
aVMN0000794190
p532
aVMN0000251908
p533
aVMN0001055654
p534
aVMN0000601903
p535
aVMN0003236942
p536
aVMN0001629657
p537
aVMN0003052730
p538
aVMN0000301940
p539
aVMN0000375023
p540
aVMN0000582439
p541
aVMN0000025857
p542
aVMN0000551858
p543
aVMN0000099032
p544
aVMN0000048507
p545
aVMN0000573978
p546
aVMN0000049695
p547
aVMN0001642572
p548
aVMN0002167380
p549
aVMN0001199417
p550
aVMN0000532442
p551
aVMN0000853631
p552
aVMN0000144541
p553
aVMN0000585105
p554
aVMN0000081919
p555
aVMN0000352992
p556
aVMN0000015779
p557
aVMN0000112115
p558
aVMN0000998476
p559
aVMN0000104535
p560
aVMN0000520068
p561
aVMN0000011815
p562
aVMN0000782340
p563
aVMN0000290387
p564
aVMN0002355957
p565
aVMN0001830361
p566
aVMN0000060425
p567
aVMN0000435993
p568
aVMN0000746407
p569
aVMN0000168113
p570
aVMN0000573978
p571
aVMN0000742980
p572
aVMN0000122252
p573
aVMN0000766045
p574
aVMN0000409985
p575
aVMN0000296879
p576
aVMN0000166105
p577
aVMN0002772593
p578
aVMN0000819430
p579
aVMN0000962275
p580
aVMN0000784396
p581
aVMN0000761758
p582
aVMN0000056617
p583
aVMN0000103453
p584
aVMN0000826354
p585
aVMN0000282071
p586
aVMN0000674740
p587
aVMN0002171423
p588
aVMN0001841880
p589
aVMN0002640402
p590
aVMN0000985939
p591
aVMN0000585165
p592
aVMN0002098230
p593
aVMN0000178166
p594
aVMN0002416748
p595
aVMN0000806079
p596
aVMN0000495668
p597
aVMN0000671517
p598
aVMN0000745485
p599
aVMN0000374594
p600
aVMN0000677857
p601
aVMN0000235064
p602
aVMN0001175447
p603
aVMN0000127373
p604
aVMN0000272633
p605
aVMN0000147943
p606
aVMN0000955670
p607
aVMN0000358986
p608
aVMN0001806723
p609
aVMN0001427042
p610
aVMN0001241955
p611
aVMN0000121073
p612
aVMN0000203284
p613
aVMN0000048123
p614
aVMN0001003802
p615
aVMN0000093565
p616
aVMN0000592161
p617
aVMN0001059293
p618
aVMN0000281729
p619
aVMN0000146825
p620
aVMN0000525326
p621
aVMN0000988309
p622
aVMN0000232493
p623
aVMN0000577358
p624
aVMN0000740746
p625
aVMN0000216586
p626
aVMN0000085399
p627
aVMN0000151004
p628
aVMN0000475334
p629
aVMN0000169341
p630
aVMN0000266759
p631
aVMN0000183512
p632
aVMN0000655746
p633
aVMN0001009083
p634
aVMN0000060324
p635
aVMN0000549401
p636
aVMN0000220967
p637
aVMN0000496351
p638
aVMN0001327881
p639
aVMN0000496351
p640
aVMN0001475290
p641
aVMN0000678420
p642
aVMN0000161076
p643
aVMN0000603473
p644
aVMN0000022558
p645
aVMN0000399258
p646
aVMN0000692974
p647
aVMN0000529050
p648
aVMN0000457487
p649
aVMN0000231213
p650
aVMN0000990384
p651
aVMN0000467241
p652
aVMN0000155921
p653
aVMN0000080664
p654
aVMN0000234192
p655
aVMN0000592161
p656
aVMN0000387851
p657
aVMN0000984532
p658
aVMN0000334216
p659
aVMN0000220002
p660
aVMN0000457544
p661
aVMN0000094142
p662
aVMN0000095506
p663
aVMN0000652479
p664
aVMN0000197355
p665
aVMN0000084433
p666
aVMN0002772593
p667
aVMN0000576436
p668
aVMN0000580930
p669
aVMN0000431653
p670
aVMN0000186125
p671
aVMN0003424146
p672
aVMN0000133420
p673
aVMN0000208929
p674
aVMN0000475334
p675
aVMN0000185999
p676
aVMN0000020028
p677
aVMN0000014757
p678
aVMN0000491288
p679
aVMN0000105336
p680
aVMN0000955647
p681
aVMN0001377562
p682
aVMN0000162728
p683
aVMN0000079925
p684
aVMN0000033918
p685
aVMN0002181306
p686
aVMN0001839912
p687
aVMN0000259186
p688
aVMN0000609160
p689
aVMN0000387300
p690
aVMN0000254647
p691
aVMN0000153443
p692
aVMN0000853655
p693
aVMN0003387570
p694
aVMN0000771382
p695
aVMN0000481155
p696
aVMN0000590044
p697
aVMN0000165303
p698
aVMN0000855917
p699
aVMN0000018487
p700
aVMN0001930299
p701
aVMN0000328351
p702
aVMN0000070194
p703
aVMN0000806331
p704
aVMN0001379964
p705
aVMN0000531346
p706
aVMN0001299220
p707
aVMN0000351908
p708
aVMN0000924792
p709
aVMN0000951443
p710
aVMN0000073040
p711
aVMN0002849018
p712
aVMN0000108273
p713
aVMN0002061191
p714
aVMN0003329175
p715
aVMN0000340462
p716
aVMN0000600720
p717
aVMN0000166848
p718
aVMN0000155170
p719
aVMN0000325443
p720
aVMN0000937628
p721
aVMN0000846357
p722
aVMN0000480508
p723
aVMN0000825168
p724
aVMN0000471887
p725
aVMN0000106051
p726
aVMN0000261422
p727
aVMN0000660795
p728
aVMN0000741307
p729
aVMN0000150768
p730
aVMN0000553562
p731
aVMN0000393607
p732
aVMN0000946676
p733
aVMN0000661697
p734
aVMN0000550591
p735
aVMN0000480508
p736
aVMN0000106199
p737
aVMN0000140270
p738
aVMN0001754903
p739
aVMN0001218125
p740
aVMN0000033124
p741
aVMN0003313123
p742
aVMN0000936144
p743
aVMN0000566988
p744
aVMN0000298766
p745
aVMN0000048123
p746
aVMN0000870938
p747
aVMN0000025475
p748
aVMN0000655346
p749
aVMN0000018896
p750
aVMN0001453090
p751
aVMN0000347886
p752
aVMN0000241499
p753
aVMN0000327155
p754
aVMN0000980357
p755
aVMN0000864556
p756
aVMN0000994492
p757
aVMN0000492670
p758
aVMN0000047246
p759
aVMN0000805310
p760
aVMN0000817640
p761
aVMN0002129504
p762
aVMN0000952322
p763
aVMN0000225309
p764
aVMN0000572310
p765
aVMN0001533765
p766
aVMN0000484880
p767
aVMN0001413232
p768
aVMN0000251474
p769
aVMN0001553019
p770
aVMN0000193119
p771
aVMN0000773484
p772
aVMN0001929311
p773
aVMN0000127047
p774
aVMN0000230819
p775
aVMN0001004648
p776
aVMN0000806336
p777
aVMN0000065538
p778
aVMN0000045678
p779
aVMN0000805216
p780
aVMN0000561478
p781
aVMN0000184163
p782
aVMN0000177105
p783
aVMN0000943755
p784
aVMN0000735310
p785
aVMN0000409088
p786
aVMN0000338474
p787
aVMN0000941061
p788
aVMN0000214408
p789
aVMN0000847960
p790
aVMN0000531238
p791
aVMN0000529050
p792
aVMN0000922398
p793
aVMN0000118128
p794
aVMN0000074857
p795
aVMN0000791480
p796
aVMN0000013432
p797
aVMN0000034402
p798
aVMN0000739217
p799
aVMN0000138537
p800
aVMN0000655392
p801
aVMN0000100757
p802
aVMN0000130930
p803
aVMN0000075948
p804
aVMN0000577148
p805
aVMN0000050691
p806
aVMN0000485641
p807
aVMN0000541307
p808
aVMN0000006534
p809
aVMN0000402483
p810
aVMN0000058400
p811
aVMN0000402667
p812
aVMN0000936343
p813
aVMN0001272051
p814
aVMN0000378436
p815
aVMN0000776562
p816
aVMN0001543899
p817
aVMN0000391276
p818
aVMN0002546653
p819
aVMN0003176102
p820
aVMN0002599355
p821
aVMN0000391276
p822
aVMN0002599355
p823
aVMN0000241004
p824
aVMN0000595559
p825
aVMN0000608054
p826
aVMN0000340659
p827
aVMN0000360948
p828
aVMN0002034242
p829
aVMN0000628541
p830
aVMN0000799759
p831
aVMN0000259270
p832
aVMN0000132772
p833
aVMN0000762826
p834
aVMN0000761109
p835
aVMN0000618726
p836
aVMN0000014542
p837
aVMN0002061191
p838
aVMN0000129254
p839
aVMN0000652288
p840
aVMN0000118717
p841
aVMN0000778959
p842
aVMN0000639621
p843
aVMN0000795054
p844
aVMN0001949336
p845
aVMN0000106562
p846
aVMN0000265234
p847
aVMN0000644168
p848
aVMN0000026129
p849
aVMN0000291131
p850
aVMN0000114112
p851
aVMN0000402169
p852
aVMN0000619348
p853
aVMN0000174166
p854
aVMN0000932022
p855
aVMN0000114112
p856
aVMN0000402169
p857
aVMN0000174166
p858
aVMN0000932022
p859
aVMN0000082639
p860
aVMN0000555695
p861
aVMN0000049026
p862
aVMN0000412128
p863
aVMN0000573100
p864
aVMN0000552994
p865
aVMN0000277764
p866
aVMN0001379627
p867
aVMN0000153981
p868
aVMN0001189422
p869
aVMN0001649323
p870
aVMN0002154956
p871
aVMN0000567863
p872
aVMN0000751691
p873
aVMN0001186756
p874
aVMN0000010159
p875
aVMN0000669087
p876
aVMN0001613662
p877
aVMN0000159406
p878
aVMN0000208468
p879
aVMN0000396363
p880
aVMN0000755296
p881
aVMN0000354631
p882
aVMN0000831009
p883
aVMN0000638960
p884
aVMN0000118384
p885
aVMN0000573100
p886
aVMN0000497236
p887
aVMN0000358055
p888
aVMN0000005062
p889
aVMN0002514568
p890
aVMN0002495569
p891
aVMN0003250982
p892
aVMN0000672575
p893
aVMN0000853999
p894
aVMN0001397177
p895
aVMN0000354883
p896
aVMN0000007764
p897
aVMN0000845895
p898
aVMN0001371793
p899
aVMN0000870573
p900
aVMN0000045698
p901
aVMN0000100822
p902
aVMN0000812719
p903
aVMN0002939023
p904
aVMN0000948358
p905
aVMN0000165068
p906
aVMN0000550035
p907
aVMN0000341775
p908
aVMN0000468911
p909
aVMN0000147762
p910
aVMN0000679703
p911
aVMN0002338924
p912
aVMN0000562949
p913
aVMN0002149931
p914
aVMN0001025751
p915
aVMN0002460086
p916
aVMN0000191163
p917
aVMN0000024102
p918
aVMN0000142834
p919
aVMN0000754075
p920
aVMN0000600341
p921
aVMN0000024102
p922
aVMN0000161631
p923
aVMN0000165446
p924
aVMN0000221722
p925
aVMN0000688900
p926
aVMN0000414700
p927
aVMN0000456170
p928
aVMN0000028406
p929
aVMN0000103453
p930
aVMN0000036641
p931
aVMN0002772593
p932
aVMN0000526302
p933
aVMN0002309912
p934
aVMN0000617203
p935
aVMN0000275916
p936
aVMN0001487665
p937
aVMN0000693561
p938
aVMN0000928019
p939
aVMN0000015325
p940
aVMN0000998391
p941
aVMN0000604783
p942
aVMN0001513859
p943
aVMN0001499984
p944
aVMN0001551964
p945
aVMN0001302878
p946
aVMN0000963992
p947
aVMN0000723412
p948
aVMN0000784396
p949
aVMN0000033738
p950
aVMN0000004558
p951
aVMN0000392796
p952
aVMN0000256951
p953
aVMN0000383056
p954
aVMN0000131201
p955
aVMN0000046986
p956
aVMN0000760173
p957
aVMN0000662664
p958
aVMN0000549837
p959
aVMN0000169480
p960
aVMN0000755032
p961
aVMN0000225768
p962
aVMN0000221179
p963
aVMN0000940507
p964
aVMN0001222635
p965
aVMN0000733487
p966
aVMN0000267720
p967
aVMN0000043245
p968
aVMN0000137401
p969
aVMN0000122198
p970
aVMN0000243777
p971
aVMN0000695189
p972
aVMN0000182980
p973
aVMN0000302823
p974
aVMN0000057280
p975
aVMN0001393036
p976
aVMN0000194586
p977
aVMN0000789462
p978
aVMN0000761109
p979
aVMN0000401903
p980
aVMN0001002568
p981
aVMN0000367188
p982
aVMN0001019810
p983
aVMN0000672688
p984
aVMN0000295970
p985
aVMN0001322625
p986
aVMN0002772593
p987
aVMN0000926869
p988
aVMN0000578836
p989
aVMN0000130564
p990
aVMN0000688900
p991
aVMN0000962640
p992
aVMN0003142949
p993
aVMN0000383484
p994
aVMN0000771300
p995
aVMN0000205185
p996
aVMN0000303061
p997
aVMN0000266759
p998
aVMN0000122206
p999
aVMN0000771261
p1000
aVMN0000580539
p1001
aVMN0000229880
p1002
aVMN0000002244
p1003
aVMN0000001418
p1004
aVMN0000365137
p1005
aVMN0000186425
p1006
aVMN0000794054
p1007
aVMN0000782813
p1008
aVMN0000784683
p1009
aVMN0000367188
p1010
aVMN0000749743
p1011
aVMN0000922398
p1012
aVMN0000575264
p1013
aVMN0001558399
p1014
aVMN0000944700
p1015
aVMN0000617613
p1016
aVMN0000996127
p1017
aVMN0000763551
p1018
aVMN0000404781
p1019
aVMN0000069520
p1020
aVMN0000764818
p1021
aVMN0000622886
p1022
aVMN0000281729
p1023
aVMN0000093456
p1024
aVMN0000568319
p1025
aVMN0000472102
p1026
aVMN0001002889
p1027
aVMN0000993271
p1028
aVMN0000373966
p1029
aVMN0001611913
p1030
aVMN0001689275
p1031
aVMN0000030752
p1032
aVMN0002946658
p1033
aVMN0003225602
p1034
aVMN0002739175
p1035
aVMN0000139890
p1036
aVMN0000181817
p1037
aVMN0000382487
p1038
aVMN0000133957
p1039
aVMN0000200448
p1040
aVMN0000004141
p1041
aVMN0001999334
p1042
aVMN0001848128
p1043
aVMN0000293350
p1044
aVMN0000127451
p1045
aVMN0000835952
p1046
aVMN0000014942
p1047
aVMN0003039044
p1048
aVMN0000096977
p1049
aVMN0000109421
p1050
aVMN0000789462
p1051
aVMN0000990384
p1052
aVMN0000287087
p1053
aVMN0000166796
p1054
aVMN0000812941
p1055
aVMN0000789514
p1056
aVMN0000805740
p1057
aVMN0000155453
p1058
aVMN0002285509
p1059
aVMN0001398624
p1060
aVMN0000853509
p1061
aVMN0000075801
p1062
aVMN0000179126
p1063
aVMN0000745568
p1064
aVMN0000131201
p1065
aVMN0000810592
p1066
aVMN0000636394
p1067
aVMN0002031918
p1068
aVMN0000495547
p1069
aVMN0000017580
p1070
aVMN0000151844
p1071
aVMN0000817506
p1072
aVMN0000231997
p1073
aVMN0000073839
p1074
aVMN0000011193
p1075
aVMN0000219446
p1076
aVMN0001535255
p1077
aVMN0000125851
p1078
aVMN0000169029
p1079
aVMN0000673580
p1080
aVMN0000397697
p1081
aVMN0000116087
p1082
aVMN0000090376
p1083
aVMN0000936195
p1084
aVMN0000842269
p1085
aVMN0001196134
p1086
aVMN0000479540
p1087
aVMN0000201983
p1088
aVMN0000444140
p1089
aVMN0000548397
p1090
aVMN0000142834
p1091
aVMN0000584378
p1092
aVMN0001536402
p1093
aVMN0000095460
p1094
aVMN0001648504
p1095
aVMN0000540007
p1096
aVMN0000116087
p1097
aVMN0000563834
p1098
aVMN0000090160
p1099
aVMN0000530919
p1100
aVMN0000787702
p1101
aVMN0001674854
p1102
aVMN0000132505
p1103
aVMN0001987603
p1104
aVMN0000666117
p1105
aVMN0000039406
p1106
aVMN0000188790
p1107
aVMN0000171969
p1108
aVMN0000046626
p1109
aVMN0001769887
p1110
aVMN0000619376
p1111
aVMN0000852718
p1112
aVMN0000754587
p1113
aVMN0000753254
p1114
aVMN0000105845
p1115
aVMN0001353156
p1116
aVMN0000166575
p1117
aVMN0000685031
p1118
aVMN0000468911
p1119
aVMN0000658950
p1120
aVMN0000001927
p1121
aVMN0000143485
p1122
aVMN0000001418
p1123
aVMN0003043787
p1124
aVMN0002142078
p1125
aVMN0000098183
p1126
aVMN0000852405
p1127
aVMN0000803500
p1128
aVMN0000803500
p1129
aVMN0000069707
p1130
aVMN0000126025
p1131
aVMN0000588592
p1132
aVMN0001187402
p1133
aVMN0003308665
p1134
aVMN0003262996
p1135
aVMN0000331323
p1136
aVMN0000997588
p1137
aVMN0000592161
p1138
aVMN0000567769
p1139
aVMN0000600637
p1140
aVMN0000094934
p1141
aVMN0000752151
p1142
aVMN0001036630
p1143
aVMN0000634072
p1144
aVMN0000266759
p1145
aVMN0000677857
p1146
aVMN0001036630
p1147
aVMN0000611129
p1148
aVMN0002088704
p1149
aVMN0000665324
p1150
aVMN0000598095
p1151
aVMN0000953889
p1152
aVMN0000451257
p1153
aVMN0000775666
p1154
aVMN0000111462
p1155
aVMN0000335940
p1156
aVMN0000309498
p1157
aVMN0000088776
p1158
aVMN0000893987
p1159
aVMN0000062729
p1160
aVMN0001743501
p1161
aVMN0000560554
p1162
aVMN0002495569
p1163
aVMN0003270017
p1164
aVMN0001330002
p1165
aVMN0000235923
p1166
aVMN0000015405
p1167
aVMN0000725632
p1168
aVMN0000217157
p1169
aVMN0000059177
p1170
aVMN0000821179
p1171
aVMN0000572106
p1172
aVMN0000312126
p1173
aVMN0003237096
p1174
aVMN0000581699
p1175
aVMN0000223373
p1176
aVMN0000424302
p1177
aVMN0000216294
p1178
aVMN0000491786
p1179
aVMN0000142767
p1180
aVMN0000118189
p1181
aVMN0000580058
p1182
aVMN0000144349
p1183
aVMN0000595933
p1184
aVMN0000049163
p1185
aVMN0000467051
p1186
aVMN0003068662
p1187
aVMN0000136783
p1188
aVMN0000134297
p1189
aVMN0000922704
p1190
aVMN0000073682
p1191
aVMN0001019810
p1192
aVMN0001085761
p1193
aVMN0000725395
p1194
aVMN0000120489
p1195
aVMN0001807061
p1196
aVMN0000941422
p1197
aVMN0003238766
p1198
aVMN0000558588
p1199
aVMN0000288154
p1200
aVMN0000036392
p1201
aVMN0000661827
p1202
aVMN0000181819
p1203
aVMN0000105422
p1204
aVMN0000589630
p1205
aVMN0000177690
p1206
aVMN0000340462
p1207
aVMN0000888100
p1208
aVMN0001180128
p1209
aVMN0000138930
p1210
aVMN0000286530
p1211
aVMN0000190632
p1212
aVMN0000239655
p1213
aVMN0000792051
p1214
aVMN0000922811
p1215
aVMN0000552576
p1216
aVMN0000809604
p1217
aVMN0000011970
p1218
aVMN0000594739
p1219
aVMN0000059177
p1220
aVMN0002395641
p1221
aVMN0000061549
p1222
aVMN0000062622
p1223
aVMN0002122871
p1224
aVMN0003423919
p1225
aVMN0000744111
p1226
aVMN0000065706
p1227
aVMN0000689801
p1228
aVMN0000806429
p1229
aVMN0001494515
p1230
aVMN0002288400
p1231
aVMN0000284660
p1232
aVMN0000121073
p1233
aVMN0000027864
p1234
aVMN0001016979
p1235
aVMN0000020303
p1236
aVMN0000169279
p1237
aVMN0000771838
p1238
aVMN0002444397
p1239
aVMN0000106540
p1240
aVMN0000816985
p1241
aVMN0000976483
p1242
aVMN0001991124
p1243
aVMN0000139418
p1244
aVMN0001006472
p1245
aVMN0001006470
p1246
aVMN0000926869
p1247
aVMN0000821966
p1248
aVMN0000554486
p1249
aVMN0000939652
p1250
aVMN0000360500
p1251
aVMN0000139212
p1252
aVMN0000770384
p1253
aVMN0000049026
p1254
aVMN0000325443
p1255
aVMN0000620995
p1256
aVMN0000186477
p1257
aVMN0000048227
p1258
aVMN0000616369
p1259
aVMN0000508576
p1260
aVMN0000158839
p1261
aVMN0002895556
p1262
aVMN0000805156
p1263
aVMN0000463315
p1264
aVMN0000749462
p1265
aVMN0000888100
p1266
aVMN0000485525
p1267
aVMN0000577358
p1268
aVMN0000174155
p1269
aVMN0000835506
p1270
aVMN0001545422
p1271
aVMN0001530207
p1272
aVMN0000029084
p1273
aVMN0000338152
p1274
aVMN0002935591
p1275
aVMN0000239655
p1276
aVMN0001068097
p1277
aVMN0000157112
p1278
aVMN0000281729
p1279
aVMN0000773024
p1280
aVMN0000086774
p1281
aVMN0000632209
p1282
aVMN0000950372
p1283
aVMN0000593334
p1284
aVMN0000696073
p1285
aVMN0000807457
p1286
aVMN0001200676
p1287
aVMN0000016963
p1288
aVMN0000790846
p1289
aVMN0000294152
p1290
aVMN0000540007
p1291
aVMN0000328058
p1292
aVMN0000258567
p1293
aVMN0000823561
p1294
aVMN0000563834
p1295
aVMN0000258903
p1296
aVMN0000096876
p1297
aVMN0000480508
p1298
aVMN0000612095
p1299
aVMN0000980758
p1300
aVMN0000307332
p1301
aVMN0000954442
p1302
aVMN0000151988
p1303
aVMN0000314420
p1304
aVMN0002453801
p1305
aVMN0003223082
p1306
aVMN0000868063
p1307
aVMN0000540139
p1308
aVMN0000000238
p1309
aVMN0000759440
p1310
aVMN0000188981
p1311
aVMN0000282544
p1312
aVMN0000090160
p1313
aVMN0000014800
p1314
aVMN0000282144
p1315
aVMN0000037973
p1316
aVMN0000014942
p1317
aVMN0000168310
p1318
aVMN0000228462
p1319
aVMN0000660797
p1320
aVMN0000282144
p1321
aVMN0000024800
p1322
aVMN0000318559
p1323
aVMN0000157849
p1324
aVMN0000931546
p1325
aVMN0000058355
p1326
aVMN0000360186
p1327
aVMN0000055778
p1328
aVMN0000817836
p1329
aVMN0000241226
p1330
aVMN0000421618
p1331
aVMN0000136488
p1332
aVMN0000859571
p1333
aVMN0000269036
p1334
aVMN0000400961
p1335
aVMN0000529050
p1336
aVMN0000511936
p1337
aVMN0000401338
p1338
aVMN0000071373
p1339
aVMN0003020237
p1340
aVMN0003387570
p1341
aVMN0000884264
p1342
aVMN0000147481
p1343
aVMN0000975914
p1344
aVMN0001240319
p1345
aVMN0000521600
p1346
aVMN0000487534
p1347
aVMN0001649323
p1348
aVMN0000169906
p1349
aVMN0000570165
p1350
aVMN0000469519
p1351
aVMN0000847374
p1352
aVMN0000791618
p1353
aVMN0000178852
p1354
aVMN0000143485
p1355
aVMN0000351749
p1356
aVMN0000142545
p1357
aVMN0000765011
p1358
aVMN0000953430
p1359
aVMN0000024761
p1360
aVMN0000369772
p1361
aVMN0000851972
p1362
aVMN0000754075
p1363
aVMN0000955488
p1364
aVMN0001830361
p1365
aVMN0000449578
p1366
aVMN0001543933
p1367
aVMN0000583935
p1368
aVMN0000196629
p1369
aVMN0000199774
p1370
aVMN0000046460
p1371
aVMN0000199229
p1372
aVMN0000592898
p1373
aVMN0000899125
p1374
aVMN0000811622
p1375
aVMN0000669802
p1376
aVMN0000410029
p1377
aVMN0000773024
p1378
aVMN0000577358
p1379
aVMN0001379964
p1380
aVMN0000653616
p1381
aVMN0000230667
p1382
aVMN0000695189
p1383
aVMN0000814340
p1384
aVMN0000121073
p1385
aVMN0000116465
p1386
aVMN0000733487
p1387
aVMN0000569256
p1388
aVMN0000004592
p1389
aVMN0000066458
p1390
aVMN0000373770
p1391
aVMN0000108273
p1392
aVMN0000205009
p1393
aVMN0000282822
p1394
aVMN0002634574
p1395
aVMN0000802389
p1396
aVMN0000750358
p1397
aVMN0000761108
p1398
aVMN0000111176
p1399
aVMN0000752992
p1400
aVMN0000771916
p1401
aVMN0000550583
p1402
aVMN0000633152
p1403
aVMN0000577515
p1404
aVMN0001312694
p1405
aVMN0000203592
p1406
aVMN0000150502
p1407
aVMN0001509227
p1408
aVMN0000764225
p1409
aVMN0000130922
p1410
aVMN0000403253
p1411
aVMN0000152228
p1412
aVMN0001189422
p1413
aVMN0002355957
p1414
aVMN0000234647
p1415
aVMN0000469519
p1416
aVMN0000913490
p1417
aVMN0000551762
p1418
aVMN0000390185
p1419
aVMN0001173627
p1420
aVMN0000484877
p1421
aVMN0000598373
p1422
aVMN0000744328
p1423
aVMN0000184703
p1424
aVMN0000810689
p1425
aVMN0000351749
p1426
aVMN0000546738
p1427
aVMN0000755792
p1428
aVMN0000202010
p1429
aVMN0000797707
p1430
aVMN0000108554
p1431
aVMN0001016154
p1432
aVMN0000789514
p1433
aVMN0000932299
p1434
aVMN0002717160
p1435
aVMN0001180258
p1436
aVMN0000155453
p1437
aVMN0000161076
p1438
aVMN0002564904
p1439
aVMN0000012180
p1440
aVMN0000401903
p1441
aVMN0002156464
p1442
aVMN0000349445
p1443
aVMN0000772312
p1444
aVMN0000787373
p1445
aVMN0000000150
p1446
aVMN0000022909
p1447
aVMN0000363480
p1448
aVMN0000575695
p1449
aVMN0000254133
p1450
aVMN0000001611
p1451
aVMN0000368368
p1452
aVMN0000788582
p1453
aVMN0000660677
p1454
aVMN0000073204
p1455
aVMN0000078758
p1456
aVMN0000789514
p1457
aVMN0000804430
p1458
aVMN0000037865
p1459
aVMN0001984584
p1460
aVMN0000831733
p1461
aVMN0000933898
p1462
aVMN0000546738
p1463
aVMN0000019740
p1464
aVMN0000019740
p1465
aVMN0000764998
p1466
aVMN0000107556
p1467
aVMN0000739437
p1468
aVMN0000078758
p1469
aVMN0000190235
p1470
aVMN0000121073
p1471
aVMN0000057188
p1472
aVMN0000550583
p1473
aVMN0000691371
p1474
aVMN0001059293
p1475
aVMN0000491642
p1476
aVMN0000505863
p1477
aVMN0000467241
p1478
aVMN0001409777
p1479
aVMN0000168674
p1480
aVMN0000946769
p1481
aVMN0002372262
p1482
aVMN0000388160
p1483
aVMN0000167610
p1484
aVMN0000340678
p1485
aVMN0000802912
p1486
aVMN0000520068
p1487
aVMN0000816107
p1488
aVMN0001858871
p1489
aVMN0000853999
p1490
aVMN0001856189
p1491
aVMN0000371134
p1492
aVMN0000726942
p1493
aVMN0000736748
p1494
aVMN0000767558
p1495
aVMN0000282144
p1496
aVMN0000607053
p1497
aVMN0000136394
p1498
aVMN0003168095
p1499
aVMN0000080902
p1500
aVMN0000282144
p1501
aVMN0000087922
p1502
aVMN0000502098
p1503
aVMN0000082994
p1504
aVMN0000283289
p1505
aVMN0000636930
p1506
aVMN0000472102
p1507
aVMN0001032412
p1508
aVMN0000776576
p1509
aVMN0000422882
p1510
aVMN0000070026
p1511
aVMN0000139220
p1512
aVMN0000963992
p1513
aVMN0000808388
p1514
aVMN0000840215
p1515
aVMN0001343406
p1516
aVMN0000723412
p1517
aVMN0000070026
p1518
aVMN0000017580
p1519
aVMN0000123363
p1520
aVMN0000366863
p1521
aVMN0000057073
p1522
aVMN0000581400
p1523
aVMN0000577358
p1524
aVMN0003117973
p1525
aVMN0000847970
p1526
aVMN0000460366
p1527
aVMN0001927776
p1528
aVMN0000004451
p1529
aVMN0000602152
p1530
aVMN0000092107
p1531
aVMN0002886923
p1532
aVMN0002658876
p1533
aVMN0000126922
p1534
aVMN0000187422
p1535
aVMN0000480638
p1536
aVMN0000631485
p1537
aVMN0000056344
p1538
aVMN0000983190
p1539
aVMN0002078292
p1540
aVMN0000281631
p1541
aVMN0000134411
p1542
aVMN0000751982
p1543
aVMN0000211155
p1544
aVMN0000169189
p1545
aVMN0000105422
p1546
aVMN0000250896
p1547
aVMN0000485881
p1548
aVMN0000112204
p1549
aVMN0001509492
p1550
aVMN0000751623
p1551
aVMN0000307102
p1552
aVMN0000399785
p1553
aVMN0000490860
p1554
aVMN0000822913
p1555
aVMN0000027136
p1556
aVMN0000106167
p1557
aVMN0000101575
p1558
aVMN0000219562
p1559
aVMN0000747322
p1560
aVMN0000741671
p1561
aVMN0000274198
p1562
aVMN0000775026
p1563
aVMN0000807178
p1564
aVMN0000145443
p1565
aVMN0000049026
p1566
aVMN0000765068
p1567
aVMN0000963543
p1568
aVMN0000796914
p1569
aVMN0000946560
p1570
aVMN0001277536
p1571
aVMN0000933809
p1572
aVMN0000610828
p1573
aVMN0000270635
p1574
aVMN0000762270
p1575
aVMN0000153443
p1576
aVMN0000773442
p1577
aVMN0000163264
p1578
aVMN0000307332
p1579
aVMN0000096752
p1580
aVMN0001172184
p1581
aVMN0000594426
p1582
aVMN0001214716
p1583
aVMN0000948091
p1584
aVMN0000409088
p1585
aVMN0000254535
p1586
aVMN0000810946
p1587
aVMN0000449690
p1588
aVMN0000118503
p1589
aVMN0000037026
p1590
aVMN0000073906
p1591
aVMN0000087113
p1592
aVMN0000050691
p1593
aVMN0000019029
p1594
aVMN0000891928
p1595
aVMN0000789211
p1596
aVMN0002203931
p1597
aVMN0000348039
p1598
aVMN0000187752
p1599
aVMN0000251719
p1600
aVMN0001451327
p1601
aVMN0001496955
p1602
aVMN0000170084
p1603
aVMN0000153443
p1604
aVMN0000178852
p1605
aVMN0000994439
p1606
aVMN0000222132
p1607
aVMN0000645686
p1608
aVMN0000365137
p1609
aVMN0000484877
p1610
aVMN0000893724
p1611
aVMN0000762642
p1612
aVMN0000593129
p1613
aVMN0000924273
p1614
aVMN0000670997
p1615
aVMN0000353962
p1616
aVMN0000370752
p1617
aVMN0000831153
p1618
aVMN0000309255
p1619
aVMN0000770930
p1620
aVMN0000184482
p1621
aVMN0000921351
p1622
aVMN0003424146
p1623
aVMN0000008570
p1624
aVMN0000988307
p1625
aVMN0000510639
p1626
aVMN0002146078
p1627
aVMN0000037880
p1628
aVMN0000594309
p1629
aVMN0000641111
p1630
aVMN0000846406
p1631
aVMN0000236983
p1632
aVMN0000006855
p1633
aVMN0000792538
p1634
aVMN0000183699
p1635
aVMN0000272713
p1636
aVMN0000199194
p1637
aVMN0000386253
p1638
aVMN0000853617
p1639
aVMN0000211955
p1640
aVMN0000988168
p1641
aVMN0000459849
p1642
aVMN0000789462
p1643
aVMN0000024800
p1644
aVMN0000127103
p1645
aVMN0000950956
p1646
aVMN0000386253
p1647
aVMN0000853617
p1648
aVMN0000101701
p1649
aVMN0000759074
p1650
aVMN0000059989
p1651
aVMN0000084994
p1652
aVMN0000480984
p1653
aVMN0000205538
p1654
aVMN0000950956
p1655
aVMN0002653603
p1656
aVMN0002634574
p1657
aVMN0000918682
p1658
aVMN0000921193
p1659
aVMN0000820852
p1660
aVMN0000948660
p1661
aVMN0000058331
p1662
aVMN0000812653
p1663
aVMN0000414700
p1664
aVMN0000096923
p1665
aVMN0000331206
p1666
aVMN0000127250
p1667
aVMN0000847006
p1668
aVMN0000584041
p1669
aVMN0000488908
p1670
aVMN0000853655
p1671
aVMN0000235569
p1672
aVMN0001165244
p1673
aVMN0000780734
p1674
aVMN0000224312
p1675
aVMN0000090500
p1676
aVMN0000057591
p1677
aVMN0001029547
p1678
aVMN0000105211
p1679
aVMN0000029474
p1680
aVMN0000629342
p1681
aVMN0000684566
p1682
aVMN0001424668
p1683
aVMN0000002954
p1684
aVMN0000563944
p1685
aVMN0001231732
p1686
aVMN0001570131
p1687
aVMN0000086627
p1688
aVMN0000632986
p1689
aVMN0000566438
p1690
aVMN0000673933
p1691
aVMN0000039413
p1692
aVMN0000203255
p1693
aVMN0000482018
p1694
aVMN0000795905
p1695
aVMN0000237401
p1696
aVMN0000312605
p1697
aVMN0000073536
p1698
aVMN0000147385
p1699
aVMN0000472297
p1700
aVMN0000298073
p1701
aVMN0003172942
p1702
aVMN0000201983
p1703
aVMN0000548397
p1704
aVMN0000720741
p1705
aVMN0000083194
p1706
aVMN0000474787
p1707
aVMN0001013375
p1708
aVMN0000922398
p1709
aVMN0003029512
p1710
aVMN0000121012
p1711
aVMN0003029512
p1712
aVMN0001490407
p1713
aVMN0000187907
p1714
aVMN0000018786
p1715
aVMN0000331206
p1716
aVMN0000559405
p1717
aVMN0000050610
p1718
aVMN0000655746
p1719
aVMN0000197355
p1720
aVMN0000944384
p1721
aVMN0000200903
p1722
aVMN0001848201
p1723
aVMN0000480638
p1724
aVMN0000758518
p1725
aVMN0000780734
p1726
aVMN0000578551
p1727
aVMN0000197355
p1728
aVMN0002653603
p1729
aVMN0000775184
p1730
aVMN0002054063
p1731
aVMN0000481394
p1732
aVMN0000234815
p1733
aVMN0000838164
p1734
aVMN0000600953
p1735
aVMN0000130280
p1736
aVMN0000870212
p1737
aVMN0000753766
p1738
aVMN0000655746
p1739
aVMN0000634072
p1740
aVMN0000387973
p1741
aVMN0000225892
p1742
aVMN0000177122
p1743
aVMN0000050610
p1744
aVMN0000748994
p1745
aVMN0000225892
p1746
aVMN0000096923
p1747
aVMN0000672656
p1748
aVMN0000584041
p1749
aVMN0003264096
p1750
aVMN0000036641
p1751
aVMN0000183512
p1752
aVMN0002634574
p1753
aVMN0000414700
p1754
aVMN0000123268
p1755
aVMN0000826354
p1756
aVMN0000689606
p1757
aVMN0000152906
p1758
aVMN0001490407
p1759
aVMN0000463676
p1760
aVMN0000812831
p1761
aVMN0000584041
p1762
aVMN0002634574
p1763
aVMN0000221637
p1764
aVMN0000665404
p1765
aVMN0000811622
p1766
aVMN0000578218
p1767
aVMN0000014198
p1768
aVMN0000574540
p1769
aVMN0001845442
p1770
aVMN0000247065
p1771
aVMN0000773615
p1772
aVMN0000213946
p1773
aVMN0001389082
p1774
aVMN0000133988
p1775
aVMN0000198512
p1776
aVMN0000357449
p1777
aVMN0000028952
p1778
aVMN0000745209
p1779
aVMN0000689606
p1780
aVMN0000084458
p1781
aVMN0000549050
p1782
aVMN0000748994
p1783
aVMN0000174100
p1784
aVMN0000220563
p1785
aVMN0000178852
p1786
aVMN0000594942
p1787
aVMN0000174100
p1788
aVMN0000139418
p1789
aVMN0000774640
p1790
aVMN0000864652
p1791
aVMN0000375162
p1792
aVMN0000387973
p1793
aVMN0000082994
p1794
aVMN0000005794
p1795
aVMN0000177541
p1796
aVMN0000594303
p1797
aVMN0000787696
p1798
aVMN0000013184
p1799
aVMN0000152603
p1800
aVMN0000057969
p1801
aVMN0000569468
p1802
aVMN0000072485
p1803
aVMN0000572508
p1804
aVMN0000081606
p1805
aVMN0000076318
p1806
aVMN0000007505
p1807
aVMN0000870938
p1808
aVMN0000303539
p1809
aVMN0000558490
p1810
aVMN0000815914
p1811
aVMN0000673013
p1812
aVMN0000915835
p1813
aVMN0002099421
p1814
aVMN0000096977
p1815
aVMN0000723230
p1816
aVMN0000123363
p1817
aVMN0000848723
p1818
aVMN0000988168
p1819
aVMN0000682107
p1820
aVMN0000282684
p1821
aVMN0000461391
p1822
aVMN0000123363
p1823
aVMN0000096977
p1824
aVMN0000723412
p1825
aVMN0000178645
p1826
aVMN0000628639
p1827
aVMN0000130388
p1828
aVMN0000412047
p1829
aVMN0000949298
p1830
aVMN0000388835
p1831
aVMN0000776961
p1832
aVMN0000372724
p1833
aVMN0000783557
p1834
aVMN0000671168
p1835
aVMN0000559829
p1836
aVMN0000949298
p1837
aVMN0000167944
p1838
aVMN0000554407
p1839
aVMN0000121234
p1840
aVMN0000494355
p1841
aVMN0000048757
p1842
aVMN0000806331
p1843
aVMN0002046267
p1844
aVMN0000529322
p1845
aVMN0001189879
p1846
aVMN0001350354
p1847
aVMN0001389837
p1848
aVMN0000065749
p1849
aVMN0000788034
p1850
aVMN0000243933
p1851
aVMN0000752877
p1852
aVMN0000267720
p1853
aVMN0000177122
p1854
aVMN0000793225
p1855
aVMN0000660135
p1856
aVMN0000659518
p1857
aVMN0000264572
p1858
aVMN0001881171
p1859
aVMN0000277012
p1860
aVMN0000824432
p1861
aVMN0000847473
p1862
aVMN0001036103
p1863
aVMN0001673318
p1864
aVMN0000869631
p1865
aVMN0000055939
p1866
aVMN0000601833
p1867
aVMN0001817948
p1868
aVMN0000171693
p1869
aVMN0000861252
p1870
aVMN0000157908
p1871
aVMN0000652196
p1872
aVMN0003262021
p1873
aVMN0000221637
p1874
aVMN0000756633
p1875
aVMN0000166247
p1876
aVMN0000822089
p1877
aVMN0000506362
p1878
aVMN0000615937
p1879
aVMN0002129504
p1880
aVMN0000490078
p1881
aVMN0000225690
p1882
aVMN0000106951
p1883
aVMN0000895773
p1884
aVMN0000566246
p1885
aVMN0000128388
p1886
aVMN0002129504
p1887
aVMN0000151829
p1888
aVMN0000690456
p1889
aVMN0000147771
p1890
aVMN0000180789
p1891
aVMN0000975914
p1892
aVMN0000462782
p1893
aVMN0000095963
p1894
aVMN0000106038
p1895
aVMN0000227643
p1896
aVMN0000182989
p1897
aVMN0000955488
p1898
aVMN0000025857
p1899
aVMN0000573847
p1900
aVMN0000629505
p1901
aVMN0000000238
p1902
aVMN0000934773
p1903
aVMN0000368698
p1904
aVMN0000624071
p1905
aVMN0000123345
p1906
aVMN0000546945
p1907
aVMN0000728132
p1908
aVMN0000210757
p1909
aVMN0000899560
p1910
aVMN0001758881
p1911
aVMN0001825793
p1912
aVMN0000309464
p1913
aVMN0001490407
p1914
aVMN0000224312
p1915
aVMN0000386234
p1916
aVMN0000300987
p1917
aVMN0000484607
p1918
aVMN0000329232
p1919
aVMN0000453009
p1920
aVMN0000941558
p1921
aVMN0000563834
p1922
aVMN0000090160
p1923
aVMN0000510639
p1924
aVMN0002146078
p1925
aVMN0000950956
p1926
aVMN0002422617
p1927
aVMN0000936144
p1928
aVMN0000022558
p1929
aVMN0001486204
p1930
aVMN0000663255
p1931
aVMN0000067561
p1932
aVMN0000492670
p1933
aVMN0000805310
p1934
aVMN0000817640
p1935
aVMN0000615937
p1936
aVMN0000047246
p1937
aVMN0000956617
p1938
aVMN0000260628
p1939
aVMN0000492670
p1940
aVMN0001202931
p1941
aVMN0000093565
p1942
aVMN0000592161
p1943
aVMN0000232598
p1944
aVMN0000307102
p1945
aVMN0000028002
p1946
aVMN0001817330
p1947
aVMN0000632209
p1948
aVMN0000146825
p1949
aVMN0001228148
p1950
aVMN0000874327
p1951
aVMN0000414291
p1952
aVMN0000759224
p1953
aVMN0003168545
p1954
aVMN0000148227
p1955
aVMN0000033738
p1956
aVMN0000838164
p1957
aVMN0000590140
p1958
aVMN0000949298
p1959
aVMN0000664693
p1960
aVMN0000121234
p1961
aVMN0002948162
p1962
aVMN0002871920
p1963
aVMN0000956583
p1964
aVMN0000502753
p1965
aVMN0000185368
p1966
aVMN0000806325
p1967
aVMN0000505154
p1968
aVMN0002641312
p1969
aVMN0000898701
p1970
aVMN0000500351
p1971
aVMN0000508732
p1972
aVMN0000899334
p1973
aVMN0000336222
p1974
aVMN0000784396
p1975
aVMN0000039304
p1976
aVMN0001629657
p1977
aVMN0002886923
p1978
aVMN0003264096
p1979
aVMN0001490407
p1980
aVMN0003312016
p1981
aVMN0000039304
p1982
aVMN0000044393
p1983
aVMN0000623518
p1984
aVMN0000757119
p1985
aVMN0000835509
p1986
aVMN0000131866
p1987
aVMN0000466528
p1988
aVMN0000330453
p1989
aVMN0003176102
p1990
aVMN0001545319
p1991
aVMN0000340364
p1992
aVMN0000945019
p1993
aVMN0000242210
p1994
aVMN0000654533
p1995
aVMN0000197423
p1996
aVMN0000130037
p1997
aVMN0000883499
p1998
aVMN0000387973
p1999
aVMN0003082142
p2000
aVMN0002103911
p2001
aVMN0000463676
p2002
aVMN0002591087
p2003
aVMN0000001418
p2004
aVMN0000374858
p2005
aVMN0000270162
p2006
aVMN0001490407
p2007
aVMN0000226402
p2008
aVMN0000725333
p2009
aVMN0000159296
p2010
aVMN0000221704
p2011
aVMN0000634072
p2012
aVMN0000331206
p2013
aVMN0000784396
p2014
aVMN0000374858
p2015
aVMN0000220194
p2016
aVMN0000258955
p2017
aVMN0002817685
p2018
aVMN0000853540
p2019
aVMN0000196430
p2020
aVMN0000272689
p2021
aVMN0000647292
p2022
aVMN0000051550
p2023
aVMN0000204186
p2024
aVMN0003264096
p2025
aVMN0000744328
p2026
aVMN0000401512
p2027
aVMN0000306258
p2028
aVMN0000753679
p2029
aVMN0000924367
p2030
aVMN0000614598
p2031
aVMN0000093329
p2032
aVMN0000365137
p2033
aVMN0000784396
p2034
aVMN0000374858
p2035
aVMN0000748994
p2036
aVMN0000658950
p2037
aVMN0000169341
p2038
aVMN0000744328
p2039
aVMN0000665404
p2040
aVMN0000028406
p2041
aVMN0000036641
p2042
aVMN0000272689
p2043
aVMN0000784396
p2044
aVMN0000414700
p2045
aVMN0000306258
p2046
aVMN0000258955
p2047
aVMN0000940125
p2048
aVMN0000527773
p2049
aVMN0000156409
p2050
aVMN0000382455
p2051
aVMN0000748994
p2052
aVMN0000639748
p2053
aVMN0000201983
p2054
aVMN0000183430
p2055
aVMN0000631275
p2056
aVMN0000307525
p2057
aVMN0000689898
p2058
aVMN0000079675
p2059
aVMN0000510042
p2060
aVMN0000671925
p2061
aVMN0000336222
p2062
aVMN0000864956
p2063
aVMN0000381974
p2064
aVMN0000274851
p2065
aVMN0000205009
p2066
aVMN0000129254
p2067
aVMN0000599749
p2068
aVMN0000828510
p2069
aVMN0001453090
p2070
aVMN0000067561
p2071
aVMN0000801600
p2072
aVMN0000615937
p2073
aVMN0000047246
p2074
aVMN0000066618
p2075
aVMN0000106951
p2076
aVMN0000327155
p2077
aVMN0000678077
p2078
aVMN0000211197
p2079
aVMN0000018938
p2080
aVMN0000238245
p2081
aVMN0000713380
p2082
aVMN0000245504
p2083
aVMN0000754158
p2084
aVMN0000824219
p2085
aVMN0000933692
p2086
aVMN0000615937
p2087
aVMN0000238245
p2088
aVMN0000827789
p2089
aVMN0000267720
p2090
aVMN0000059885
p2091
aVMN0000177122
p2092
aVMN0000933898
p2093
aVMN0000111969
p2094
aVMN0000372201
p2095
aVMN0000555075
p2096
aVMN0000613831
p2097
aVMN0001003173
p2098
aVMN0000563928
p2099
aVMN0000558954
p2100
aVMN0000673933
p2101
aVMN0000320324
p2102
aVMN0000055894
p2103
aVMN0001016350
p2104
aVMN0000760471
p2105
aVMN0000036718
p2106
aVMN0000762663
p2107
aVMN0000469519
p2108
aVMN0000551762
p2109
aVMN0000390185
p2110
aVMN0000977198
p2111
aVMN0002841398
p2112
aVMN0000978359
p2113
aVMN0000103447
p2114
aVMN0000151679
p2115
aVMN0000301940
p2116
aVMN0000083194
p2117
aVMN0000996127
p2118
aVMN0000412393
p2119
aVMN0000673933
p2120
aVMN0000187174
p2121
aVMN0000404888
p2122
aVMN0001249907
p2123
aVMN0000668127
p2124
aVMN0001422105
p2125
aVMN0001051850
p2126
aVMN0000474336
p2127
aVMN0000125851
p2128
aVMN0000255347
p2129
aVMN0000869095
p2130
aVMN0000947030
p2131
aVMN0000130922
p2132
aVMN0000818576
p2133
aVMN0000191497
p2134
aVMN0000254524
p2135
aVMN0000022574
p2136
aVMN0000621090
p2137
aVMN0000717975
p2138
aVMN0000953998
p2139
aVMN0000029609
p2140
aVMN0000576975
p2141
aVMN0000619128
p2142
aVMN0002111530
p2143
aVMN0001003193
p2144
aVMN0000662478
p2145
aVMN0000836998
p2146
aVMN0000739437
p2147
aVMN0000836998
p2148
aVMN0000570728
p2149
aVMN0000094102
p2150
aVMN0001545085
p2151
aVMN0001209926
p2152
aVMN0000600532
p2153
aVMN0000954681
p2154
aVMN0000133401
p2155
aVMN0000915209
p2156
aVMN0000179632
p2157
aVMN0000607053
p2158
aVMN0000610861
p2159
aVMN0000866595
p2160
aVMN0002528416
p2161
aVMN0000060401
p2162
aVMN0000222373
p2163
aVMN0000394930
p2164
aVMN0000168300
p2165
aVMN0002149931
p2166
aVMN0000800531
p2167
aVMN0001241228
p2168
aVMN0001536402
p2169
aVMN0000812101
p2170
aVMN0000108808
p2171
aVMN0000422383
p2172
aVMN0000025857
p2173
aVMN0000022981
p2174
aVMN0000677842
p2175
aVMN0001890518
p2176
aVMN0000077821
p2177
aVMN0002845726
p2178
aVMN0002518995
p2179
aVMN0000412779
p2180
aVMN0000401699
p2181
aVMN0000919418
p2182
aVMN0000274146
p2183
aVMN0000631497
p2184
aVMN0000773024
p2185
aVMN0001997758
p2186
aVMN0000749365
p2187
aVMN0000349371
p2188
aVMN0000181786
p2189
aVMN0002181312
p2190
aVMN0000120254
p2191
aVMN0000021008
p2192
aVMN0000585105
p2193
aVMN0000887348
p2194
aVMN0000791480
p2195
aVMN0000887348
p2196
aVMN0000752659
p2197
aVMN0000251631
p2198
aVMN0000778568
p2199
aVMN0000108273
p2200
aVMN0000511177
p2201
aVMN0000899198
p2202
aVMN0000735310
p2203
aVMN0002140997
p2204
aVMN0000227463
p2205
aVMN0000837084
p2206
aVMN0000846878
p2207
aVMN0000069761
p2208
aVMN0000036718
p2209
aVMN0002339528
p2210
aVMN0001939824
p2211
aVMN0001835240
p2212
aVMN0001882882
p2213
aVMN0003424807
p2214
aVMN0000359559
p2215
aVMN0000006568
p2216
aVMN0000109421
p2217
aVMN0000018691
p2218
aVMN0000127103
p2219
aVMN0000676530
p2220
aVMN0000485881
p2221
aVMN0000085271
p2222
aVMN0000109421
p2223
aVMN0000105422
p2224
aVMN0000247699
p2225
aVMN0000553317
p2226
aVMN0000279718
p2227
aVMN0000109988
p2228
aVMN0000667210
p2229
aVMN0000164592
p2230
aVMN0000915835
p2231
aVMN0000817128
p2232
aVMN0000200968
p2233
aVMN0000746068
p2234
aVMN0000751093
p2235
aVMN0000749273
p2236
aVMN0000277764
p2237
aVMN0000210512
p2238
aVMN0000340446
p2239
aVMN0000196690
p2240
aVMN0000767370
p2241
aVMN0000824406
p2242
aVMN0000093329
p2243
aVMN0000793192
p2244
aVMN0000016361
p2245
aVMN0000085396
p2246
aVMN0000232493
p2247
aVMN0000235923
p2248
aVMN0002960510
p2249
aVMN0000015405
p2250
aVMN0000137401
p2251
aVMN0000562663
p2252
aVMN0000279964
p2253
aVMN0000792578
p2254
aVMN0000771546
p2255
aVMN0000141257
p2256
aVMN0000006867
p2257
aVMN0001516175
p2258
aVMN0000230886
p2259
aVMN0000250351
p2260
aVMN0000828740
p2261
aVMN0000259270
p2262
aVMN0000254083
p2263
aVMN0000811508
p2264
aVMN0002034242
p2265
aVMN0000225944
p2266
aVMN0000223683
p2267
aVMN0000087954
p2268
aVMN0000828768
p2269
aVMN0001396141
p2270
aVMN0000754545
p2271
aVMN0000107556
p2272
aVMN0000157091
p2273
aVMN0000066869
p2274
aVMN0000792831
p2275
aVMN0000264510
p2276
aVMN0000474215
p2277
aVMN0000781094
p2278
aVMN0000090174
p2279
aVMN0000139212
p2280
aVMN0000533503
p2281
aVMN0000721195
p2282
aVMN0000464757
p2283
aVMN0000325443
p2284
aVMN0000946560
p2285
aVMN0000391285
p2286
aVMN0000281564
p2287
aVMN0000679370
p2288
aVMN0000044068
p2289
aVMN0000200715
p2290
aVMN0000079392
p2291
aVMN0000466759
p2292
aVMN0000924306
p2293
aVMN0000100575
p2294
aVMN0002120504
p2295
aVMN0000044068
p2296
aVMN0000325443
p2297
aVMN0000879679
p2298
aVMN0003203737
p2299
aVMN0000325443
p2300
aVMN0000749390
p2301
aVMN0000049026
p2302
aVMN0000946560
p2303
aVMN0000479019
p2304
aVMN0000279119
p2305
aVMN0000224312
p2306
aVMN0000746469
p2307
aVMN0000120675
p2308
aVMN0000577053
p2309
aVMN0000122735
p2310
aVMN0000841475
p2311
aVMN0000559680
p2312
aVMN0000549249
p2313
aVMN0000218897
p2314
aVMN0000787702
p2315
aVMN0000053159
p2316
aVMN0000891468
p2317
aVMN0001018697
p2318
aVMN0000678324
p2319
aVMN0000103324
p2320
aVMN0000059292
p2321
aVMN0000059292
p2322
aVMN0000190331
p2323
aVMN0001790857
p2324
aVMN0001264756
p2325
aVMN0000165191
p2326
aVMN0000852718
p2327
aVMN0002076931
p2328
aVMN0000248798
p2329
aVMN0001506991
p2330
aVMN0001615204
p2331
aVMN0000011946
p2332
aVMN0002291591
p2333
aVMN0000787696
p2334
aVMN0001249907
p2335
aVMN0000237096
p2336
aVMN0000755312
p2337
aVMN0000173487
p2338
aVMN0000237096
p2339
aVMN0000009009
p2340
aVMN0000755312
p2341
aVMN0000938688
p2342
aVMN0000173487
p2343
aVMN0000932078
p2344
aVMN0000057849
p2345
aVMN0000255964
p2346
aVMN0001897566
p2347
aVMN0002634574
p2348
aVMN0000752877
p2349
aVMN0000934874
p2350
aVMN0000602319
p2351
aVMN0002181312
p2352
aVMN0000559829
p2353
aVMN0000243094
p2354
aVMN0000377219
p2355
aVMN0002040938
p2356
aVMN0000166247
p2357
aVMN0000162190
p2358
aVMN0000004852
p2359
aVMN0000363307
p2360
aVMN0000779209
p2361
aVMN0000202344
p2362
aVMN0000855655
p2363
aVMN0000022830
p2364
atRp2365
.