(dp0
VMN0000798801
p1
c__builtin__
set
p2
((lp3
VInternational
p4
aVPop/Rock
p5
aVVocal
p6
atp7
Rp8
sVMN0000201760
p9
g2
((lp10
VR&B
p11
aVJazz
p12
atp13
Rp14
sVMN0000322092
p15
g2
((lp16
VPop/Rock
p17
atp18
Rp19
sVMN0000294085
p20
g2
((lp21
VCountry
p22
aVPop/Rock
p23
atp24
Rp25
sVMN0000359559
p26
g2
((lp27
VR&B
p28
atp29
Rp30
sVMN0000270491
p31
g2
((lp32
VPop/Rock
p33
aVJazz
p34
atp35
Rp36
sVMN0000290072
p37
g2
((lp38
VR&B
p39
aVPop/Rock
p40
atp41
Rp42
sVMN0000361393
p43
g2
((lp44
VR&B
p45
aVPop/Rock
p46
atp47
Rp48
sVMN0000849405
p49
g2
((lp50
VR&B
p51
atp52
Rp53
sVMN0000043444
p54
g2
((lp55
VCountry
p56
aVComedy/Spoken
p57
atp58
Rp59
sVMN0000139655
p60
g2
((lp61
VPop/Rock
p62
aVElectronic
p63
atp64
Rp65
sVMN0000690254
p66
g2
((lp67
VPop/Rock
p68
atp69
Rp70
sVMN0000493122
p71
g2
((lp72
VR&B
p73
aVPop/Rock
p74
atp75
Rp76
sVMN0000070715
p77
g2
((lp78
VPop/Rock
p79
aVFolk
p80
aVVocal
p81
atp82
Rp83
sVMN0000554804
p84
g2
((lp85
VCountry
p86
aVPop/Rock
p87
atp88
Rp89
sVMN0000130689
p90
g2
((lp91
VPop/Rock
p92
atp93
Rp94
sVMN0000025335
p95
g2
((lp96
VRap
p97
atp98
Rp99
sVMN0000744265
p100
g2
((lp101
VR&B
p102
aVPop/Rock
p103
aVCountry
p104
atp105
Rp106
sVMN0000572579
p107
g2
((lp108
VR&B
p109
atp110
Rp111
sVMN0000118189
p112
g2
((lp113
VCountry
p114
atp115
Rp116
sVMN0000160690
p117
g2
((lp118
VR&B
p119
aVElectronic
p120
atp121
Rp122
sVMN0000753963
p123
g2
((lp124
VPop/Rock
p125
atp126
Rp127
sVMN0000883318
p128
g2
((lp129
VPop/Rock
p130
atp131
Rp132
sVMN0000182900
p133
g2
((lp134
VBlues
p135
aVPop/Rock
p136
atp137
Rp138
sVMN0000061172
p139
g2
((lp140
VPop/Rock
p141
atp142
Rp143
sVMN0000554963
p144
g2
((lp145
VPop/Rock
p146
aVFolk
p147
atp148
Rp149
sVMN0000012128
p150
g2
((lp151
VR&B
p152
atp153
Rp154
sVMN0000337119
p155
g2
((lp156
VPop/Rock
p157
aVElectronic
p158
atp159
Rp160
sVMN0000414251
p161
g2
((lp162
VR&B
p163
atp164
Rp165
sVMN0000930642
p166
g2
((lp167
VR&B
p168
aVPop/Rock
p169
atp170
Rp171
sVMN0000191006
p172
g2
((lp173
VR&B
p174
aVPop/Rock
p175
aVStage & Screen
p176
atp177
Rp178
sVMN0000675710
p179
g2
((lp180
VPop/Rock
p181
atp182
Rp183
sVMN0000776371
p184
g2
((lp185
VR&B
p186
aVElectronic
p187
atp188
Rp189
sVMN0000293896
p190
g2
((lp191
VR&B
p192
aVPop/Rock
p193
atp194
Rp195
sVMN0000036641
p196
g2
((lp197
VRap
p198
atp199
Rp200
sVMN0000222436
p201
g2
((lp202
VPop/Rock
p203
atp204
Rp205
sVMN0000927555
p206
g2
((lp207
VR&B
p208
atp209
Rp210
sVMN0000610706
p211
g2
((lp212
VPop/Rock
p213
atp214
Rp215
sVMN0000196993
p216
g2
((lp217
VPop/Rock
p218
atp219
Rp220
sVMN0000359966
p221
g2
((lp222
VPop/Rock
p223
atp224
Rp225
sVMN0000498484
p226
g2
((lp227
VPop/Rock
p228
atp229
Rp230
sVMN0000936190
p231
g2
((lp232
VPop/Rock
p233
atp234
Rp235
sVMN0000767016
p236
g2
((lp237
VR&B
p238
atp239
Rp240
sVMN0000686897
p241
g2
((lp242
VCountry
p243
aVPop/Rock
p244
aVVocal
p245
atp246
Rp247
sVMN0000110161
p248
g2
((lp249
VPop/Rock
p250
atp251
Rp252
sVMN0000824022
p253
g2
((lp254
VR&B
p255
aVPop/Rock
p256
aVReligious
p257
atp258
Rp259
sVMN0000662797
p260
g2
((lp261
VR&B
p262
aVElectronic
p263
atp264
Rp265
sVMN0000116178
p266
g2
((lp267
VR&B
p268
aVPop/Rock
p269
atp270
Rp271
sVMN0000480108
p272
g2
((lp273
VPop/Rock
p274
aVElectronic
p275
atp276
Rp277
sVMN0000198426
p278
g2
((lp279
VR&B
p280
aVElectronic
p281
atp282
Rp283
sVMN0000383853
p284
g2
((lp285
VCountry
p286
atp287
Rp288
sVMN0000136871
p289
g2
((lp290
VR&B
p291
aVPop/Rock
p292
atp293
Rp294
sVMN0000667794
p295
g2
((lp296
VPop/Rock
p297
aVFolk
p298
atp299
Rp300
sVMN0000294923
p301
g2
((lp302
VPop/Rock
p303
aVFolk
p304
atp305
Rp306
sVMN0000497236
p307
g2
((lp308
VR&B
p309
aVElectronic
p310
atp311
Rp312
sVMN0000488908
p313
g2
((lp314
VRap
p315
atp316
Rp317
sVMN0000834314
p318
g2
((lp319
VPop/Rock
p320
atp321
Rp322
sVMN0000282752
p323
g2
((lp324
VPop/Rock
p325
atp326
Rp327
sVMN0000030928
p328
g2
((lp329
VR&B
p330
atp331
Rp332
s.