(dp0
VMN0000317093
p1
c__builtin__
set
p2
((lp3
VR&B
p4
aVJazz
p5
aVVocal
p6
atp7
Rp8
sVMN0000073666
p9
g2
((lp10
VR&B
p11
aVPop/Rock
p12
atp13
Rp14
sVMN0000816387
p15
g2
((lp16
VPop/Rock
p17
atp18
Rp19
sVMN0000986573
p20
g2
((lp21
VPop/Rock
p22
atp23
Rp24
sVMN0000649435
p25
g2
((lp26
VR&B
p27
atp28
Rp29
sVMN0002453941
p30
g2
((lp31
VPop/Rock
p32
atp33
Rp34
sVMN0000074195
p35
g2
((lp36
VR&B
p37
atp38
Rp39
sVMN0000664378
p40
g2
((lp41
VCountry
p42
aVPop/Rock
p43
atp44
Rp45
sVMN0000413000
p46
g2
((lp47
VR&B
p48
aVPop/Rock
p49
aVRap
p50
atp51
Rp52
sVMN0000199995
p53
g2
((lp54
VPop/Rock
p55
atp56
Rp57
sVMN0000064509
p58
g2
((lp59
VR&B
p60
aVStage & Screen
p61
atp62
Rp63
sVMN0000926428
p64
g2
((lp65
VPop/Rock
p66
atp67
Rp68
sVMN0000936190
p69
g2
((lp70
VPop/Rock
p71
atp72
Rp73
sVMN0000651549
p74
g2
((lp75
VR&B
p76
aVElectronic
p77
atp78
Rp79
sVMN0000303050
p80
g2
((lp81
VR&B
p82
aVBlues
p83
atp84
Rp85
sVMN0000128950
p86
g2
((lp87
VR&B
p88
aVPop/Rock
p89
atp90
Rp91
sVMN0000102050
p92
g2
((lp93
VPop/Rock
p94
aVFolk
p95
atp96
Rp97
sVMN0000927555
p98
g2
((lp99
VR&B
p100
atp101
Rp102
sVMN0000016227
p103
g2
((lp104
VR&B
p105
atp106
Rp107
sVMN0000070715
p108
g2
((lp109
VPop/Rock
p110
aVFolk
p111
aVVocal
p112
atp113
Rp114
sVMN0000659517
p115
g2
((lp116
VPop/Rock
p117
atp118
Rp119
sVMN0000233228
p120
g2
((lp121
VR&B
p122
aVJazz
p123
aVPop/Rock
p124
atp125
Rp126
sVMN0000062002
p127
g2
((lp128
VPop/Rock
p129
atp130
Rp131
sVMN0000739041
p132
g2
((lp133
VPop/Rock
p134
atp135
Rp136
sVMN0000897205
p137
g2
((lp138
VR&B
p139
aVJazz
p140
atp141
Rp142
sVMN0000289599
p143
g2
((lp144
VPop/Rock
p145
atp146
Rp147
sVMN0000188467
p148
g2
((lp149
VPop/Rock
p150
aVClassical
p151
atp152
Rp153
sVMN0000198162
p154
g2
((lp155
VR&B
p156
aVBlues
p157
atp158
Rp159
sVMN0000568861
p160
g2
((lp161
VR&B
p162
atp163
Rp164
sVMN0000165011
p165
g2
((lp166
VR&B
p167
aVPop/Rock
p168
atp169
Rp170
sVMN0000200074
p171
g2
((lp172
VPop/Rock
p173
atp174
Rp175
sVMN0000813392
p176
g2
((lp177
VPop/Rock
p178
aVVocal
p179
atp180
Rp181
sVMN0000044764
p182
g2
((lp183
VPop/Rock
p184
aVElectronic
p185
atp186
Rp187
sVMN0000170454
p188
g2
((lp189
VR&B
p190
atp191
Rp192
sVMN0000069986
p193
g2
((lp194
VCountry
p195
aVPop/Rock
p196
atp197
Rp198
sVMN0000048300
p199
g2
((lp200
VR&B
p201
atp202
Rp203
sVMN0000671953
p204
g2
((lp205
VPop/Rock
p206
atp207
Rp208
sVMN0000368367
p209
g2
((lp210
VR&B
p211
aVJazz
p212
aVVocal
p213
atp214
Rp215
sVMN0000123754
p216
g2
((lp217
VPop/Rock
p218
atp219
Rp220
sVMN0000850692
p221
g2
((lp222
VPop/Rock
p223
atp224
Rp225
sVMN0000414251
p226
g2
((lp227
VR&B
p228
atp229
Rp230
sVMN0000175939
p231
g2
((lp232
VPop/Rock
p233
atp234
Rp235
sVMN0000469519
p236
g2
((lp237
VPop/Rock
p238
atp239
Rp240
sVMN0000150048
p241
g2
((lp242
VNew Age
p243
aVElectronic
p244
atp245
Rp246
sVMN0000674150
p247
g2
((lp248
VPop/Rock
p249
aVVocal
p250
atp251
Rp252
sVMN0000677781
p253
g2
((lp254
VR&B
p255
aVPop/Rock
p256
atp257
Rp258
sVMN0000325126
p259
g2
((lp260
VR&B
p261
atp262
Rp263
sVMN0000142531
p264
g2
((lp265
VPop/Rock
p266
aVVocal
p267
aVJazz
p268
aVStage & Screen
p269
atp270
Rp271
sVMN0000036641
p272
g2
((lp273
VRap
p274
atp275
Rp276
sVMN0000794306
p277
g2
((lp278
VPop/Rock
p279
aVElectronic
p280
atp281
Rp282
sVMN0000792507
p283
g2
((lp284
VJazz
p285
aVStage & Screen
p286
aVVocal
p287
atp288
Rp289
sVMN0000065231
p290
g2
((lp291
VPop/Rock
p292
atp293
Rp294
sVMN0000180449
p295
g2
((lp296
VR&B
p297
aVPop/Rock
p298
atp299
Rp300
sVMN0000075473
p301
g2
((lp302
VPop/Rock
p303
atp304
Rp305
sVMN0000355616
p306
g2
((lp307
VPop/Rock
p308
atp309
Rp310
sVMN0000297702
p311
g2
((lp312
VPop/Rock
p313
atp314
Rp315
sVMN0000174557
p316
g2
((lp317
VPop/Rock
p318
atp319
Rp320
sVMN0000686897
p321
g2
((lp322
VCountry
p323
aVPop/Rock
p324
aVVocal
p325
atp326
Rp327
sVMN0000500889
p328
g2
((lp329
VR&B
p330
aVPop/Rock
p331
aVElectronic
p332
atp333
Rp334
sVMN0000086065
p335
g2
((lp336
VRap
p337
atp338
Rp339
sVMN0000325459
p340
g2
((lp341
VPop/Rock
p342
atp343
Rp344
sVMN0000179205
p345
g2
((lp346
VPop/Rock
p347
aVFolk
p348
atp349
Rp350
sVMN0000153526
p351
g2
((lp352
VPop/Rock
p353
atp354
Rp355
sVMN0000672656
p356
g2
((lp357
VRap
p358
atp359
Rp360
sVMN0000258882
p361
g2
((lp362
VR&B
p363
aVLatin
p364
aVPop/Rock
p365
atp366
Rp367
sVMN0000044751
p368
g2
((lp369
VCountry
p370
atp371
Rp372
sVMN0000188432
p373
g2
((lp374
VJazz
p375
aVPop/Rock
p376
atp377
Rp378
sVMN0000495201
p379
g2
((lp380
VRap
p381
atp382
Rp383
sVMN0000158309
p384
g2
((lp385
VPop/Rock
p386
atp387
Rp388
sVMN0000081619
p389
g2
((lp390
VCountry
p391
aVPop/Rock
p392
atp393
Rp394
sVMN0000136871
p395
g2
((lp396
VR&B
p397
aVPop/Rock
p398
atp399
Rp400
sVMN0000031380
p401
g2
((lp402
VR&B
p403
aVPop/Rock
p404
aVElectronic
p405
atp406
Rp407
sVMN0000005953
p408
g2
((lp409
VPop/Rock
p410
atp411
Rp412
sVMN0000806991
p413
g2
((lp414
VLatin
p415
aVPop/Rock
p416
aVVocal
p417
atp418
Rp419
sVMN0000147635
p420
g2
((lp421
VPop/Rock
p422
atp423
Rp424
sVMN0000413753
p425
g2
((lp426
VR&B
p427
atp428
Rp429
sVMN0000280061
p430
g2
((lp431
VPop/Rock
p432
atp433
Rp434
sVMN0000061045
p435
g2
((lp436
VR&B
p437
aVJazz
p438
atp439
Rp440
sVMN0000632986
p441
g2
((lp442
VPop/Rock
p443
atp444
Rp445
sVMN0000298764
p446
g2
((lp447
VPop/Rock
p448
atp449
Rp450
sVMN0000256349
p451
g2
((lp452
VJazz
p453
aVStage & Screen
p454
aVVocal
p455
atp456
Rp457
sVMN0000251358
p458
g2
((lp459
VPop/Rock
p460
atp461
Rp462
sVMN0000168958
p463
g2
((lp464
VR&B
p465
atp466
Rp467
sVMN0000785101
p468
g2
((lp469
VPop/Rock
p470
aVElectronic
p471
atp472
Rp473
s.