(dp0
VMN0000753963
p1
c__builtin__
set
p2
((lp3
VPop/Rock
p4
atp5
Rp6
sVMN0000036641
p7
g2
((lp8
VRap
p9
atp10
Rp11
sVMN0000868616
p12
g2
((lp13
VPop/Rock
p14
atp15
Rp16
sVMN0000237205
p17
g2
((lp18
VPop/Rock
p19
aVElectronic
p20
atp21
Rp22
sVMN0000342834
p23
g2
((lp24
VR&B
p25
atp26
Rp27
s.