(dp0
VMN0000158407
p1
c__builtin__
set
p2
((lp3
VPop/Rock
p4
atp5
Rp6
sVMN0000763798
p7
g2
((lp8
VPop/Rock
p9
atp10
Rp11
sVMN0001928494
p12
g2
((lp13
VPop/Rock
p14
atp15
Rp16
sVMN0000509356
p17
g2
((lp18
VR&B
p19
aVPop/Rock
p20
atp21
Rp22
sVMN0000830464
p23
g2
((lp24
VR&B
p25
aVPop/Rock
p26
atp27
Rp28
sVMN0000590524
p29
g2
((lp30
VR&B
p31
aVJazz
p32
aVPop/Rock
p33
atp34
Rp35
sVMN0000021050
p36
g2
((lp37
VR&B
p38
aVElectronic
p39
atp40
Rp41
sVMN0000022255
p42
g2
((lp43
VComedy/Spoken
p44
aVPop/Rock
p45
aVClassical
p46
atp47
Rp48
sVMN0000665835
p49
g2
((lp50
VPop/Rock
p51
aVFolk
p52
atp53
Rp54
sVMN0000274822
p55
g2
((lp56
VR&B
p57
aVBlues
p58
aVPop/Rock
p59
atp60
Rp61
sVMN0000000674
p62
g2
((lp63
VR&B
p64
aVPop/Rock
p65
atp66
Rp67
sVMN0000805208
p68
g2
((lp69
VR&B
p70
atp71
Rp72
sVMN0000138332
p73
g2
((lp74
VR&B
p75
aVPop/Rock
p76
atp77
Rp78
sVMN0000603980
p79
g2
((lp80
VComedy/Spoken
p81
aVVocal
p82
aVPop/Rock
p83
atp84
Rp85
sVMN0000500646
p86
g2
((lp87
VR&B
p88
aVPop/Rock
p89
atp90
Rp91
sVMN0000220946
p92
g2
((lp93
VCountry
p94
aVPop/Rock
p95
atp96
Rp97
sVMN0000824022
p98
g2
((lp99
VR&B
p100
aVPop/Rock
p101
aVReligious
p102
atp103
Rp104
sVMN0000524239
p105
g2
((lp106
VR&B
p107
aVPop/Rock
p108
atp109
Rp110
sVMN0000060476
p111
g2
((lp112
VR&B
p113
aVPop/Rock
p114
atp115
Rp116
sVMN0000226312
p117
g2
((lp118
VPop/Rock
p119
aVElectronic
p120
aVRap
p121
atp122
Rp123
sVMN0000477834
p124
g2
((lp125
VPop/Rock
p126
aVFolk
p127
atp128
Rp129
sVMN0000665957
p130
g2
((lp131
VR&B
p132
atp133
Rp134
sVMN0000814974
p135
g2
((lp136
VCountry
p137
atp138
Rp139
sVMN0000930722
p140
g2
((lp141
VR&B
p142
aVPop/Rock
p143
atp144
Rp145
sVMN0000156886
p146
g2
((lp147
VJazz
p148
atp149
Rp150
sVMN0000599732
p151
g2
((lp152
VRap
p153
atp154
Rp155
sVMN0000199995
p156
g2
((lp157
VPop/Rock
p158
atp159
Rp160
sVMN0000342834
p161
g2
((lp162
VR&B
p163
atp164
Rp165
sVMN0000559405
p166
g2
((lp167
VLatin
p168
atp169
Rp170
sVMN0000581859
p171
g2
((lp172
VPop/Rock
p173
atp174
Rp175
sVMN0000806507
p176
g2
((lp177
VR&B
p178
aVPop/Rock
p179
atp180
Rp181
sVMN0000162487
p182
g2
((lp183
VCountry
p184
aVPop/Rock
p185
aVFolk
p186
atp187
Rp188
sVMN0000011597
p189
g2
((lp190
VR&B
p191
aVPop/Rock
p192
aVClassical
p193
atp194
Rp195
sVMN0000228444
p196
g2
((lp197
VJazz
p198
aVEasy Listening
p199
atp200
Rp201
sVMN0000417598
p202
g2
((lp203
VR&B
p204
aVPop/Rock
p205
atp206
Rp207
sVMN0000569685
p208
g2
((lp209
VR&B
p210
aVPop/Rock
p211
atp212
Rp213
sVMN0000062729
p214
g2
((lp215
VPop/Rock
p216
atp217
Rp218
sVMN0000814898
p219
g2
((lp220
VR&B
p221
atp222
Rp223
sVMN0000502806
p224
g2
((lp225
VR&B
p226
aVComedy/Spoken
p227
atp228
Rp229
sVMN0000057840
p230
g2
((lp231
VCountry
p232
aVPop/Rock
p233
aVReligious
p234
atp235
Rp236
sVMN0000334740
p237
g2
((lp238
VCountry
p239
atp240
Rp241
sVMN0000785585
p242
g2
((lp243
VCountry
p244
atp245
Rp246
sVMN0000604924
p247
g2
((lp248
VR&B
p249
atp250
Rp251
sVMN0000685647
p252
g2
((lp253
VPop/Rock
p254
atp255
Rp256
sVMN0000162269
p257
g2
((lp258
VCountry
p259
aVPop/Rock
p260
atp261
Rp262
sVMN0000292243
p263
g2
((lp264
VR&B
p265
aVPop/Rock
p266
atp267
Rp268
sVMN0000112360
p269
g2
((lp270
VPop/Rock
p271
aVElectronic
p272
atp273
Rp274
sVMN0000565388
p275
g2
((lp276
VPop/Rock
p277
atp278
Rp279
sVMN0000103391
p280
g2
((lp281
VJazz
p282
atp283
Rp284
sVMN0000131681
p285
g2
((lp286
VPop/Rock
p287
aVReligious
p288
aVVocal
p289
atp290
Rp291
sVMN0000662438
p292
g2
((lp293
VPop/Rock
p294
atp295
Rp296
sVMN0000794449
p297
g2
((lp298
VR&B
p299
aVPop/Rock
p300
aVVocal
p301
aVClassical
p302
atp303
Rp304
sVMN0000814220
p305
g2
((lp306
VNew Age
p307
aVCountry
p308
aVReligious
p309
atp310
Rp311
sVMN0000080428
p312
g2
((lp313
VPop/Rock
p314
aVVocal
p315
atp316
Rp317
sVMN0000366681
p318
g2
((lp319
VPop/Rock
p320
atp321
Rp322
sVMN0000179021
p323
g2
((lp324
VR&B
p325
aVPop/Rock
p326
atp327
Rp328
sVMN0000508449
p329
g2
((lp330
VPop/Rock
p331
atp332
Rp333
sVMN0000234004
p334
g2
((lp335
VCountry
p336
atp337
Rp338
sVMN0000472440
p339
g2
((lp340
VComedy/Spoken
p341
aVR&B
p342
aVPop/Rock
p343
atp344
Rp345
sVMN0000109025
p346
g2
((lp347
VChildren's
p348
aVFolk
p349
atp350
Rp351
sVMN0000393106
p352
g2
((lp353
VInternational
p354
aVPop/Rock
p355
atp356
Rp357
sVMN0000738674
p358
g2
((lp359
VCountry
p360
atp361
Rp362
sVMN0000784759
p363
g2
((lp364
VJazz
p365
aVPop/Rock
p366
aVVocal
p367
atp368
Rp369
sVMN0000286115
p370
g2
((lp371
VCountry
p372
atp373
Rp374
sVMN0000051118
p375
g2
((lp376
VR&B
p377
aVComedy/Spoken
p378
aVPop/Rock
p379
atp380
Rp381
sVMN0000502398
p382
g2
((lp383
VR&B
p384
atp385
Rp386
sVMN0000567624
p387
g2
((lp388
VR&B
p389
atp390
Rp391
sVMN0000868456
p392
g2
((lp393
VCountry
p394
atp395
Rp396
sVMN0000325366
p397
g2
((lp398
VR&B
p399
aVPop/Rock
p400
atp401
Rp402
sVMN0000297990
p403
g2
((lp404
VPop/Rock
p405
atp406
Rp407
sVMN0000010155
p408
g2
((lp409
VPop/Rock
p410
atp411
Rp412
sVMN0000600075
p413
g2
((lp414
VVocal
p415
atp416
Rp417
sVMN0000135059
p418
g2
((lp419
VPop/Rock
p420
atp421
Rp422
sVMN0000844707
p423
g2
((lp424
VPop/Rock
p425
atp426
Rp427
sVMN0000411689
p428
g2
((lp429
VPop/Rock
p430
atp431
Rp432
sVMN0000851745
p433
g2
((lp434
VR&B
p435
atp436
Rp437
sVMN0000787940
p438
g2
((lp439
VR&B
p440
atp441
Rp442
sVMN0000148477
p443
g2
((lp444
VR&B
p445
atp446
Rp447
sVMN0000154967
p448
g2
((lp449
VR&B
p450
aVBlues
p451
atp452
Rp453
sVMN0000477410
p454
g2
((lp455
VComedy/Spoken
p456
aVR&B
p457
aVPop/Rock
p458
atp459
Rp460
sVMN0000812920
p461
g2
((lp462
VR&B
p463
aVPop/Rock
p464
atp465
Rp466
sVMN0000569256
p467
g2
((lp468
VR&B
p469
atp470
Rp471
sVMN0000240999
p472
g2
((lp473
VPop/Rock
p474
atp475
Rp476
sVMN0000013589
p477
g2
((lp478
VR&B
p479
atp480
Rp481
sVMN0000123132
p482
g2
((lp483
VR&B
p484
aVPop/Rock
p485
atp486
Rp487
sVMN0000838195
p488
g2
((lp489
VR&B
p490
atp491
Rp492
sVMN0000771638
p493
g2
((lp494
VCountry
p495
aVPop/Rock
p496
atp497
Rp498
sVMN0000069986
p499
g2
((lp500
VCountry
p501
aVPop/Rock
p502
atp503
Rp504
sVMN0000019740
p505
g2
((lp506
VR&B
p507
aVPop/Rock
p508
atp509
Rp510
sVMN0000944241
p511
g2
((lp512
VCountry
p513
aVPop/Rock
p514
atp515
Rp516
sVMN0000050656
p517
g2
((lp518
VPop/Rock
p519
atp520
Rp521
sVMN0000413753
p522
g2
((lp523
VR&B
p524
atp525
Rp526
sVMN0000061582
p527
g2
((lp528
VR&B
p529
aVPop/Rock
p530
atp531
Rp532
sVMN0000814606
p533
g2
((lp534
VCountry
p535
aVPop/Rock
p536
aVReligious
p537
atp538
Rp539
sVMN0000053190
p540
g2
((lp541
VPop/Rock
p542
atp543
Rp544
sVMN0000162820
p545
g2
((lp546
VR&B
p547
aVPop/Rock
p548
atp549
Rp550
sVMN0000245049
p551
g2
((lp552
VPop/Rock
p553
atp554
Rp555
sVMN0003014650
p556
g2
((lp557
VPop/Rock
p558
atp559
Rp560
sVMN0000662692
p561
g2
((lp562
VR&B
p563
aVPop/Rock
p564
atp565
Rp566
sVMN0000312522
p567
g2
((lp568
VR&B
p569
atp570
Rp571
sVMN0000757328
p572
g2
((lp573
VPop/Rock
p574
aVJazz
p575
atp576
Rp577
sVMN0000303050
p578
g2
((lp579
VR&B
p580
aVBlues
p581
atp582
Rp583
sVMN0000149973
p584
g2
((lp585
VR&B
p586
aVBlues
p587
atp588
Rp589
sVMN0000830653
p590
g2
((lp591
VPop/Rock
p592
atp593
Rp594
s.