(dp0
VMN0000297894
p1
c__builtin__
set
p2
((lp3
VPop/Rock
p4
atp5
Rp6
sVMN0000086927
p7
g2
((lp8
VPop/Rock
p9
atp10
Rp11
sVMN0000484145
p12
g2
((lp13
VPop/Rock
p14
atp15
Rp16
sVMN0000015318
p17
g2
((lp18
VCountry
p19
atp20
Rp21
sVMN0000677241
p22
g2
((lp23
VR&B
p24
atp25
Rp26
sVMN0000774588
p27
g2
((lp28
VCountry
p29
aVPop/Rock
p30
atp31
Rp32
sVMN0000816701
p33
g2
((lp34
VR&B
p35
aVPop/Rock
p36
aVReligious
p37
atp38
Rp39
sVMN0000752673
p40
g2
((lp41
VPop/Rock
p42
aVFolk
p43
atp44
Rp45
sVMN0000596126
p46
g2
((lp47
VPop/Rock
p48
atp49
Rp50
sVMN0000530745
p51
g2
((lp52
VPop/Rock
p53
aVFolk
p54
atp55
Rp56
sVMN0000859868
p57
g2
((lp58
VPop/Rock
p59
atp60
Rp61
sVMN0000021744
p62
g2
((lp63
VPop/Rock
p64
atp65
Rp66
sVMN0000163229
p67
g2
((lp68
VPop/Rock
p69
atp70
Rp71
sVMN0000567570
p72
g2
((lp73
VPop/Rock
p74
aVElectronic
p75
atp76
Rp77
sVMN0000169795
p78
g2
((lp79
VPop/Rock
p80
atp81
Rp82
sVMN0000317865
p83
g2
((lp84
VPop/Rock
p85
aVLatin
p86
atp87
Rp88
sVMN0000151431
p89
g2
((lp90
VCountry
p91
aVComedy/Spoken
p92
aVChildren's
p93
atp94
Rp95
sVMN0000796741
p96
g2
((lp97
VCountry
p98
atp99
Rp100
sVMN0000033481
p101
g2
((lp102
VCountry
p103
aVPop/Rock
p104
atp105
Rp106
sVMN0000468938
p107
g2
((lp108
VR&B
p109
atp110
Rp111
sVMN0000799053
p112
g2
((lp113
VPop/Rock
p114
aVFolk
p115
atp116
Rp117
sVMN0000210143
p118
g2
((lp119
VPop/Rock
p120
atp121
Rp122
sVMN0000166785
p123
g2
((lp124
VPop/Rock
p125
atp126
Rp127
sVMN0000098081
p128
g2
((lp129
VCountry
p130
aVPop/Rock
p131
aVVocal
p132
atp133
Rp134
sVMN0000768584
p135
g2
((lp136
VPop/Rock
p137
atp138
Rp139
sVMN0000338887
p140
g2
((lp141
VVocal
p142
atp143
Rp144
sVMN0000061480
p145
g2
((lp146
VPop/Rock
p147
atp148
Rp149
sVMN0000100116
p150
g2
((lp151
VR&B
p152
atp153
Rp154
sVMN0000373634
p155
g2
((lp156
VRap
p157
atp158
Rp159
sVMN0000891911
p160
g2
((lp161
VR&B
p162
aVPop/Rock
p163
aVElectronic
p164
atp165
Rp166
sVMN0000485135
p167
g2
((lp168
VPop/Rock
p169
aVRap
p170
atp171
Rp172
sVMN0000018977
p173
g2
((lp174
VPop/Rock
p175
atp176
Rp177
sVMN0000766066
p178
g2
((lp179
VPop/Rock
p180
aVVocal
p181
atp182
Rp183
sVMN0000758943
p184
g2
((lp185
VPop/Rock
p186
atp187
Rp188
sVMN0000804289
p189
g2
((lp190
VCountry
p191
atp192
Rp193
sVMN0000334644
p194
g2
((lp195
VCountry
p196
aVPop/Rock
p197
atp198
Rp199
sVMN0000141838
p200
g2
((lp201
VPop/Rock
p202
atp203
Rp204
sVMN0000186185
p205
g2
((lp206
VPop/Rock
p207
atp208
Rp209
sVMN0002447909
p210
g2
((lp211
VPop/Rock
p212
atp213
Rp214
sVMN0000838327
p215
g2
((lp216
VPop/Rock
p217
atp218
Rp219
sVMN0000475650
p220
g2
((lp221
VPop/Rock
p222
atp223
Rp224
sVMN0000175286
p225
g2
((lp226
VCountry
p227
atp228
Rp229
sVMN0001002843
p230
g2
((lp231
VCountry
p232
atp233
Rp234
sVMN0000787960
p235
g2
((lp236
VCountry
p237
atp238
Rp239
sVMN0000096964
p240
g2
((lp241
VR&B
p242
aVPop/Rock
p243
atp244
Rp245
sVMN0000583959
p246
g2
((lp247
VCountry
p248
aVPop/Rock
p249
aVVocal
p250
atp251
Rp252
sVMN0000051736
p253
g2
((lp254
VR&B
p255
atp256
Rp257
sVMN0000190632
p258
g2
((lp259
VCountry
p260
atp261
Rp262
sVMN0000774941
p263
g2
((lp264
VCountry
p265
atp266
Rp267
sVMN0000013384
p268
g2
((lp269
VCountry
p270
aVPop/Rock
p271
atp272
Rp273
sVMN0000936206
p274
g2
((lp275
VCountry
p276
aVPop/Rock
p277
atp278
Rp279
sVMN0000677575
p280
g2
((lp281
VCountry
p282
atp283
Rp284
sVMN0000113300
p285
g2
((lp286
VRap
p287
atp288
Rp289
sVMN0000771905
p290
g2
((lp291
VPop/Rock
p292
atp293
Rp294
sVMN0000256974
p295
g2
((lp296
VR&B
p297
atp298
Rp299
sVMN0000628467
p300
g2
((lp301
VPop/Rock
p302
atp303
Rp304
sVMN0000147468
p305
g2
((lp306
VPop/Rock
p307
aVVocal
p308
atp309
Rp310
sVMN0000621869
p311
g2
((lp312
VCountry
p313
atp314
Rp315
sVMN0000315336
p316
g2
((lp317
VVocal
p318
aVEasy Listening
p319
atp320
Rp321
sVMN0000864209
p322
g2
((lp323
VPop/Rock
p324
atp325
Rp326
sVMN0000289599
p327
g2
((lp328
VPop/Rock
p329
atp330
Rp331
sVMN0000658950
p332
g2
((lp333
VRap
p334
atp335
Rp336
sVMN0000664817
p337
g2
((lp338
VInternational
p339
aVPop/Rock
p340
aVLatin
p341
atp342
Rp343
sVMN0000303506
p344
g2
((lp345
VR&B
p346
atp347
Rp348
sVMN0000829523
p349
g2
((lp350
VR&B
p351
atp352
Rp353
sVMN0000145180
p354
g2
((lp355
VR&B
p356
atp357
Rp358
sVMN0000215058
p359
g2
((lp360
VPop/Rock
p361
aVReligious
p362
atp363
Rp364
sVMN0001176481
p365
g2
((lp366
VPop/Rock
p367
atp368
Rp369
sVMN0000355998
p370
g2
((lp371
VR&B
p372
atp373
Rp374
sVMN0000086729
p375
g2
((lp376
VEasy Listening
p377
atp378
Rp379
sVMN0000610880
p380
g2
((lp381
VCountry
p382
atp383
Rp384
sVMN0000013393
p385
g2
((lp386
VR&B
p387
atp388
Rp389
sVMN0000165818
p390
g2
((lp391
VCountry
p392
atp393
Rp394
sVMN0000068934
p395
g2
((lp396
VJazz
p397
aVPop/Rock
p398
aVEasy Listening
p399
atp400
Rp401
sVMN0000678009
p402
g2
((lp403
VJazz
p404
aVStage & Screen
p405
aVEasy Listening
p406
atp407
Rp408
sVMN0000923745
p409
g2
((lp410
VPop/Rock
p411
atp412
Rp413
sVMN0000319347
p414
g2
((lp415
VR&B
p416
atp417
Rp418
sVMN0000234647
p419
g2
((lp420
VR&B
p421
aVPop/Rock
p422
aVElectronic
p423
atp424
Rp425
sVMN0000622805
p426
g2
((lp427
VR&B
p428
atp429
Rp430
sVMN0000963005
p431
g2
((lp432
VR&B
p433
aVPop/Rock
p434
aVRap
p435
atp436
Rp437
sVMN0000089710
p438
g2
((lp439
VR&B
p440
atp441
Rp442
sVMN0000766893
p443
g2
((lp444
VR&B
p445
aVPop/Rock
p446
atp447
Rp448
sVMN0000083095
p449
g2
((lp450
VR&B
p451
aVReligious
p452
atp453
Rp454
sVMN0000749970
p455
g2
((lp456
VPop/Rock
p457
atp458
Rp459
sVMN0000145920
p460
g2
((lp461
VR&B
p462
atp463
Rp464
sVMN0000662797
p465
g2
((lp466
VR&B
p467
aVElectronic
p468
atp469
Rp470
sVMN0000354722
p471
g2
((lp472
VPop/Rock
p473
atp474
Rp475
sVMN0000334740
p476
g2
((lp477
VCountry
p478
atp479
Rp480
sVMN0000327735
p481
g2
((lp482
VPop/Rock
p483
atp484
Rp485
sVMN0000039637
p486
g2
((lp487
VPop/Rock
p488
atp489
Rp490
sVMN0001497537
p491
g2
((lp492
VPop/Rock
p493
atp494
Rp495
sVMN0000816890
p496
g2
((lp497
VCountry
p498
aVPop/Rock
p499
aVReligious
p500
atp501
Rp502
sVMN0000749175
p503
g2
((lp504
VCountry
p505
aVPop/Rock
p506
atp507
Rp508
sVMN0000105354
p509
g2
((lp510
VPop/Rock
p511
atp512
Rp513
sVMN0000575012
p514
g2
((lp515
VR&B
p516
aVPop/Rock
p517
atp518
Rp519
sVMN0000290590
p520
g2
((lp521
VPop/Rock
p522
atp523
Rp524
sVMN0000346336
p525
g2
((lp526
VPop/Rock
p527
aVAvant-Garde
p528
atp529
Rp530
sVMN0000892771
p531
g2
((lp532
VR&B
p533
atp534
Rp535
sVMN0000463435
p536
g2
((lp537
VCountry
p538
aVPop/Rock
p539
atp540
Rp541
sVMN0000820434
p542
g2
((lp543
VR&B
p544
atp545
Rp546
sVMN0000210991
p547
g2
((lp548
VR&B
p549
atp550
Rp551
sVMN0000180228
p552
g2
((lp553
VCountry
p554
aVPop/Rock
p555
atp556
Rp557
sVMN0000246628
p558
g2
((lp559
VR&B
p560
aVPop/Rock
p561
aVReggae
p562
atp563
Rp564
sVMN0000349180
p565
g2
((lp566
VInternational
p567
aVPop/Rock
p568
atp569
Rp570
sVMN0000359119
p571
g2
((lp572
VRap
p573
atp574
Rp575
sVMN0000208076
p576
g2
((lp577
VR&B
p578
aVPop/Rock
p579
atp580
Rp581
sVMN0000390477
p582
g2
((lp583
VR&B
p584
aVPop/Rock
p585
atp586
Rp587
sVMN0000301404
p588
g2
((lp589
VPop/Rock
p590
atp591
Rp592
sVMN0000176332
p593
g2
((lp594
VPop/Rock
p595
atp596
Rp597
sVMN0000674332
p598
g2
((lp599
VJazz
p600
aVPop/Rock
p601
aVEasy Listening
p602
atp603
Rp604
sVMN0000158540
p605
g2
((lp606
VPop/Rock
p607
atp608
Rp609
sVMN0000673933
p610
g2
((lp611
VPop/Rock
p612
atp613
Rp614
sVMN0000046120
p615
g2
((lp616
VPop/Rock
p617
atp618
Rp619
sVMN0000861252
p620
g2
((lp621
VCountry
p622
aVPop/Rock
p623
atp624
Rp625
sVMN0000249559
p626
g2
((lp627
VCountry
p628
atp629
Rp630
sVMN0000495861
p631
g2
((lp632
VCountry
p633
atp634
Rp635
sVMN0000147315
p636
g2
((lp637
VPop/Rock
p638
aVRap
p639
atp640
Rp641
sVMN0000926108
p642
g2
((lp643
VCountry
p644
aVPop/Rock
p645
atp646
Rp647
sVMN0000087985
p648
g2
((lp649
VPop/Rock
p650
atp651
Rp652
sVMN0000204386
p653
g2
((lp654
VPop/Rock
p655
atp656
Rp657
sVMN0000342004
p658
g2
((lp659
VCountry
p660
atp661
Rp662
sVMN0000987777
p663
g2
((lp664
VR&B
p665
atp666
Rp667
sVMN0000466759
p668
g2
((lp669
VPop/Rock
p670
aVReligious
p671
atp672
Rp673
sVMN0000795053
p674
g2
((lp675
VR&B
p676
atp677
Rp678
sVMN0000206241
p679
g2
((lp680
VPop/Rock
p681
atp682
Rp683
sVMN0000295756
p684
g2
((lp685
VPop/Rock
p686
aVJazz
p687
atp688
Rp689
sVMN0000840050
p690
g2
((lp691
VPop/Rock
p692
atp693
Rp694
sVMN0000639304
p695
g2
((lp696
VR&B
p697
atp698
Rp699
sVMN0000634180
p700
g2
((lp701
VR&B
p702
aVElectronic
p703
atp704
Rp705
sVMN0000038466
p706
g2
((lp707
VPop/Rock
p708
aVStage & Screen
p709
aVVocal
p710
aVEasy Listening
p711
atp712
Rp713
sVMN0000339624
p714
g2
((lp715
VPop/Rock
p716
atp717
Rp718
sVMN0000125352
p719
g2
((lp720
VCountry
p721
aVReligious
p722
atp723
Rp724
sVMN0000411761
p725
g2
((lp726
VJazz
p727
aVVocal
p728
atp729
Rp730
sVMN0000210323
p731
g2
((lp732
VR&B
p733
atp734
Rp735
sVMN0000302106
p736
g2
((lp737
VR&B
p738
aVPop/Rock
p739
atp740
Rp741
sVMN0000196976
p742
g2
((lp743
VCountry
p744
atp745
Rp746
sVMN0000895677
p747
g2
((lp748
VPop/Rock
p749
atp750
Rp751
sVMN0000670057
p752
g2
((lp753
VR&B
p754
aVPop/Rock
p755
atp756
Rp757
sVMN0000617104
p758
g2
((lp759
VCountry
p760
aVPop/Rock
p761
atp762
Rp763
sVMN0000291687
p764
g2
((lp765
VPop/Rock
p766
atp767
Rp768
sVMN0000760977
p769
g2
((lp770
VR&B
p771
atp772
Rp773
sVMN0000080494
p774
g2
((lp775
VCountry
p776
aVClassical
p777
atp778
Rp779
sVMN0000347151
p780
g2
((lp781
VPop/Rock
p782
atp783
Rp784
sVMN0000118664
p785
g2
((lp786
VPop/Rock
p787
aVElectronic
p788
aVJazz
p789
atp790
Rp791
sVMN0000504815
p792
g2
((lp793
VPop/Rock
p794
aVVocal
p795
atp796
Rp797
sVMN0000180617
p798
g2
((lp799
VCountry
p800
aVPop/Rock
p801
atp802
Rp803
sVMN0000283405
p804
g2
((lp805
VCountry
p806
atp807
Rp808
sVMN0000068551
p809
g2
((lp810
VCountry
p811
atp812
Rp813
sVMN0000147635
p814
g2
((lp815
VPop/Rock
p816
atp817
Rp818
sVMN0000128099
p819
g2
((lp820
VR&B
p821
atp822
Rp823
sVMN0000081832
p824
g2
((lp825
VPop/Rock
p826
atp827
Rp828
sVMN0000286518
p829
g2
((lp830
VPop/Rock
p831
atp832
Rp833
sVMN0000037730
p834
g2
((lp835
VPop/Rock
p836
atp837
Rp838
sVMN0000078044
p839
g2
((lp840
VR&B
p841
aVJazz
p842
aVPop/Rock
p843
atp844
Rp845
sVMN0000566430
p846
g2
((lp847
VRap
p848
atp849
Rp850
sVMN0000868616
p851
g2
((lp852
VPop/Rock
p853
atp854
Rp855
sVMN0000655746
p856
g2
((lp857
VRap
p858
atp859
Rp860
sVMN0000246960
p861
g2
((lp862
VPop/Rock
p863
atp864
Rp865
sVMN0000007689
p866
g2
((lp867
VR&B
p868
atp869
Rp870
sVMN0000682056
p871
g2
((lp872
VRap
p873
atp874
Rp875
sVMN0000368112
p876
g2
((lp877
VCountry
p878
atp879
Rp880
sVMN0000359026
p881
g2
((lp882
VLatin
p883
aVPop/Rock
p884
atp885
Rp886
sVMN0000894847
p887
g2
((lp888
VR&B
p889
atp890
Rp891
sVMN0000568709
p892
g2
((lp893
VR&B
p894
aVPop/Rock
p895
aVClassical
p896
atp897
Rp898
sVMN0000325401
p899
g2
((lp900
VPop/Rock
p901
atp902
Rp903
sVMN0000537548
p904
g2
((lp905
VRap
p906
atp907
Rp908
sVMN0000287407
p909
g2
((lp910
VPop/Rock
p911
atp912
Rp913
sVMN0000610339
p914
g2
((lp915
VPop/Rock
p916
atp917
Rp918
sVMN0000179730
p919
g2
((lp920
VCountry
p921
aVPop/Rock
p922
aVR&B
p923
atp924
Rp925
sVMN0000266063
p926
g2
((lp927
VR&B
p928
atp929
Rp930
sVMN0000165011
p931
g2
((lp932
VR&B
p933
aVPop/Rock
p934
atp935
Rp936
sVMN0000133719
p937
g2
((lp938
VElectronic
p939
atp940
Rp941
sVMN0000801762
p942
g2
((lp943
VCountry
p944
aVEasy Listening
p945
atp946
Rp947
sVMN0000490738
p948
g2
((lp949
VR&B
p950
aVElectronic
p951
atp952
Rp953
sVMN0000503242
p954
g2
((lp955
VCountry
p956
atp957
Rp958
sVMN0000006334
p959
g2
((lp960
VJazz
p961
aVStage & Screen
p962
aVVocal
p963
atp964
Rp965
sVMN0000884962
p966
g2
((lp967
VR&B
p968
aVPop/Rock
p969
atp970
Rp971
sVMN0000262255
p972
g2
((lp973
VR&B
p974
atp975
Rp976
sVMN0000246885
p977
g2
((lp978
VR&B
p979
aVPop/Rock
p980
aVStage & Screen
p981
aVVocal
p982
atp983
Rp984
sVMN0000577235
p985
g2
((lp986
VR&B
p987
aVReligious
p988
atp989
Rp990
sVMN0000052900
p991
g2
((lp992
VPop/Rock
p993
aVFolk
p994
atp995
Rp996
sVMN0000409954
p997
g2
((lp998
VCountry
p999
aVReligious
p1000
atp1001
Rp1002
sVMN0000924176
p1003
g2
((lp1004
VCountry
p1005
atp1006
Rp1007
sVMN0000935330
p1008
g2
((lp1009
VR&B
p1010
atp1011
Rp1012
sVMN0000488908
p1013
g2
((lp1014
VRap
p1015
atp1016
Rp1017
sVMN0000279337
p1018
g2
((lp1019
VR&B
p1020
atp1021
Rp1022
sVMN0000746302
p1023
g2
((lp1024
VPop/Rock
p1025
atp1026
Rp1027
sVMN0000855531
p1028
g2
((lp1029
VPop/Rock
p1030
aVStage & Screen
p1031
aVVocal
p1032
atp1033
Rp1034
sVMN0000064303
p1035
g2
((lp1036
VPop/Rock
p1037
atp1038
Rp1039
sVMN0000218994
p1040
g2
((lp1041
VCountry
p1042
atp1043
Rp1044
sVMN0000420381
p1045
g2
((lp1046
VRap
p1047
atp1048
Rp1049
sVMN0000633078
p1050
g2
((lp1051
VPop/Rock
p1052
aVJazz
p1053
atp1054
Rp1055
sVMN0000228715
p1056
g2
((lp1057
VPop/Rock
p1058
atp1059
Rp1060
sVMN0000673486
p1061
g2
((lp1062
VLatin
p1063
aVElectronic
p1064
aVPop/Rock
p1065
atp1066
Rp1067
sVMN0000383853
p1068
g2
((lp1069
VCountry
p1070
atp1071
Rp1072
sVMN0000007448
p1073
g2
((lp1074
VR&B
p1075
atp1076
Rp1077
sVMN0000089058
p1078
g2
((lp1079
VR&B
p1080
aVPop/Rock
p1081
atp1082
Rp1083
sVMN0000166291
p1084
g2
((lp1085
VPop/Rock
p1086
atp1087
Rp1088
sVMN0000732709
p1089
g2
((lp1090
VR&B
p1091
aVPop/Rock
p1092
atp1093
Rp1094
sVMN0000671953
p1095
g2
((lp1096
VPop/Rock
p1097
atp1098
Rp1099
sVMN0000167878
p1100
g2
((lp1101
VR&B
p1102
aVPop/Rock
p1103
aVLatin
p1104
aVRap
p1105
atp1106
Rp1107
sVMN0000106514
p1108
g2
((lp1109
VCountry
p1110
aVPop/Rock
p1111
atp1112
Rp1113
s.