(dp0
VMN0000239827
p1
c__builtin__
set
p2
((lp3
VPop/Rock
p4
atp5
Rp6
sVMN0000344609
p7
g2
((lp8
VPop/Rock
p9
aVElectronic
p10
atp11
Rp12
sVMN0000748994
p13
g2
((lp14
VRap
p15
atp16
Rp17
sVMN0000295276
p18
g2
((lp19
VReggae
p20
aVR&B
p21
atp22
Rp23
sVMN0000159805
p24
g2
((lp25
VPop/Rock
p26
aVElectronic
p27
atp28
Rp29
sVMN0000390532
p30
g2
((lp31
VPop/Rock
p32
atp33
Rp34
sVMN0000134729
p35
g2
((lp36
VPop/Rock
p37
atp38
Rp39
sVMN0000614598
p40
g2
((lp41
VRap
p42
atp43
Rp44
sVMN0000492249
p45
g2
((lp46
VElectronic
p47
atp48
Rp49
sVMN0000835585
p50
g2
((lp51
VPop/Rock
p52
atp53
Rp54
sVMN0000661795
p55
g2
((lp56
VRap
p57
atp58
Rp59
sVMN0000852688
p60
g2
((lp61
VPop/Rock
p62
atp63
Rp64
sVMN0000530745
p65
g2
((lp66
VPop/Rock
p67
aVFolk
p68
atp69
Rp70
sVMN0000467382
p71
g2
((lp72
VPop/Rock
p73
aVStage & Screen
p74
atp75
Rp76
sVMN0000373634
p77
g2
((lp78
VRap
p79
atp80
Rp81
sVMN0000618713
p82
g2
((lp83
VPop/Rock
p84
atp85
Rp86
sVMN0000070800
p87
g2
((lp88
VPop/Rock
p89
atp90
Rp91
sVMN0000036106
p92
g2
((lp93
VPop/Rock
p94
atp95
Rp96
sVMN0000213212
p97
g2
((lp98
VPop/Rock
p99
aVFolk
p100
atp101
Rp102
sVMN0000758444
p103
g2
((lp104
VPop/Rock
p105
atp106
Rp107
sVMN0000775323
p108
g2
((lp109
VPop/Rock
p110
atp111
Rp112
sVMN0000758630
p113
g2
((lp114
VPop/Rock
p115
atp116
Rp117
sVMN0000008828
p118
g2
((lp119
VPop/Rock
p120
aVElectronic
p121
atp122
Rp123
sVMN0000128440
p124
g2
((lp125
VPop/Rock
p126
atp127
Rp128
sVMN0000059101
p129
g2
((lp130
VR&B
p131
atp132
Rp133
sVMN0000936425
p134
g2
((lp135
VR&B
p136
aVPop/Rock
p137
atp138
Rp139
sVMN0000406657
p140
g2
((lp141
VPop/Rock
p142
atp143
Rp144
sVMN0000239921
p145
g2
((lp146
VPop/Rock
p147
atp148
Rp149
sVMN0000010458
p150
g2
((lp151
VPop/Rock
p152
aVElectronic
p153
atp154
Rp155
sVMN0000883318
p156
g2
((lp157
VPop/Rock
p158
atp159
Rp160
sVMN0000540010
p161
g2
((lp162
VReggae
p163
aVElectronic
p164
atp165
Rp166
sVMN0000799053
p167
g2
((lp168
VPop/Rock
p169
aVFolk
p170
atp171
Rp172
sVMN0000866491
p173
g2
((lp174
VR&B
p175
atp176
Rp177
sVMN0000219203
p178
g2
((lp179
VPop/Rock
p180
atp181
Rp182
sVMN0000024944
p183
g2
((lp184
VPop/Rock
p185
aVReligious
p186
atp187
Rp188
sVMN0000776093
p189
g2
((lp190
VPop/Rock
p191
aVElectronic
p192
atp193
Rp194
sVMN0000780258
p195
g2
((lp196
VR&B
p197
aVPop/Rock
p198
atp199
Rp200
sVMN0000069986
p201
g2
((lp202
VCountry
p203
aVPop/Rock
p204
atp205
Rp206
sVMN0000069153
p207
g2
((lp208
VCountry
p209
aVPop/Rock
p210
aVFolk
p211
atp212
Rp213
sVMN0000182415
p214
g2
((lp215
VRap
p216
atp217
Rp218
sVMN0000238322
p219
g2
((lp220
VRap
p221
atp222
Rp223
sVMN0000222436
p224
g2
((lp225
VPop/Rock
p226
atp227
Rp228
sVMN0000058549
p229
g2
((lp230
VPop/Rock
p231
atp232
Rp233
sVMN0000080780
p234
g2
((lp235
VPop/Rock
p236
atp237
Rp238
sVMN0000209142
p239
g2
((lp240
VPop/Rock
p241
atp242
Rp243
sVMN0000987621
p244
g2
((lp245
VPop/Rock
p246
atp247
Rp248
sVMN0000049026
p249
g2
((lp250
VPop/Rock
p251
aVReligious
p252
atp253
Rp254
sVMN0000832833
p255
g2
((lp256
VR&B
p257
aVPop/Rock
p258
atp259
Rp260
sVMN0000114342
p261
g2
((lp262
VPop/Rock
p263
atp264
Rp265
sVMN0000804703
p266
g2
((lp267
VPop/Rock
p268
atp269
Rp270
sVMN0000184811
p271
g2
((lp272
VPop/Rock
p273
aVElectronic
p274
atp275
Rp276
sVMN0000110161
p277
g2
((lp278
VPop/Rock
p279
atp280
Rp281
sVMN0000090124
p282
g2
((lp283
VElectronic
p284
atp285
Rp286
sVMN0000103484
p287
g2
((lp288
VPop/Rock
p289
atp290
Rp291
sVMN0000140608
p292
g2
((lp293
VPop/Rock
p294
atp295
Rp296
sVMN0000934069
p297
g2
((lp298
VCountry
p299
aVPop/Rock
p300
atp301
Rp302
sVMN0000341672
p303
g2
((lp304
VPop/Rock
p305
atp306
Rp307
sVMN0000175049
p308
g2
((lp309
VPop/Rock
p310
atp311
Rp312
sVMN0000158309
p313
g2
((lp314
VPop/Rock
p315
atp316
Rp317
sVMN0000337119
p318
g2
((lp319
VPop/Rock
p320
aVElectronic
p321
atp322
Rp323
sVMN0000180228
p324
g2
((lp325
VCountry
p326
aVPop/Rock
p327
atp328
Rp329
sVMN0000393031
p330
g2
((lp331
VPop/Rock
p332
atp333
Rp334
sVMN0000391003
p335
g2
((lp336
VPop/Rock
p337
aVReligious
p338
atp339
Rp340
sVMN0000402872
p341
g2
((lp342
VR&B
p343
atp344
Rp345
sVMN0000031380
p346
g2
((lp347
VR&B
p348
aVPop/Rock
p349
aVElectronic
p350
atp351
Rp352
sVMN0000014651
p353
g2
((lp354
VCountry
p355
aVPop/Rock
p356
atp357
Rp358
sVMN0000858375
p359
g2
((lp360
VCountry
p361
aVPop/Rock
p362
atp363
Rp364
sVMN0000961234
p365
g2
((lp366
VPop/Rock
p367
atp368
Rp369
sVMN0000813463
p370
g2
((lp371
VPop/Rock
p372
atp373
Rp374
sVMN0000201760
p375
g2
((lp376
VR&B
p377
aVJazz
p378
atp379
Rp380
sVMN0000079960
p381
g2
((lp382
VPop/Rock
p383
atp384
Rp385
sVMN0000270497
p386
g2
((lp387
VPop/Rock
p388
atp389
Rp390
sVMN0000041874
p391
g2
((lp392
VPop/Rock
p393
atp394
Rp395
sVMN0000599732
p396
g2
((lp397
VRap
p398
atp399
Rp400
sVMN0000667669
p401
g2
((lp402
VElectronic
p403
atp404
Rp405
sVMN0000270491
p406
g2
((lp407
VPop/Rock
p408
aVJazz
p409
atp410
Rp411
sVMN0000290072
p412
g2
((lp413
VR&B
p414
aVPop/Rock
p415
atp416
Rp417
sVMN0000011754
p418
g2
((lp419
VPop/Rock
p420
atp421
Rp422
sVMN0000139089
p423
g2
((lp424
VPop/Rock
p425
atp426
Rp427
sVMN0000475431
p428
g2
((lp429
VPop/Rock
p430
atp431
Rp432
sVMN0000066915
p433
g2
((lp434
VPop/Rock
p435
aVFolk
p436
atp437
Rp438
sVMN0000792530
p439
g2
((lp440
VPop/Rock
p441
atp442
Rp443
sVMN0000147785
p444
g2
((lp445
VPop/Rock
p446
atp447
Rp448
sVMN0000113300
p449
g2
((lp450
VRap
p451
atp452
Rp453
sVMN0000175579
p454
g2
((lp455
VPop/Rock
p456
atp457
Rp458
sVMN0000048507
p459
g2
((lp460
VR&B
p461
atp462
Rp463
sVMN0000864209
p464
g2
((lp465
VPop/Rock
p466
atp467
Rp468
sVMN0000026227
p469
g2
((lp470
VPop/Rock
p471
atp472
Rp473
sVMN0000289599
p474
g2
((lp475
VPop/Rock
p476
atp477
Rp478
sVMN0000127063
p479
g2
((lp480
VR&B
p481
atp482
Rp483
sVMN0000105129
p484
g2
((lp485
VPop/Rock
p486
atp487
Rp488
sVMN0000260212
p489
g2
((lp490
VPop/Rock
p491
atp492
Rp493
sVMN0000988471
p494
g2
((lp495
VNew Age
p496
aVInternational
p497
aVPop/Rock
p498
atp499
Rp500
sVMN0000164053
p501
g2
((lp502
VR&B
p503
atp504
Rp505
sVMN0000131650
p506
g2
((lp507
VPop/Rock
p508
atp509
Rp510
sVMN0000047789
p511
g2
((lp512
VPop/Rock
p513
atp514
Rp515
sVMN0000002923
p516
g2
((lp517
VPop/Rock
p518
atp519
Rp520
sVMN0000123754
p521
g2
((lp522
VPop/Rock
p523
atp524
Rp525
sVMN0000199995
p526
g2
((lp527
VPop/Rock
p528
atp529
Rp530
sVMN0000358408
p531
g2
((lp532
VRap
p533
atp534
Rp535
sVMN0000084446
p536
g2
((lp537
VR&B
p538
atp539
Rp540
sVMN0000106916
p541
g2
((lp542
VCountry
p543
atp544
Rp545
sVMN0000776371
p546
g2
((lp547
VR&B
p548
aVElectronic
p549
atp550
Rp551
sVMN0000328014
p552
g2
((lp553
VReggae
p554
atp555
Rp556
sVMN0000622805
p557
g2
((lp558
VR&B
p559
atp560
Rp561
sVMN0000091549
p562
g2
((lp563
VPop/Rock
p564
atp565
Rp566
sVMN0000094813
p567
g2
((lp568
VRap
p569
atp570
Rp571
sVMN0000747757
p572
g2
((lp573
VPop/Rock
p574
atp575
Rp576
sVMN0000345355
p577
g2
((lp578
VPop/Rock
p579
atp580
Rp581
sVMN0000963005
p582
g2
((lp583
VR&B
p584
aVPop/Rock
p585
aVRap
p586
atp587
Rp588
sVMN0000390390
p589
g2
((lp590
VR&B
p591
atp592
Rp593
sVMN0000263271
p594
g2
((lp595
VPop/Rock
p596
aVReligious
p597
atp598
Rp599
sVMN0000137390
p600
g2
((lp601
VPop/Rock
p602
atp603
Rp604
sVMN0000193320
p605
g2
((lp606
VPop/Rock
p607
atp608
Rp609
sVMN0000151979
p610
g2
((lp611
VPop/Rock
p612
atp613
Rp614
sVMN0000743623
p615
g2
((lp616
VPop/Rock
p617
atp618
Rp619
sVMN0000156938
p620
g2
((lp621
VReggae
p622
aVPop/Rock
p623
aVElectronic
p624
aVR&B
p625
atp626
Rp627
sVMN0000578999
p628
g2
((lp629
VR&B
p630
atp631
Rp632
sVMN0000757085
p633
g2
((lp634
VPop/Rock
p635
atp636
Rp637
sVMN0000081619
p638
g2
((lp639
VCountry
p640
aVPop/Rock
p641
atp642
Rp643
sVMN0000077732
p644
g2
((lp645
VPop/Rock
p646
atp647
Rp648
sVMN0000043714
p649
g2
((lp650
VR&B
p651
aVPop/Rock
p652
atp653
Rp654
sVMN0000685647
p655
g2
((lp656
VPop/Rock
p657
atp658
Rp659
sVMN0000084209
p660
g2
((lp661
VPop/Rock
p662
atp663
Rp664
sVMN0000608945
p665
g2
((lp666
VR&B
p667
atp668
Rp669
sVMN0000152023
p670
g2
((lp671
VPop/Rock
p672
atp673
Rp674
sVMN0000105354
p675
g2
((lp676
VPop/Rock
p677
atp678
Rp679
sVMN0000334193
p680
g2
((lp681
VPop/Rock
p682
atp683
Rp684
sVMN0000929862
p685
g2
((lp686
VR&B
p687
aVElectronic
p688
aVRap
p689
atp690
Rp691
sVMN0000227352
p692
g2
((lp693
VStage & Screen
p694
aVEasy Listening
p695
atp696
Rp697
sVMN0000536275
p698
g2
((lp699
VPop/Rock
p700
aVVocal
p701
atp702
Rp703
sVMN0000583959
p704
g2
((lp705
VCountry
p706
aVPop/Rock
p707
aVVocal
p708
atp709
Rp710
sVMN0000194063
p711
g2
((lp712
VCountry
p713
aVPop/Rock
p714
atp715
Rp716
sVMN0000252495
p717
g2
((lp718
VPop/Rock
p719
aVStage & Screen
p720
aVVocal
p721
atp722
Rp723
sVMN0000372322
p724
g2
((lp725
VPop/Rock
p726
atp727
Rp728
sVMN0000850692
p729
g2
((lp730
VPop/Rock
p731
atp732
Rp733
sVMN0000029808
p734
g2
((lp735
VPop/Rock
p736
atp737
Rp738
sVMN0000351227
p739
g2
((lp740
VPop/Rock
p741
atp742
Rp743
sVMN0000926237
p744
g2
((lp745
VPop/Rock
p746
atp747
Rp748
sVMN0000099246
p749
g2
((lp750
VPop/Rock
p751
atp752
Rp753
sVMN0000246628
p754
g2
((lp755
VR&B
p756
aVPop/Rock
p757
aVReggae
p758
atp759
Rp760
sVMN0000361393
p761
g2
((lp762
VR&B
p763
aVPop/Rock
p764
atp765
Rp766
sVMN0000892827
p767
g2
((lp768
VRap
p769
atp770
Rp771
sVMN0000383889
p772
g2
((lp773
VPop/Rock
p774
atp775
Rp776
sVMN0000478982
p777
g2
((lp778
VRap
p779
atp780
Rp781
sVMN0000081316
p782
g2
((lp783
VRap
p784
atp785
Rp786
sVMN0000113753
p787
g2
((lp788
VRap
p789
atp790
Rp791
sVMN0000317865
p792
g2
((lp793
VPop/Rock
p794
aVLatin
p795
atp796
Rp797
sVMN0000094752
p798
g2
((lp799
VRap
p800
atp801
Rp802
sVMN0000826762
p803
g2
((lp804
VR&B
p805
aVRap
p806
atp807
Rp808
sVMN0000085915
p809
g2
((lp810
VPop/Rock
p811
atp812
Rp813
sVMN0000000534
p814
g2
((lp815
VR&B
p816
aVPop/Rock
p817
aVElectronic
p818
atp819
Rp820
sVMN0000865016
p821
g2
((lp822
VR&B
p823
aVPop/Rock
p824
atp825
Rp826
sVMN0000845662
p827
g2
((lp828
VR&B
p829
atp830
Rp831
sVMN0000022928
p832
g2
((lp833
VPop/Rock
p834
atp835
Rp836
sVMN0000129775
p837
g2
((lp838
VR&B
p839
atp840
Rp841
sVMN0000678339
p842
g2
((lp843
VPop/Rock
p844
atp845
Rp846
sVMN0000624215
p847
g2
((lp848
VR&B
p849
aVPop/Rock
p850
atp851
Rp852
sVMN0000225930
p853
g2
((lp854
VPop/Rock
p855
atp856
Rp857
sVMN0000605375
p858
g2
((lp859
VCountry
p860
atp861
Rp862
sVMN0000816538
p863
g2
((lp864
VR&B
p865
atp866
Rp867
sVMN0000130689
p868
g2
((lp869
VPop/Rock
p870
atp871
Rp872
sVMN0000144847
p873
g2
((lp874
VPop/Rock
p875
atp876
Rp877
sVMN0000737886
p878
g2
((lp879
VLatin
p880
aVPop/Rock
p881
atp882
Rp883
sVMN0000165077
p884
g2
((lp885
VPop/Rock
p886
aVReligious
p887
atp888
Rp889
sVMN0000206241
p890
g2
((lp891
VPop/Rock
p892
atp893
Rp894
sVMN0000303506
p895
g2
((lp896
VR&B
p897
atp898
Rp899
sVMN0000923033
p900
g2
((lp901
VPop/Rock
p902
atp903
Rp904
sVMN0000612716
p905
g2
((lp906
VPop/Rock
p907
atp908
Rp909
sVMN0000237205
p910
g2
((lp911
VPop/Rock
p912
aVElectronic
p913
atp914
Rp915
sVMN0000011707
p916
g2
((lp917
VPop/Rock
p918
atp919
Rp920
sVMN0000621639
p921
g2
((lp922
VRap
p923
atp924
Rp925
sVMN0000842802
p926
g2
((lp927
VInternational
p928
aVPop/Rock
p929
atp930
Rp931
sVMN0000029086
p932
g2
((lp933
VRap
p934
atp935
Rp936
sVMN0000894465
p937
g2
((lp938
VPop/Rock
p939
atp940
Rp941
sVMN0000101946
p942
g2
((lp943
VR&B
p944
aVStage & Screen
p945
atp946
Rp947
sVMN0000098342
p948
g2
((lp949
VR&B
p950
aVPop/Rock
p951
aVElectronic
p952
atp953
Rp954
sVMN0000816890
p955
g2
((lp956
VCountry
p957
aVPop/Rock
p958
aVReligious
p959
atp960
Rp961
sVMN0000830538
p962
g2
((lp963
VPop/Rock
p964
atp965
Rp966
sVMN0000270667
p967
g2
((lp968
VPop/Rock
p969
atp970
Rp971
sVMN0000144458
p972
g2
((lp973
VR&B
p974
atp975
Rp976
sVMN0000546214
p977
g2
((lp978
VPop/Rock
p979
aVElectronic
p980
atp981
Rp982
sVMN0000748222
p983
g2
((lp984
VPop/Rock
p985
atp986
Rp987
sVMN0000027136
p988
g2
((lp989
VLatin
p990
aVElectronic
p991
atp992
Rp993
sVMN0000264350
p994
g2
((lp995
VReggae
p996
aVPop/Rock
p997
atp998
Rp999
sVMN0000303626
p1000
g2
((lp1001
VPop/Rock
p1002
atp1003
Rp1004
sVMN0000604852
p1005
g2
((lp1006
VPop/Rock
p1007
atp1008
Rp1009
sVMN0000017387
p1010
g2
((lp1011
VPop/Rock
p1012
aVReligious
p1013
atp1014
Rp1015
sVMN0000057663
p1016
g2
((lp1017
VPop/Rock
p1018
atp1019
Rp1020
sVMN0000242211
p1021
g2
((lp1022
VPop/Rock
p1023
atp1024
Rp1025
sVMN0000128099
p1026
g2
((lp1027
VR&B
p1028
atp1029
Rp1030
sVMN0000645474
p1031
g2
((lp1032
VPop/Rock
p1033
atp1034
Rp1035
sVMN0000785101
p1036
g2
((lp1037
VPop/Rock
p1038
aVElectronic
p1039
atp1040
Rp1041
sVMN0000037730
p1042
g2
((lp1043
VPop/Rock
p1044
atp1045
Rp1046
sVMN0000316834
p1047
g2
((lp1048
VR&B
p1049
atp1050
Rp1051
sVMN0000224345
p1052
g2
((lp1053
VPop/Rock
p1054
atp1055
Rp1056
sVMN0000281254
p1057
g2
((lp1058
VCountry
p1059
aVPop/Rock
p1060
atp1061
Rp1062
sVMN0000007689
p1063
g2
((lp1064
VR&B
p1065
atp1066
Rp1067
sVMN0000227088
p1068
g2
((lp1069
VCountry
p1070
aVPop/Rock
p1071
atp1072
Rp1073
sVMN0000020050
p1074
g2
((lp1075
VBlues
p1076
aVPop/Rock
p1077
atp1078
Rp1079
sVMN0000262794
p1080
g2
((lp1081
VPop/Rock
p1082
atp1083
Rp1084
sVMN0000224186
p1085
g2
((lp1086
VPop/Rock
p1087
atp1088
Rp1089
sVMN0000045313
p1090
g2
((lp1091
VR&B
p1092
aVPop/Rock
p1093
atp1094
Rp1095
sVMN0000146841
p1096
g2
((lp1097
VCountry
p1098
atp1099
Rp1100
sVMN0000169677
p1101
g2
((lp1102
VR&B
p1103
atp1104
Rp1105
sVMN0000597309
p1106
g2
((lp1107
VR&B
p1108
aVPop/Rock
p1109
atp1110
Rp1111
sVMN0000690254
p1112
g2
((lp1113
VPop/Rock
p1114
atp1115
Rp1116
sVMN0000317108
p1117
g2
((lp1118
VR&B
p1119
atp1120
Rp1121
sVMN0000659517
p1122
g2
((lp1123
VPop/Rock
p1124
atp1125
Rp1126
sVMN0000355208
p1127
g2
((lp1128
VPop/Rock
p1129
atp1130
Rp1131
sVMN0000134600
p1132
g2
((lp1133
VR&B
p1134
atp1135
Rp1136
sVMN0000610339
p1137
g2
((lp1138
VPop/Rock
p1139
atp1140
Rp1141
sVMN0000669303
p1142
g2
((lp1143
VPop/Rock
p1144
atp1145
Rp1146
sVMN0000478603
p1147
g2
((lp1148
VPop/Rock
p1149
atp1150
Rp1151
sVMN0000955647
p1152
g2
((lp1153
VHoliday
p1154
aVPop/Rock
p1155
aVClassical
p1156
aVEasy Listening
p1157
atp1158
Rp1159
sVMN0000765595
p1160
g2
((lp1161
VPop/Rock
p1162
aVElectronic
p1163
atp1164
Rp1165
sVMN0000078467
p1166
g2
((lp1167
VPop/Rock
p1168
aVElectronic
p1169
atp1170
Rp1171
sVMN0000162269
p1172
g2
((lp1173
VCountry
p1174
aVPop/Rock
p1175
atp1176
Rp1177
sVMN0000260206
p1178
g2
((lp1179
VPop/Rock
p1180
atp1181
Rp1182
sVMN0000665908
p1183
g2
((lp1184
VPop/Rock
p1185
atp1186
Rp1187
sVMN0000069534
p1188
g2
((lp1189
VPop/Rock
p1190
atp1191
Rp1192
sVMN0000665860
p1193
g2
((lp1194
VPop/Rock
p1195
atp1196
Rp1197
sVMN0000033666
p1198
g2
((lp1199
VPop/Rock
p1200
atp1201
Rp1202
sVMN0000182900
p1203
g2
((lp1204
VBlues
p1205
aVPop/Rock
p1206
atp1207
Rp1208
sVMN0000262255
p1209
g2
((lp1210
VR&B
p1211
atp1212
Rp1213
sVMN0000797431
p1214
g2
((lp1215
VPop/Rock
p1216
atp1217
Rp1218
sVMN0000006987
p1219
g2
((lp1220
VRap
p1221
atp1222
Rp1223
sVMN0000594665
p1224
g2
((lp1225
VR&B
p1226
aVPop/Rock
p1227
atp1228
Rp1229
sVMN0000138699
p1230
g2
((lp1231
VComedy/Spoken
p1232
aVPop/Rock
p1233
aVAvant-Garde
p1234
aVJazz
p1235
aVClassical
p1236
atp1237
Rp1238
sVMN0000183311
p1239
g2
((lp1240
VR&B
p1241
aVPop/Rock
p1242
atp1243
Rp1244
sVMN0000072041
p1245
g2
((lp1246
VPop/Rock
p1247
atp1248
Rp1249
sVMN0000304401
p1250
g2
((lp1251
VPop/Rock
p1252
atp1253
Rp1254
sVMN0000496487
p1255
g2
((lp1256
VPop/Rock
p1257
atp1258
Rp1259
sVMN0000279337
p1260
g2
((lp1261
VR&B
p1262
atp1263
Rp1264
sVMN0000806542
p1265
g2
((lp1266
VR&B
p1267
aVBlues
p1268
aVPop/Rock
p1269
atp1270
Rp1271
sVMN0000762496
p1272
g2
((lp1273
VPop/Rock
p1274
atp1275
Rp1276
sVMN0000626939
p1277
g2
((lp1278
VPop/Rock
p1279
atp1280
Rp1281
sVMN0000174557
p1282
g2
((lp1283
VPop/Rock
p1284
atp1285
Rp1286
sVMN0000204386
p1287
g2
((lp1288
VPop/Rock
p1289
atp1290
Rp1291
sVMN0000420381
p1292
g2
((lp1293
VRap
p1294
atp1295
Rp1296
sVMN0000012472
p1297
g2
((lp1298
VPop/Rock
p1299
aVFolk
p1300
atp1301
Rp1302
sVMN0000576718
p1303
g2
((lp1304
VPop/Rock
p1305
atp1306
Rp1307
sVMN0000796734
p1308
g2
((lp1309
VPop/Rock
p1310
atp1311
Rp1312
sVMN0000768321
p1313
g2
((lp1314
VPop/Rock
p1315
atp1316
Rp1317
sVMN0000792839
p1318
g2
((lp1319
VR&B
p1320
atp1321
Rp1322
sVMN0000927555
p1323
g2
((lp1324
VR&B
p1325
atp1326
Rp1327
sVMN0000768328
p1328
g2
((lp1329
VCountry
p1330
atp1331
Rp1332
sVMN0000339624
p1333
g2
((lp1334
VPop/Rock
p1335
atp1336
Rp1337
sVMN0000758453
p1338
g2
((lp1339
VPop/Rock
p1340
atp1341
Rp1342
sVMN0000048903
p1343
g2
((lp1344
VR&B
p1345
atp1346
Rp1347
sVMN0000110011
p1348
g2
((lp1349
VPop/Rock
p1350
atp1351
Rp1352
sVMN0000298764
p1353
g2
((lp1354
VPop/Rock
p1355
atp1356
Rp1357
sVMN0000208774
p1358
g2
((lp1359
VR&B
p1360
atp1361
Rp1362
sVMN0000696015
p1363
g2
((lp1364
VPop/Rock
p1365
aVFolk
p1366
atp1367
Rp1368
sVMN0000159214
p1369
g2
((lp1370
VR&B
p1371
aVPop/Rock
p1372
atp1373
Rp1374
s.