(dp0
VMN0000053428
p1
c__builtin__
set
p2
((lp3
VR&B
p4
atp5
Rp6
sVMN0000837486
p7
g2
((lp8
VPop/Rock
p9
atp10
Rp11
sVMN0000892771
p12
g2
((lp13
VR&B
p14
atp15
Rp16
sVMN0000051828
p17
g2
((lp18
VRap
p19
atp20
Rp21
sVMN0000762731
p22
g2
((lp23
VR&B
p24
atp25
Rp26
sVMN0000869409
p27
g2
((lp28
VR&B
p29
atp30
Rp31
sVMN0000614598
p32
g2
((lp33
VRap
p34
atp35
Rp36
sVMN0000924318
p37
g2
((lp38
VInternational
p39
aVLatin
p40
atp41
Rp42
sVMN0000070929
p43
g2
((lp44
VR&B
p45
aVPop/Rock
p46
atp47
Rp48
sVMN0000481057
p49
g2
((lp50
VPop/Rock
p51
atp52
Rp53
sVMN0000048507
p54
g2
((lp55
VR&B
p56
atp57
Rp58
sVMN0000186597
p59
g2
((lp60
VComedy/Spoken
p61
aVPop/Rock
p62
atp63
Rp64
sVMN0000403184
p65
g2
((lp66
VCountry
p67
aVPop/Rock
p68
atp69
Rp70
sVMN0000260038
p71
g2
((lp72
VR&B
p73
aVBlues
p74
aVJazz
p75
aVVocal
p76
atp77
Rp78
sVMN0000314505
p79
g2
((lp80
VR&B
p81
aVPop/Rock
p82
atp83
Rp84
sVMN0000070800
p85
g2
((lp86
VPop/Rock
p87
atp88
Rp89
sVMN0000118791
p90
g2
((lp91
VCountry
p92
aVPop/Rock
p93
atp94
Rp95
sVMN0000076658
p96
g2
((lp97
VJazz
p98
atp99
Rp100
sVMN0000670226
p101
g2
((lp102
VPop/Rock
p103
atp104
Rp105
sVMN0000087985
p106
g2
((lp107
VPop/Rock
p108
atp109
Rp110
sVMN0000053606
p111
g2
((lp112
VR&B
p113
atp114
Rp115
sVMN0002453941
p116
g2
((lp117
VPop/Rock
p118
atp119
Rp120
sVMN0000317865
p121
g2
((lp122
VPop/Rock
p123
aVLatin
p124
atp125
Rp126
sVMN0000128440
p127
g2
((lp128
VPop/Rock
p129
atp130
Rp131
sVMN0000118189
p132
g2
((lp133
VCountry
p134
atp135
Rp136
sVMN0000936425
p137
g2
((lp138
VR&B
p139
aVPop/Rock
p140
atp141
Rp142
sVMN0000625731
p143
g2
((lp144
VPop/Rock
p145
atp146
Rp147
sVMN0000677781
p148
g2
((lp149
VR&B
p150
aVPop/Rock
p151
atp152
Rp153
sVMN0000382734
p154
g2
((lp155
VVocal
p156
atp157
Rp158
sVMN0000239921
p159
g2
((lp160
VPop/Rock
p161
atp162
Rp163
sVMN0000603980
p164
g2
((lp165
VComedy/Spoken
p166
aVVocal
p167
aVPop/Rock
p168
atp169
Rp170
sVMN0000012180
p171
g2
((lp172
VCountry
p173
atp174
Rp175
sVMN0000671953
p176
g2
((lp177
VPop/Rock
p178
atp179
Rp180
sVMN0000143951
p181
g2
((lp182
VCountry
p183
atp184
Rp185
sVMN0000181376
p186
g2
((lp187
VReggae
p188
aVPop/Rock
p189
atp190
Rp191
sVMN0000226714
p192
g2
((lp193
VRap
p194
atp195
Rp196
sVMN0000511235
p197
g2
((lp198
VPop/Rock
p199
atp200
Rp201
sVMN0000481827
p202
g2
((lp203
VCountry
p204
aVPop/Rock
p205
atp206
Rp207
sVMN0000112789
p208
g2
((lp209
VPop/Rock
p210
atp211
Rp212
sVMN0000806645
p213
g2
((lp214
VPop/Rock
p215
atp216
Rp217
sVMN0000689606
p218
g2
((lp219
VRap
p220
atp221
Rp222
sVMN0000156484
p223
g2
((lp224
VPop/Rock
p225
atp226
Rp227
sVMN0000209142
p228
g2
((lp229
VPop/Rock
p230
atp231
Rp232
sVMN0000180228
p233
g2
((lp234
VCountry
p235
aVPop/Rock
p236
atp237
Rp238
sVMN0000018977
p239
g2
((lp240
VPop/Rock
p241
atp242
Rp243
sVMN0000567153
p244
g2
((lp245
VPop/Rock
p246
atp247
Rp248
sVMN0000031685
p249
g2
((lp250
VInternational
p251
aVPop/Rock
p252
atp253
Rp254
sVMN0000377891
p255
g2
((lp256
VPop/Rock
p257
aVStage & Screen
p258
atp259
Rp260
sVMN0000110161
p261
g2
((lp262
VPop/Rock
p263
atp264
Rp265
sVMN0000186185
p266
g2
((lp267
VPop/Rock
p268
atp269
Rp270
sVMN0000127220
p271
g2
((lp272
VR&B
p273
atp274
Rp275
sVMN0000060476
p276
g2
((lp277
VR&B
p278
aVPop/Rock
p279
atp280
Rp281
sVMN0000752789
p282
g2
((lp283
VRap
p284
atp285
Rp286
sVMN0000922471
p287
g2
((lp288
VR&B
p289
aVPop/Rock
p290
aVRap
p291
aVReggae
p292
atp293
Rp294
sVMN0000175049
p295
g2
((lp296
VPop/Rock
p297
atp298
Rp299
sVMN0000158309
p300
g2
((lp301
VPop/Rock
p302
atp303
Rp304
sVMN0000112462
p305
g2
((lp306
VBlues
p307
aVPop/Rock
p308
atp309
Rp310
sVMN0000136871
p311
g2
((lp312
VR&B
p313
aVPop/Rock
p314
atp315
Rp316
sVMN0000852855
p317
g2
((lp318
VPop/Rock
p319
atp320
Rp321
sVMN0000014784
p322
g2
((lp323
VPop/Rock
p324
atp325
Rp326
sVMN0000937584
p327
g2
((lp328
VPop/Rock
p329
atp330
Rp331
sVMN0000665957
p332
g2
((lp333
VR&B
p334
atp335
Rp336
sVMN0000258882
p337
g2
((lp338
VR&B
p339
aVLatin
p340
aVPop/Rock
p341
atp342
Rp343
sVMN0000938878
p344
g2
((lp345
VPop/Rock
p346
atp347
Rp348
sVMN0000325459
p349
g2
((lp350
VPop/Rock
p351
atp352
Rp353
sVMN0000631774
p354
g2
((lp355
VPop/Rock
p356
aVFolk
p357
atp358
Rp359
sVMN0000075540
p360
g2
((lp361
VCountry
p362
aVPop/Rock
p363
atp364
Rp365
sVMN0000012491
p366
g2
((lp367
VPop/Rock
p368
aVElectronic
p369
atp370
Rp371
sVMN0000551115
p372
g2
((lp373
VR&B
p374
aVPop/Rock
p375
atp376
Rp377
sVMN0000649435
p378
g2
((lp379
VR&B
p380
atp381
Rp382
sVMN0000201760
p383
g2
((lp384
VR&B
p385
aVJazz
p386
atp387
Rp388
sVMN0000577261
p389
g2
((lp390
VPop/Rock
p391
aVVocal
p392
aVEasy Listening
p393
atp394
Rp395
sVMN0000084458
p396
g2
((lp397
VRap
p398
atp399
Rp400
sVMN0000275335
p401
g2
((lp402
VPop/Rock
p403
aVVocal
p404
aVEasy Listening
p405
atp406
Rp407
sVMN0000031008
p408
g2
((lp409
VPop/Rock
p410
atp411
Rp412
sVMN0000199995
p413
g2
((lp414
VPop/Rock
p415
atp416
Rp417
sVMN0000321321
p418
g2
((lp419
VPop/Rock
p420
atp421
Rp422
sVMN0000217792
p423
g2
((lp424
VPop/Rock
p425
atp426
Rp427
sVMN0000149515
p428
g2
((lp429
VPop/Rock
p430
atp431
Rp432
sVMN0000614830
p433
g2
((lp434
VPop/Rock
p435
atp436
Rp437
sVMN0000070715
p438
g2
((lp439
VPop/Rock
p440
aVFolk
p441
aVVocal
p442
atp443
Rp444
sVMN0000381689
p445
g2
((lp446
VPop/Rock
p447
atp448
Rp449
sVMN0000782285
p450
g2
((lp451
VR&B
p452
aVRap
p453
atp454
Rp455
sVMN0000315336
p456
g2
((lp457
VVocal
p458
aVEasy Listening
p459
atp460
Rp461
sVMN0000130028
p462
g2
((lp463
VPop/Rock
p464
aVClassical
p465
atp466
Rp467
sVMN0000594665
p468
g2
((lp469
VR&B
p470
aVPop/Rock
p471
atp472
Rp473
sVMN0000886961
p474
g2
((lp475
VPop/Rock
p476
aVReligious
p477
atp478
Rp479
sVMN0001930721
p480
g2
((lp481
VFolk
p482
atp483
Rp484
sVMN0000084446
p485
g2
((lp486
VR&B
p487
atp488
Rp489
sVMN0000875049
p490
g2
((lp491
VReggae
p492
aVElectronic
p493
atp494
Rp495
sVMN0000260212
p496
g2
((lp497
VPop/Rock
p498
atp499
Rp500
sVMN0000509367
p501
g2
((lp502
VVocal
p503
atp504
Rp505
sVMN0000267814
p506
g2
((lp507
VR&B
p508
atp509
Rp510
sVMN0000164053
p511
g2
((lp512
VR&B
p513
atp514
Rp515
sVMN0000806507
p516
g2
((lp517
VR&B
p518
aVPop/Rock
p519
atp520
Rp521
sVMN0000123268
p522
g2
((lp523
VRap
p524
atp525
Rp526
sVMN0000368522
p527
g2
((lp528
VR&B
p529
aVPop/Rock
p530
aVLatin
p531
atp532
Rp533
sVMN0000046814
p534
g2
((lp535
VCountry
p536
atp537
Rp538
sVMN0000841286
p539
g2
((lp540
VR&B
p541
aVElectronic
p542
atp543
Rp544
sVMN0000068934
p545
g2
((lp546
VJazz
p547
aVPop/Rock
p548
aVEasy Listening
p549
atp550
Rp551
sVMN0000414251
p552
g2
((lp553
VR&B
p554
atp555
Rp556
sVMN0000090276
p557
g2
((lp558
VPop/Rock
p559
atp560
Rp561
sVMN0000195368
p562
g2
((lp563
VReligious
p564
atp565
Rp566
sVMN0000946137
p567
g2
((lp568
VBlues
p569
aVPop/Rock
p570
atp571
Rp572
sVMN0000125506
p573
g2
((lp574
VR&B
p575
atp576
Rp577
sVMN0000784122
p578
g2
((lp579
VR&B
p580
atp581
Rp582
sVMN0000977198
p583
g2
((lp584
VPop/Rock
p585
atp586
Rp587
sVMN0000179205
p588
g2
((lp589
VPop/Rock
p590
aVFolk
p591
atp592
Rp593
sVMN0000016235
p594
g2
((lp595
VPop/Rock
p596
atp597
Rp598
sVMN0000792507
p599
g2
((lp600
VJazz
p601
aVStage & Screen
p602
aVVocal
p603
atp604
Rp605
sVMN0000671746
p606
g2
((lp607
VR&B
p608
atp609
Rp610
sVMN0000067631
p611
g2
((lp612
VElectronic
p613
atp614
Rp615
sVMN0000137494
p616
g2
((lp617
VR&B
p618
aVBlues
p619
aVPop/Rock
p620
atp621
Rp622
sVMN0000265456
p623
g2
((lp624
VR&B
p625
aVPop/Rock
p626
atp627
Rp628
sVMN0000337119
p629
g2
((lp630
VPop/Rock
p631
aVElectronic
p632
atp633
Rp634
sVMN0000094752
p635
g2
((lp636
VRap
p637
atp638
Rp639
sVMN0000766893
p640
g2
((lp641
VR&B
p642
aVPop/Rock
p643
atp644
Rp645
sVMN0000178750
p646
g2
((lp647
VR&B
p648
atp649
Rp650
sVMN0000116178
p651
g2
((lp652
VR&B
p653
aVPop/Rock
p654
atp655
Rp656
sVMN0000950805
p657
g2
((lp658
VPop/Rock
p659
atp660
Rp661
sVMN0000162415
p662
g2
((lp663
VR&B
p664
aVBlues
p665
atp666
Rp667
sVMN0000091983
p668
g2
((lp669
VPop/Rock
p670
aVElectronic
p671
aVRap
p672
atp673
Rp674
sVMN0000266063
p675
g2
((lp676
VR&B
p677
atp678
Rp679
sVMN0000751019
p680
g2
((lp681
VBlues
p682
aVPop/Rock
p683
atp684
Rp685
sVMN0000933883
p686
g2
((lp687
VPop/Rock
p688
atp689
Rp690
sVMN0000081619
p691
g2
((lp692
VCountry
p693
aVPop/Rock
p694
atp695
Rp696
sVMN0000046861
p697
g2
((lp698
VR&B
p699
aVBlues
p700
aVPop/Rock
p701
aVJazz
p702
atp703
Rp704
sVMN0000155116
p705
g2
((lp706
VR&B
p707
atp708
Rp709
sVMN0000084209
p710
g2
((lp711
VPop/Rock
p712
atp713
Rp714
sVMN0000162269
p715
g2
((lp716
VCountry
p717
aVPop/Rock
p718
atp719
Rp720
sVMN0000806991
p721
g2
((lp722
VLatin
p723
aVPop/Rock
p724
aVVocal
p725
atp726
Rp727
sVMN0000187478
p728
g2
((lp729
VBlues
p730
aVPop/Rock
p731
atp732
Rp733
sVMN0000135306
p734
g2
((lp735
VPop/Rock
p736
atp737
Rp738
sVMN0000196993
p739
g2
((lp740
VPop/Rock
p741
atp742
Rp743
sVMN0000592098
p744
g2
((lp745
VPop/Rock
p746
aVJazz
p747
atp748
Rp749
sVMN0000153526
p750
g2
((lp751
VPop/Rock
p752
atp753
Rp754
sVMN0000565388
p755
g2
((lp756
VPop/Rock
p757
atp758
Rp759
sVMN0000758317
p760
g2
((lp761
VR&B
p762
atp763
Rp764
sVMN0000102835
p765
g2
((lp766
VR&B
p767
atp768
Rp769
sVMN0000811622
p770
g2
((lp771
VPop/Rock
p772
aVFolk
p773
atp774
Rp775
sVMN0000041857
p776
g2
((lp777
VRap
p778
atp779
Rp780
sVMN0000033560
p781
g2
((lp782
VPop/Rock
p783
atp784
Rp785
sVMN0000405968
p786
g2
((lp787
VR&B
p788
aVElectronic
p789
atp790
Rp791
sVMN0000852007
p792
g2
((lp793
VPop/Rock
p794
atp795
Rp796
sVMN0000585249
p797
g2
((lp798
VPop/Rock
p799
atp800
Rp801
sVMN0000664378
p802
g2
((lp803
VCountry
p804
aVPop/Rock
p805
atp806
Rp807
sVMN0000774807
p808
g2
((lp809
VR&B
p810
aVPop/Rock
p811
atp812
Rp813
sVMN0000210991
p814
g2
((lp815
VR&B
p816
atp817
Rp818
sVMN0000813731
p819
g2
((lp820
VPop/Rock
p821
atp822
Rp823
sVMN0000472440
p824
g2
((lp825
VComedy/Spoken
p826
aVR&B
p827
aVPop/Rock
p828
atp829
Rp830
sVMN0000064509
p831
g2
((lp832
VR&B
p833
aVStage & Screen
p834
atp835
Rp836
sVMN0000892823
p837
g2
((lp838
VPop/Rock
p839
atp840
Rp841
sVMN0000184043
p842
g2
((lp843
VPop/Rock
p844
atp845
Rp846
sVMN0000815575
p847
g2
((lp848
VJazz
p849
aVStage & Screen
p850
aVVocal
p851
atp852
Rp853
sVMN0000090389
p854
g2
((lp855
VJazz
p856
atp857
Rp858
sVMN0000301404
p859
g2
((lp860
VPop/Rock
p861
atp862
Rp863
sVMN0000208774
p864
g2
((lp865
VR&B
p866
atp867
Rp868
sVMN0000256349
p869
g2
((lp870
VJazz
p871
aVStage & Screen
p872
aVVocal
p873
atp874
Rp875
sVMN0000234844
p876
g2
((lp877
VPop/Rock
p878
aVElectronic
p879
atp880
Rp881
sVMN0000861252
p882
g2
((lp883
VCountry
p884
aVPop/Rock
p885
atp886
Rp887
sVMN0000192382
p888
g2
((lp889
VPop/Rock
p890
atp891
Rp892
sVMN0000200074
p893
g2
((lp894
VPop/Rock
p895
atp896
Rp897
sVMN0000625203
p898
g2
((lp899
VPop/Rock
p900
atp901
Rp902
sVMN0000858710
p903
g2
((lp904
VCountry
p905
aVPop/Rock
p906
atp907
Rp908
sVMN0000945196
p909
g2
((lp910
VPop/Rock
p911
atp912
Rp913
sVMN0000132449
p914
g2
((lp915
VCountry
p916
aVPop/Rock
p917
atp918
Rp919
sVMN0000450947
p920
g2
((lp921
VRap
p922
atp923
Rp924
sVMN0000160690
p925
g2
((lp926
VR&B
p927
aVElectronic
p928
atp929
Rp930
sVMN0000368367
p931
g2
((lp932
VR&B
p933
aVJazz
p934
aVVocal
p935
atp936
Rp937
sVMN0000038469
p938
g2
((lp939
VPop/Rock
p940
aVRap
p941
atp942
Rp943
sVMN0000189582
p944
g2
((lp945
VR&B
p946
aVPop/Rock
p947
atp948
Rp949
sVMN0000032401
p950
g2
((lp951
VPop/Rock
p952
atp953
Rp954
sVMN0000931202
p955
g2
((lp956
VR&B
p957
atp958
Rp959
sVMN0000827760
p960
g2
((lp961
VR&B
p962
aVPop/Rock
p963
aVElectronic
p964
atp965
Rp966
sVMN0000219655
p967
g2
((lp968
VPop/Rock
p969
atp970
Rp971
sVMN0000248920
p972
g2
((lp973
VCountry
p974
atp975
Rp976
sVMN0000038466
p977
g2
((lp978
VPop/Rock
p979
aVStage & Screen
p980
aVVocal
p981
aVEasy Listening
p982
atp983
Rp984
sVMN0000028772
p985
g2
((lp986
VR&B
p987
aVPop/Rock
p988
atp989
Rp990
sVMN0000154297
p991
g2
((lp992
VPop/Rock
p993
atp994
Rp995
sVMN0000090169
p996
g2
((lp997
VR&B
p998
atp999
Rp1000
sVMN0000610706
p1001
g2
((lp1002
VPop/Rock
p1003
atp1004
Rp1005
sVMN0000827367
p1006
g2
((lp1007
VBlues
p1008
aVPop/Rock
p1009
atp1010
Rp1011
sVMN0000033580
p1012
g2
((lp1013
VReggae
p1014
aVElectronic
p1015
atp1016
Rp1017
sVMN0000122023
p1018
g2
((lp1019
VPop/Rock
p1020
atp1021
Rp1022
sVMN0000281254
p1023
g2
((lp1024
VCountry
p1025
aVPop/Rock
p1026
atp1027
Rp1028
sVMN0000059819
p1029
g2
((lp1030
VR&B
p1031
atp1032
Rp1033
sVMN0000808546
p1034
g2
((lp1035
VR&B
p1036
atp1037
Rp1038
sVMN0000200791
p1039
g2
((lp1040
VCountry
p1041
atp1042
Rp1043
sVMN0000632233
p1044
g2
((lp1045
VCountry
p1046
aVPop/Rock
p1047
atp1048
Rp1049
sVMN0000796734
p1050
g2
((lp1051
VPop/Rock
p1052
atp1053
Rp1054
sVMN0000019241
p1055
g2
((lp1056
VCountry
p1057
aVPop/Rock
p1058
atp1059
Rp1060
sVMN0000128495
p1061
g2
((lp1062
VPop/Rock
p1063
atp1064
Rp1065
sVMN0000546214
p1066
g2
((lp1067
VPop/Rock
p1068
aVElectronic
p1069
atp1070
Rp1071
sVMN0000478932
p1072
g2
((lp1073
VRap
p1074
atp1075
Rp1076
sVMN0000424244
p1077
g2
((lp1078
VPop/Rock
p1079
aVRap
p1080
atp1081
Rp1082
sVMN0000945798
p1083
g2
((lp1084
VRap
p1085
atp1086
Rp1087
sVMN0000241498
p1088
g2
((lp1089
VR&B
p1090
atp1091
Rp1092
sVMN0000350139
p1093
g2
((lp1094
VPop/Rock
p1095
atp1096
Rp1097
sVMN0000745100
p1098
g2
((lp1099
VR&B
p1100
atp1101
Rp1102
sVMN0000068551
p1103
g2
((lp1104
VCountry
p1105
atp1106
Rp1107
sVMN0000799053
p1108
g2
((lp1109
VPop/Rock
p1110
aVFolk
p1111
atp1112
Rp1113
sVMN0000937703
p1114
g2
((lp1115
VFolk
p1116
atp1117
Rp1118
sVMN0000128099
p1119
g2
((lp1120
VR&B
p1121
atp1122
Rp1123
sVMN0000085410
p1124
g2
((lp1125
VCountry
p1126
aVPop/Rock
p1127
aVR&B
p1128
atp1129
Rp1130
sVMN0000808304
p1131
g2
((lp1132
VPop/Rock
p1133
atp1134
Rp1135
sVMN0000655346
p1136
g2
((lp1137
VR&B
p1138
atp1139
Rp1140
sVMN0000656130
p1141
g2
((lp1142
VCountry
p1143
atp1144
Rp1145
sVMN0000135032
p1146
g2
((lp1147
VPop/Rock
p1148
atp1149
Rp1150
sVMN0000096744
p1151
g2
((lp1152
VPop/Rock
p1153
atp1154
Rp1155
sVMN0000597309
p1156
g2
((lp1157
VR&B
p1158
aVPop/Rock
p1159
atp1160
Rp1161
sVMN0000134600
p1162
g2
((lp1163
VR&B
p1164
atp1165
Rp1166
sVMN0000927555
p1167
g2
((lp1168
VR&B
p1169
atp1170
Rp1171
sVMN0000367188
p1172
g2
((lp1173
VPop/Rock
p1174
atp1175
Rp1176
sVMN0000128143
p1177
g2
((lp1178
VR&B
p1179
atp1180
Rp1181
sVMN0000026504
p1182
g2
((lp1183
VRap
p1184
atp1185
Rp1186
sVMN0000559405
p1187
g2
((lp1188
VLatin
p1189
atp1190
Rp1191
sVMN0000590575
p1192
g2
((lp1193
VRap
p1194
atp1195
Rp1196
sVMN0000019133
p1197
g2
((lp1198
VPop/Rock
p1199
atp1200
Rp1201
sVMN0000838195
p1202
g2
((lp1203
VR&B
p1204
atp1205
Rp1206
sVMN0000744265
p1207
g2
((lp1208
VR&B
p1209
aVPop/Rock
p1210
aVCountry
p1211
atp1212
Rp1213
sVMN0000933781
p1214
g2
((lp1215
VPop/Rock
p1216
atp1217
Rp1218
sVMN0000773442
p1219
g2
((lp1220
VRap
p1221
atp1222
Rp1223
sVMN0000165011
p1224
g2
((lp1225
VR&B
p1226
aVPop/Rock
p1227
atp1228
Rp1229
sVMN0000757157
p1230
g2
((lp1231
VR&B
p1232
aVPop/Rock
p1233
atp1234
Rp1235
sVMN0000120010
p1236
g2
((lp1237
VPop/Rock
p1238
atp1239
Rp1240
sVMN0000044764
p1241
g2
((lp1242
VPop/Rock
p1243
aVElectronic
p1244
atp1245
Rp1246
sVMN0000260206
p1247
g2
((lp1248
VPop/Rock
p1249
atp1250
Rp1251
sVMN0000069986
p1252
g2
((lp1253
VCountry
p1254
aVPop/Rock
p1255
atp1256
Rp1257
sVMN0000743175
p1258
g2
((lp1259
VPop/Rock
p1260
atp1261
Rp1262
sVMN0000037931
p1263
g2
((lp1264
VPop/Rock
p1265
atp1266
Rp1267
sVMN0000006334
p1268
g2
((lp1269
VJazz
p1270
aVStage & Screen
p1271
aVVocal
p1272
atp1273
Rp1274
sVMN0000585690
p1275
g2
((lp1276
VCountry
p1277
atp1278
Rp1279
sVMN0000409670
p1280
g2
((lp1281
VPop/Rock
p1282
aVFolk
p1283
atp1284
Rp1285
sVMN0000674662
p1286
g2
((lp1287
VPop/Rock
p1288
atp1289
Rp1290
sVMN0000146755
p1291
g2
((lp1292
VPop/Rock
p1293
atp1294
Rp1295
sVMN0000949630
p1296
g2
((lp1297
VPop/Rock
p1298
atp1299
Rp1300
sVMN0000840907
p1301
g2
((lp1302
VPop/Rock
p1303
aVElectronic
p1304
atp1305
Rp1306
sVMN0000057124
p1307
g2
((lp1308
VR&B
p1309
aVPop/Rock
p1310
atp1311
Rp1312
sVMN0000799100
p1313
g2
((lp1314
VPop/Rock
p1315
atp1316
Rp1317
sVMN0000199090
p1318
g2
((lp1319
VR&B
p1320
aVBlues
p1321
aVReligious
p1322
atp1323
Rp1324
sVMN0000293896
p1325
g2
((lp1326
VR&B
p1327
aVPop/Rock
p1328
atp1329
Rp1330
sVMN0000806542
p1331
g2
((lp1332
VR&B
p1333
aVBlues
p1334
aVPop/Rock
p1335
atp1336
Rp1337
sVMN0000174557
p1338
g2
((lp1339
VPop/Rock
p1340
atp1341
Rp1342
sVMN0000531986
p1343
g2
((lp1344
VR&B
p1345
aVPop/Rock
p1346
atp1347
Rp1348
sVMN0000855531
p1349
g2
((lp1350
VPop/Rock
p1351
aVStage & Screen
p1352
aVVocal
p1353
atp1354
Rp1355
sVMN0000241813
p1356
g2
((lp1357
VPop/Rock
p1358
atp1359
Rp1360
sVMN0001824897
p1361
g2
((lp1362
VR&B
p1363
atp1364
Rp1365
sVMN0000633078
p1366
g2
((lp1367
VPop/Rock
p1368
aVJazz
p1369
atp1370
Rp1371
sVMN0000233228
p1372
g2
((lp1373
VR&B
p1374
aVJazz
p1375
aVPop/Rock
p1376
atp1377
Rp1378
sVMN0000575051
p1379
g2
((lp1380
VPop/Rock
p1381
atp1382
Rp1383
sVMN0000620386
p1384
g2
((lp1385
VPop/Rock
p1386
atp1387
Rp1388
sVMN0000921965
p1389
g2
((lp1390
VPop/Rock
p1391
atp1392
Rp1393
sVMN0000007448
p1394
g2
((lp1395
VR&B
p1396
atp1397
Rp1398
sVMN0000151549
p1399
g2
((lp1400
VPop/Rock
p1401
atp1402
Rp1403
sVMN0000651972
p1404
g2
((lp1405
VR&B
p1406
atp1407
Rp1408
sVMN0000298764
p1409
g2
((lp1410
VPop/Rock
p1411
atp1412
Rp1413
sVMN0001523463
p1414
g2
((lp1415
VRap
p1416
atp1417
Rp1418
sVMN0000270064
p1419
g2
((lp1420
VRap
p1421
atp1422
Rp1423
sVMN0000038182
p1424
g2
((lp1425
VPop/Rock
p1426
aVFolk
p1427
atp1428
Rp1429
s.