(dp0
VMN0000049774
p1
c__builtin__
set
p2
((lp3
VR&B
p4
aVElectronic
p5
atp6
Rp7
sVMN0000224369
p8
g2
((lp9
VPop/Rock
p10
atp11
Rp12
sVMN0000316834
p13
g2
((lp14
VR&B
p15
atp16
Rp17
sVMN0000748994
p18
g2
((lp19
VRap
p20
atp21
Rp22
sVMN0000208997
p23
g2
((lp24
VPop/Rock
p25
atp26
Rp27
sVMN0000227088
p28
g2
((lp29
VCountry
p30
aVPop/Rock
p31
atp32
Rp33
sVMN0000852007
p34
g2
((lp35
VPop/Rock
p36
atp37
Rp38
sVMN0000616296
p39
g2
((lp40
VPop/Rock
p41
atp42
Rp43
sVMN0000576979
p44
g2
((lp45
VPop/Rock
p46
atp47
Rp48
sVMN0000838524
p49
g2
((lp50
VBlues
p51
aVPop/Rock
p52
atp53
Rp54
sVMN0000224186
p55
g2
((lp56
VPop/Rock
p57
atp58
Rp59
sVMN0000097654
p60
g2
((lp61
VPop/Rock
p62
atp63
Rp64
sVMN0000321321
p65
g2
((lp66
VPop/Rock
p67
atp68
Rp69
sVMN0000894847
p70
g2
((lp71
VR&B
p72
atp73
Rp74
sVMN0000198162
p75
g2
((lp76
VR&B
p77
aVBlues
p78
atp79
Rp80
sVMN0000965206
p81
g2
((lp82
VR&B
p83
aVPop/Rock
p84
atp85
Rp86
sVMN0000260038
p87
g2
((lp88
VR&B
p89
aVBlues
p90
aVJazz
p91
aVVocal
p92
atp93
Rp94
sVMN0000559405
p95
g2
((lp96
VLatin
p97
atp98
Rp99
sVMN0000196976
p100
g2
((lp101
VCountry
p102
atp103
Rp104
sVMN0000864209
p105
g2
((lp106
VPop/Rock
p107
atp108
Rp109
sVMN0000463435
p110
g2
((lp111
VCountry
p112
aVPop/Rock
p113
atp114
Rp115
sVMN0000944084
p116
g2
((lp117
VCountry
p118
atp119
Rp120
sVMN0000423267
p121
g2
((lp122
VPop/Rock
p123
atp124
Rp125
sVMN0000174557
p126
g2
((lp127
VPop/Rock
p128
atp129
Rp130
sVMN0000171637
p131
g2
((lp132
VPop/Rock
p133
atp134
Rp135
sVMN0000478603
p136
g2
((lp137
VPop/Rock
p138
atp139
Rp140
sVMN0000837946
p141
g2
((lp142
VCountry
p143
aVPop/Rock
p144
atp145
Rp146
sVMN0000536275
p147
g2
((lp148
VPop/Rock
p149
aVVocal
p150
atp151
Rp152
sVMN0000572579
p153
g2
((lp154
VR&B
p155
atp156
Rp157
sVMN0000865016
p158
g2
((lp159
VR&B
p160
aVPop/Rock
p161
atp162
Rp163
sVMN0000898828
p164
g2
((lp165
VPop/Rock
p166
atp167
Rp168
sVMN0000608945
p169
g2
((lp170
VR&B
p171
atp172
Rp173
sVMN0000026952
p174
g2
((lp175
VNew Age
p176
aVReligious
p177
atp178
Rp179
sVMN0000677781
p180
g2
((lp181
VR&B
p182
aVPop/Rock
p183
atp184
Rp185
sVMN0000012180
p186
g2
((lp187
VCountry
p188
atp189
Rp190
sVMN0000058035
p191
g2
((lp192
VPop/Rock
p193
atp194
Rp195
sVMN0000035076
p196
g2
((lp197
VR&B
p198
aVPop/Rock
p199
aVElectronic
p200
atp201
Rp202
sVMN0000143781
p203
g2
((lp204
VPop/Rock
p205
atp206
Rp207
sVMN0000741718
p208
g2
((lp209
VR&B
p210
aVRap
p211
atp212
Rp213
sVMN0000020812
p214
g2
((lp215
VPop/Rock
p216
atp217
Rp218
sVMN0000664459
p219
g2
((lp220
VRap
p221
atp222
Rp223
sVMN0002907557
p224
g2
((lp225
VPop/Rock
p226
atp227
Rp228
sVMN0000664093
p229
g2
((lp230
VR&B
p231
atp232
Rp233
sVMN0000678408
p234
g2
((lp235
VJazz
p236
atp237
Rp238
sVMN0000790833
p239
g2
((lp240
VR&B
p241
atp242
Rp243
sVMN0000524837
p244
g2
((lp245
VComedy/Spoken
p246
atp247
Rp248
sVMN0000071812
p249
g2
((lp250
VR&B
p251
aVPop/Rock
p252
atp253
Rp254
sVMN0000674332
p255
g2
((lp256
VJazz
p257
aVPop/Rock
p258
aVEasy Listening
p259
atp260
Rp261
sVMN0000065397
p262
g2
((lp263
VCountry
p264
aVPop/Rock
p265
aVR&B
p266
atp267
Rp268
sVMN0000766893
p269
g2
((lp270
VR&B
p271
aVPop/Rock
p272
atp273
Rp274
sVMN0000739702
p275
g2
((lp276
VPop/Rock
p277
atp278
Rp279
sVMN0000774588
p280
g2
((lp281
VCountry
p282
aVPop/Rock
p283
atp284
Rp285
sVMN0000110161
p286
g2
((lp287
VPop/Rock
p288
atp289
Rp290
sVMN0000234384
p291
g2
((lp292
VPop/Rock
p293
aVRap
p294
atp295
Rp296
sVMN0000824022
p297
g2
((lp298
VR&B
p299
aVPop/Rock
p300
aVReligious
p301
atp302
Rp303
sVMN0000662797
p304
g2
((lp305
VR&B
p306
aVElectronic
p307
atp308
Rp309
sVMN0000233228
p310
g2
((lp311
VR&B
p312
aVJazz
p313
aVPop/Rock
p314
atp315
Rp316
sVMN0000932665
p317
g2
((lp318
VPop/Rock
p319
atp320
Rp321
sVMN0000575051
p322
g2
((lp323
VPop/Rock
p324
atp325
Rp326
sVMN0000934069
p327
g2
((lp328
VCountry
p329
aVPop/Rock
p330
atp331
Rp332
sVMN0000524050
p333
g2
((lp334
VPop/Rock
p335
atp336
Rp337
sVMN0000424296
p338
g2
((lp339
VR&B
p340
aVPop/Rock
p341
atp342
Rp343
sVMN0000045313
p344
g2
((lp345
VR&B
p346
aVPop/Rock
p347
atp348
Rp349
sVMN0000818200
p350
g2
((lp351
VRap
p352
atp353
Rp354
sVMN0000082013
p355
g2
((lp356
VR&B
p357
atp358
Rp359
sVMN0000078532
p360
g2
((lp361
VReggae
p362
atp363
Rp364
sVMN0000866417
p365
g2
((lp366
VReggae
p367
atp368
Rp369
sVMN0000281376
p370
g2
((lp371
VRap
p372
atp373
Rp374
sVMN0000060476
p375
g2
((lp376
VR&B
p377
aVPop/Rock
p378
atp379
Rp380
sVMN0000092942
p381
g2
((lp382
VR&B
p383
aVPop/Rock
p384
atp385
Rp386
s.