(dp0
VMN0000117064
p1
c__builtin__
set
p2
((lp3
VPop/Rock
p4
atp5
Rp6
sVMN0000811622
p7
g2
((lp8
VPop/Rock
p9
aVFolk
p10
atp11
Rp12
sVMN0000781172
p13
g2
((lp14
VJazz
p15
aVPop/Rock
p16
atp17
Rp18
sVMN0000869649
p19
g2
((lp20
VR&B
p21
aVPop/Rock
p22
atp23
Rp24
sVMN0000135152
p25
g2
((lp26
VR&B
p27
atp28
Rp29
sVMN0000925066
p30
g2
((lp31
VR&B
p32
atp33
Rp34
sVMN0000809527
p35
g2
((lp36
VRap
p37
atp38
Rp39
sVMN0000477875
p40
g2
((lp41
VR&B
p42
aVPop/Rock
p43
atp44
Rp45
sVMN0002453941
p46
g2
((lp47
VPop/Rock
p48
atp49
Rp50
sVMN0000128440
p51
g2
((lp52
VPop/Rock
p53
atp54
Rp55
sVMN0000198162
p56
g2
((lp57
VR&B
p58
aVBlues
p59
atp60
Rp61
sVMN0000170211
p62
g2
((lp63
VR&B
p64
atp65
Rp66
sVMN0000033481
p67
g2
((lp68
VCountry
p69
aVPop/Rock
p70
atp71
Rp72
sVMN0000239921
p73
g2
((lp74
VPop/Rock
p75
atp76
Rp77
sVMN0000820434
p78
g2
((lp79
VR&B
p80
atp81
Rp82
sVMN0000181376
p83
g2
((lp84
VReggae
p85
aVPop/Rock
p86
atp87
Rp88
sVMN0000098081
p89
g2
((lp90
VCountry
p91
aVPop/Rock
p92
aVVocal
p93
atp94
Rp95
sVMN0000338887
p96
g2
((lp97
VVocal
p98
atp99
Rp100
sVMN0000780258
p101
g2
((lp102
VR&B
p103
aVPop/Rock
p104
atp105
Rp106
sVMN0000079796
p107
g2
((lp108
VPop/Rock
p109
atp110
Rp111
sVMN0000692251
p112
g2
((lp113
VPop/Rock
p114
atp115
Rp116
sVMN0000185669
p117
g2
((lp118
VCountry
p119
aVPop/Rock
p120
atp121
Rp122
sVMN0000306258
p123
g2
((lp124
VRap
p125
atp126
Rp127
sVMN0000489303
p128
g2
((lp129
VBlues
p130
aVPop/Rock
p131
atp132
Rp133
sVMN0000112789
p134
g2
((lp135
VPop/Rock
p136
atp137
Rp138
sVMN0000495366
p139
g2
((lp140
VR&B
p141
atp142
Rp143
sVMN0000334644
p144
g2
((lp145
VCountry
p146
aVPop/Rock
p147
atp148
Rp149
sVMN0000852855
p150
g2
((lp151
VPop/Rock
p152
atp153
Rp154
sVMN0000147200
p155
g2
((lp156
VR&B
p157
atp158
Rp159
sVMN0000251361
p160
g2
((lp161
VR&B
p162
aVPop/Rock
p163
atp164
Rp165
sVMN0000393031
p166
g2
((lp167
VPop/Rock
p168
atp169
Rp170
sVMN0000394931
p171
g2
((lp172
VPop/Rock
p173
atp174
Rp175
sVMN0000770059
p176
g2
((lp177
VReggae
p178
aVElectronic
p179
atp180
Rp181
sVMN0000325459
p182
g2
((lp183
VPop/Rock
p184
atp185
Rp186
sVMN0000167361
p187
g2
((lp188
VR&B
p189
atp190
Rp191
sVMN0000270491
p192
g2
((lp193
VPop/Rock
p194
aVJazz
p195
atp196
Rp197
sVMN0000158309
p198
g2
((lp199
VPop/Rock
p200
atp201
Rp202
sVMN0000789064
p203
g2
((lp204
VPop/Rock
p205
atp206
Rp207
sVMN0000782163
p208
g2
((lp209
VR&B
p210
atp211
Rp212
sVMN0000628467
p213
g2
((lp214
VPop/Rock
p215
atp216
Rp217
sVMN0000739742
p218
g2
((lp219
VRap
p220
atp221
Rp222
sVMN0000367188
p223
g2
((lp224
VPop/Rock
p225
atp226
Rp227
sVMN0000481057
p228
g2
((lp229
VPop/Rock
p230
atp231
Rp232
sVMN0000548196
p233
g2
((lp234
VElectronic
p235
atp236
Rp237
sVMN0000873085
p238
g2
((lp239
VPop/Rock
p240
atp241
Rp242
sVMN0000130028
p243
g2
((lp244
VPop/Rock
p245
aVClassical
p246
atp247
Rp248
sVMN0000864209
p249
g2
((lp250
VPop/Rock
p251
atp252
Rp253
sVMN0001930721
p254
g2
((lp255
VFolk
p256
atp257
Rp258
sVMN0000784732
p259
g2
((lp260
VPop/Rock
p261
atp262
Rp263
sVMN0000473554
p264
g2
((lp265
VCountry
p266
aVPop/Rock
p267
atp268
Rp269
sVMN0000484880
p270
g2
((lp271
VCountry
p272
atp273
Rp274
sVMN0001176481
p275
g2
((lp276
VPop/Rock
p277
atp278
Rp279
sVMN0000759187
p280
g2
((lp281
VR&B
p282
atp283
Rp284
sVMN0000200968
p285
g2
((lp286
VPop/Rock
p287
atp288
Rp289
sVMN0000048300
p290
g2
((lp291
VR&B
p292
atp293
Rp294
sVMN0000920338
p295
g2
((lp296
VR&B
p297
atp298
Rp299
sVMN0000084446
p300
g2
((lp301
VR&B
p302
atp303
Rp304
sVMN0000319347
p305
g2
((lp306
VR&B
p307
atp308
Rp309
sVMN0000846634
p310
g2
((lp311
VR&B
p312
atp313
Rp314
sVMN0000566602
p315
g2
((lp316
VPop/Rock
p317
atp318
Rp319
sVMN0000671746
p320
g2
((lp321
VR&B
p322
atp323
Rp324
sVMN0000366164
p325
g2
((lp326
VR&B
p327
atp328
Rp329
sVMN0000266151
p330
g2
((lp331
VCountry
p332
aVPop/Rock
p333
atp334
Rp335
sVMN0000609396
p336
g2
((lp337
VCountry
p338
aVPop/Rock
p339
aVR&B
p340
atp341
Rp342
sVMN0000746915
p343
g2
((lp344
VR&B
p345
aVPop/Rock
p346
atp347
Rp348
sVMN0001346105
p349
g2
((lp350
VPop/Rock
p351
atp352
Rp353
sVMN0000659299
p354
g2
((lp355
VCountry
p356
atp357
Rp358
sVMN0000502371
p359
g2
((lp360
VR&B
p361
aVPop/Rock
p362
aVRap
p363
atp364
Rp365
sVMN0000424296
p366
g2
((lp367
VR&B
p368
aVPop/Rock
p369
atp370
Rp371
sVMN0000077223
p372
g2
((lp373
VPop/Rock
p374
aVElectronic
p375
aVRap
p376
atp377
Rp378
sVMN0000816890
p379
g2
((lp380
VCountry
p381
aVPop/Rock
p382
aVReligious
p383
atp384
Rp385
sVMN0000084209
p386
g2
((lp387
VPop/Rock
p388
atp389
Rp390
sVMN0000257181
p391
g2
((lp392
VR&B
p393
aVBlues
p394
atp395
Rp396
sVMN0000089482
p397
g2
((lp398
VR&B
p399
atp400
Rp401
sVMN0000295756
p402
g2
((lp403
VPop/Rock
p404
aVJazz
p405
atp406
Rp407
sVMN0000021008
p408
g2
((lp409
VCountry
p410
atp411
Rp412
sVMN0000892771
p413
g2
((lp414
VR&B
p415
atp416
Rp417
sVMN0000585249
p418
g2
((lp419
VPop/Rock
p420
atp421
Rp422
sVMN0000186805
p423
g2
((lp424
VPop/Rock
p425
atp426
Rp427
sVMN0000180228
p428
g2
((lp429
VCountry
p430
aVPop/Rock
p431
atp432
Rp433
sVMN0000884251
p434
g2
((lp435
VPop/Rock
p436
atp437
Rp438
sVMN0000359613
p439
g2
((lp440
VPop/Rock
p441
atp442
Rp443
sVMN0000766094
p444
g2
((lp445
VR&B
p446
atp447
Rp448
sVMN0000132856
p449
g2
((lp450
VR&B
p451
aVPop/Rock
p452
aVElectronic
p453
atp454
Rp455
sVMN0000121157
p456
g2
((lp457
VR&B
p458
aVPop/Rock
p459
atp460
Rp461
sVMN0000208076
p462
g2
((lp463
VR&B
p464
aVPop/Rock
p465
atp466
Rp467
sVMN0000640042
p468
g2
((lp469
VR&B
p470
aVPop/Rock
p471
atp472
Rp473
sVMN0000927650
p474
g2
((lp475
VPop/Rock
p476
atp477
Rp478
sVMN0000249554
p479
g2
((lp480
VPop/Rock
p481
atp482
Rp483
sVMN0000141774
p484
g2
((lp485
VR&B
p486
aVJazz
p487
aVPop/Rock
p488
atp489
Rp490
sVMN0000256349
p491
g2
((lp492
VJazz
p493
aVStage & Screen
p494
aVVocal
p495
atp496
Rp497
sVMN0000796700
p498
g2
((lp499
VPop/Rock
p500
atp501
Rp502
sVMN0000022928
p503
g2
((lp504
VPop/Rock
p505
atp506
Rp507
sVMN0000181914
p508
g2
((lp509
VPop/Rock
p510
atp511
Rp512
sVMN0000794449
p513
g2
((lp514
VR&B
p515
aVPop/Rock
p516
aVVocal
p517
aVClassical
p518
atp519
Rp520
sVMN0000508443
p521
g2
((lp522
VPop/Rock
p523
atp524
Rp525
sVMN0000147315
p526
g2
((lp527
VPop/Rock
p528
aVRap
p529
atp530
Rp531
sVMN0000945196
p532
g2
((lp533
VPop/Rock
p534
atp535
Rp536
sVMN0000155116
p537
g2
((lp538
VR&B
p539
atp540
Rp541
sVMN0000125561
p542
g2
((lp543
VPop/Rock
p544
atp545
Rp546
sVMN0000814898
p547
g2
((lp548
VR&B
p549
atp550
Rp551
sVMN0000827760
p552
g2
((lp553
VR&B
p554
aVPop/Rock
p555
aVElectronic
p556
atp557
Rp558
sVMN0000574597
p559
g2
((lp560
VPop/Rock
p561
atp562
Rp563
sVMN0000811598
p564
g2
((lp565
VR&B
p566
atp567
Rp568
sVMN0000293896
p569
g2
((lp570
VR&B
p571
aVPop/Rock
p572
atp573
Rp574
sVMN0000028772
p575
g2
((lp576
VR&B
p577
aVPop/Rock
p578
atp579
Rp580
sVMN0000170879
p581
g2
((lp582
VPop/Rock
p583
atp584
Rp585
sVMN0000927555
p586
g2
((lp587
VR&B
p588
atp589
Rp590
sVMN0000225413
p591
g2
((lp592
VElectronic
p593
atp594
Rp595
sVMN0000144847
p596
g2
((lp597
VPop/Rock
p598
atp599
Rp600
sVMN0000382880
p601
g2
((lp602
VPop/Rock
p603
atp604
Rp605
sVMN0000816844
p606
g2
((lp607
VPop/Rock
p608
atp609
Rp610
sVMN0000932665
p611
g2
((lp612
VPop/Rock
p613
atp614
Rp615
sVMN0000264350
p616
g2
((lp617
VReggae
p618
aVPop/Rock
p619
atp620
Rp621
sVMN0000260212
p622
g2
((lp623
VPop/Rock
p624
atp625
Rp626
sVMN0000937703
p627
g2
((lp628
VFolk
p629
atp630
Rp631
sVMN0000744442
p632
g2
((lp633
VR&B
p634
atp635
Rp636
sVMN0000578730
p637
g2
((lp638
VPop/Rock
p639
atp640
Rp641
sVMN0000021334
p642
g2
((lp643
VR&B
p644
aVStage & Screen
p645
atp646
Rp647
sVMN0000316834
p648
g2
((lp649
VR&B
p650
atp651
Rp652
sVMN0000933883
p653
g2
((lp654
VPop/Rock
p655
atp656
Rp657
sVMN0000169818
p658
g2
((lp659
VR&B
p660
atp661
Rp662
sVMN0000281254
p663
g2
((lp664
VCountry
p665
aVPop/Rock
p666
atp667
Rp668
sVMN0000062412
p669
g2
((lp670
VR&B
p671
atp672
Rp673
sVMN0000327735
p674
g2
((lp675
VPop/Rock
p676
atp677
Rp678
sVMN0000359026
p679
g2
((lp680
VLatin
p681
aVPop/Rock
p682
atp683
Rp684
sVMN0000745915
p685
g2
((lp686
VPop/Rock
p687
atp688
Rp689
sVMN0000546214
p690
g2
((lp691
VPop/Rock
p692
aVElectronic
p693
atp694
Rp695
sVMN0000101072
p696
g2
((lp697
VR&B
p698
aVPop/Rock
p699
aVElectronic
p700
atp701
Rp702
sVMN0000149558
p703
g2
((lp704
VR&B
p705
aVPop/Rock
p706
atp707
Rp708
sVMN0000751019
p709
g2
((lp710
VBlues
p711
aVPop/Rock
p712
atp713
Rp714
sVMN0000146755
p715
g2
((lp716
VPop/Rock
p717
atp718
Rp719
sVMN0000807869
p720
g2
((lp721
VCountry
p722
atp723
Rp724
sVMN0000019133
p725
g2
((lp726
VPop/Rock
p727
atp728
Rp729
sVMN0000252315
p730
g2
((lp731
VReggae
p732
aVElectronic
p733
atp734
Rp735
sVMN0000351733
p736
g2
((lp737
VPop/Rock
p738
atp739
Rp740
sVMN0000933781
p741
g2
((lp742
VPop/Rock
p743
atp744
Rp745
sVMN0000165011
p746
g2
((lp747
VR&B
p748
aVPop/Rock
p749
atp750
Rp751
sVMN0000136075
p752
g2
((lp753
VJazz
p754
atp755
Rp756
sVMN0002901281
p757
g2
((lp758
VPop/Rock
p759
atp760
Rp761
sVMN0000069534
p762
g2
((lp763
VPop/Rock
p764
atp765
Rp766
sVMN0000490738
p767
g2
((lp768
VR&B
p769
aVElectronic
p770
atp771
Rp772
sVMN0000370484
p773
g2
((lp774
VR&B
p775
aVPop/Rock
p776
atp777
Rp778
sVMN0000136640
p779
g2
((lp780
VCountry
p781
atp782
Rp783
sVMN0000554963
p784
g2
((lp785
VPop/Rock
p786
aVFolk
p787
atp788
Rp789
sVMN0000062002
p790
g2
((lp791
VPop/Rock
p792
atp793
Rp794
sVMN0000661524
p795
g2
((lp796
VR&B
p797
aVPop/Rock
p798
aVElectronic
p799
atp800
Rp801
sVMN0000563390
p802
g2
((lp803
VPop/Rock
p804
atp805
Rp806
sVMN0000245049
p807
g2
((lp808
VPop/Rock
p809
atp810
Rp811
sVMN0000745964
p812
g2
((lp813
VBlues
p814
aVPop/Rock
p815
atp816
Rp817
sVMN0000821675
p818
g2
((lp819
VPop/Rock
p820
aVClassical
p821
atp822
Rp823
sVMN0000806542
p824
g2
((lp825
VR&B
p826
aVBlues
p827
aVPop/Rock
p828
atp829
Rp830
sVMN0000312890
p831
g2
((lp832
VPop/Rock
p833
atp834
Rp835
sVMN0000204386
p836
g2
((lp837
VPop/Rock
p838
atp839
Rp840
sVMN0000154765
p841
g2
((lp842
VComedy/Spoken
p843
aVR&B
p844
aVPop/Rock
p845
aVClassical
p846
atp847
Rp848
sVMN0000224294
p849
g2
((lp850
VPop/Rock
p851
atp852
Rp853
sVMN0000796734
p854
g2
((lp855
VPop/Rock
p856
atp857
Rp858
sVMN0000082013
p859
g2
((lp860
VR&B
p861
atp862
Rp863
sVMN0000007448
p864
g2
((lp865
VR&B
p866
atp867
Rp868
sVMN0000331910
p869
g2
((lp870
VPop/Rock
p871
atp872
Rp873
sVMN0000151549
p874
g2
((lp875
VPop/Rock
p876
atp877
Rp878
sVMN0000120521
p879
g2
((lp880
VR&B
p881
aVPop/Rock
p882
atp883
Rp884
sVMN0000664849
p885
g2
((lp886
VR&B
p887
aVElectronic
p888
atp889
Rp890
s.