(dp0
VMN0000239827
p1
c__builtin__
set
p2
((lp3
VMN0000085915
p4
aVMN0000130689
p5
aVMN0000961234
p6
aVMN0000949630
p7
aVMN0000926237
p8
aVMN0000270491
p9
aVMN0000945196
p10
aVMN0000066915
p11
aVMN0000204386
p12
atp13
Rp14
sVMN0000152023
p15
g2
((lp16
VMN0000037730
p17
atp18
Rp19
sVMN0000390532
p20
g2
((lp21
VMN0000678339
p22
aVMN0000502163
p23
aVMN0000138699
p24
aVMN0000131650
p25
atp26
Rp27
sVMN0000124492
p28
g2
((lp29
VMN0000104714
p30
aVMN0000238322
p31
aVMN0000816890
p32
aVMN0000361393
p33
aVMN0000131650
p34
aVMN0000066915
p35
aVMN0000883318
p36
aVMN0000128099
p37
atp38
Rp39
sVMN0000835585
p40
g2
((lp41
VMN0000084209
p42
aVMN0000923033
p43
aVMN0000604852
p44
atp45
Rp46
sVMN0000472925
p47
g2
((lp48
VMN0000075747
p49
aVMN0000105354
p50
atp51
Rp52
sVMN0000661795
p53
g2
((lp54
VMN0000921895
p55
atp56
Rp57
sVMN0000852688
p58
g2
((lp59
VMN0000243008
p60
aVMN0000472925
p61
atp62
Rp63
sVMN0000029600
p64
g2
((lp65
VMN0000058549
p66
aVMN0000070800
p67
aVMN0000883318
p68
aVMN0000768321
p69
atp70
Rp71
sVMN0000635466
p72
g2
((lp73
VMN0000921895
p74
atp75
Rp76
sVMN0000467382
p77
g2
((lp78
VMN0000041874
p79
aVMN0000790732
p80
aVMN0000678339
p81
aVMN0000058549
p82
aVMN0000066915
p83
aVMN0000064303
p84
atp85
Rp86
sVMN0000167517
p87
g2
((lp88
VMN0000066915
p89
aVMN0000530745
p90
aVMN0000209142
p91
atp92
Rp93
sVMN0000618713
p94
g2
((lp95
VMN0000923033
p96
atp97
Rp98
sg67
g2
((lp99
VMN0000894465
p100
aVMN0000577627
p101
aVMN0000114342
p102
aVMN0000180228
p103
aVMN0000075747
p104
atp105
Rp106
sVMN0000376613
p107
g2
((lp108
VMN0000359119
p109
aVMN0000238322
p110
atp111
Rp112
sVMN0000163229
p113
g2
((lp114
g91
aVMN0000041874
p115
atp116
Rp117
sVMN0000040743
p118
g2
((lp119
VMN0000184043
p120
aVMN0000604852
p121
aVMN0000577627
p122
aVMN0000490004
p123
aVMN0000075747
p124
atp125
Rp126
sVMN0000758444
p127
g2
((lp128
VMN0000128440
p129
aVMN0000790732
p130
aVMN0000678339
p131
aVMN0000577627
p132
aVMN0000075747
p133
atp134
Rp135
sVMN0000775323
p136
g2
((lp137
VMN0000864209
p138
aVMN0000180228
p139
atp140
Rp141
sVMN0000758630
p142
g2
((lp143
VMN0000037730
p144
aVMN0000144847
p145
atp146
Rp147
sVMN0000008828
p148
g2
((lp149
VMN0000545074
p150
aVMN0000776093
p151
aVMN0000237205
p152
atp153
Rp154
sg129
g2
((lp155
VMN0000104714
p156
atp157
Rp158
sVMN0000605375
p159
g2
((lp160
VMN0000184091
p161
aVMN0000144847
p162
atp163
Rp164
sVMN0000239921
p165
g2
((lp166
VMN0000104714
p167
aVMN0000041874
p168
atp169
Rp170
sVMN0000883318
p171
g2
((lp172
VMN0000390390
p173
aVMN0000128099
p174
aVMN0000129775
p175
aVMN0000622805
p176
atp177
Rp178
sVMN0000799053
p179
g2
((lp180
VMN0000066915
p181
atp182
Rp183
sVMN0000866491
p184
g2
((lp185
VMN0000316834
p186
aVMN0000576718
p187
ag150
aVMN0000622805
p188
aVMN0000361393
p189
aVMN0000279337
p190
atp191
Rp192
sVMN0000219203
p193
g2
((lp194
VMN0000066915
p195
aVMN0000894465
p196
aVMN0000577627
p197
aVMN0000075747
p198
atp199
Rp200
sVMN0000024944
p201
g2
((lp202
VMN0000213212
p203
aVMN0000174557
p204
aVMN0000502163
p205
aVMN0000270491
p206
aVMN0000110161
p207
atp208
Rp209
sVMN0000776093
p210
g2
((lp211
VMN0000260212
p212
ag113
aVMN0000334193
p213
aVMN0000237205
p214
atp215
Rp216
sVMN0000107090
p217
g2
((lp218
VMN0000014651
p219
aVMN0000180228
p220
atp221
Rp222
sVMN0000553483
p223
g2
((lp224
VMN0000894465
p225
aVMN0000129775
p226
aVMN0000799053
p227
aVMN0000334193
p228
aVMN0000131650
p229
atp230
Rp231
sVMN0000665908
p232
g2
((lp233
g15
aVMN0000137390
p234
aVMN0000075747
p235
aVMN0000243008
p236
atp237
Rp238
sVMN0000754251
p239
g2
((lp240
VMN0000058549
p241
aVMN0000066915
p242
aVMN0000270491
p243
aVMN0000131650
p244
atp245
Rp246
sVMN0000182415
p247
g2
((lp248
VMN0000359119
p249
aVMN0000478982
p250
aVMN0000238322
p251
atp252
Rp253
sg31
g2
((lp254
VMN0000128099
p255
aVMN0000129775
p256
aVMN0000738402
p257
aVMN0000622805
p258
aVMN0000929862
p259
atp260
Rp261
sVMN0000222436
p262
g2
((lp263
VMN0000041874
p264
aVMN0000604852
p265
aVMN0000138699
p266
aVMN0000084209
p267
aVMN0000005953
p268
aVMN0000105354
p269
aVMN0000114342
p270
atp271
Rp272
sVMN0000058549
p273
g2
((lp274
VMN0000066915
p275
aVMN0000894465
p276
aVMN0000543055
p277
aVMN0000180228
p278
atp279
Rp280
sVMN0000080780
p281
g2
((lp282
g87
aVMN0000796734
p283
aVMN0000130689
p284
aVMN0000103484
p285
aVMN0000066915
p286
aVMN0000158309
p287
aVMN0000270491
p288
aVMN0000198480
p289
ag161
aVMN0000894465
p290
aVMN0000224186
p291
aVMN0000144847
p292
ag10
aVMN0000754251
p293
aVMN0000801971
p294
aVMN0000174557
p295
aVMN0000182900
p296
aVMN0000204386
p297
atp298
Rp299
sg91
g2
((lp300
VMN0000180228
p301
atp302
Rp303
sVMN0000812877
p304
g2
((lp305
VMN0000204386
p306
atp307
Rp308
sVMN0000926237
p309
g2
((lp310
VMN0000219203
p311
aVMN0000037730
p312
ag69
aVMN0000612716
p313
aVMN0000949630
p314
aVMN0000075747
p315
aVMN0000361393
p316
aVMN0000184043
p317
ag296
atp318
Rp319
sVMN0000114342
p320
g2
((lp321
VMN0000066915
p322
aVMN0000894465
p323
atp324
Rp325
sg294
g2
((lp326
VMN0000066915
p327
atp328
Rp329
sVMN0000184811
p330
g2
((lp331
VMN0000842802
p332
aVMN0000104714
p333
aVMN0000334193
p334
atp335
Rp336
sVMN0000110161
p337
g2
((lp338
VMN0000041874
p339
atp340
Rp341
sVMN0000577627
p342
g2
((lp343
VMN0000128099
p344
aVMN0000894465
p345
aVMN0000041874
p346
atp347
Rp348
sVMN0000100196
p349
g2
((lp350
VMN0000359119
p351
aVMN0000238322
p352
atp353
Rp354
sVMN0000103484
p355
g2
((lp356
VMN0000213212
p357
aVMN0000130689
p358
aVMN0000270491
p359
ag289
aVMN0000066915
p360
aVMN0000204386
p361
atp362
Rp363
sVMN0000074520
p364
g2
((lp365
VMN0000894465
p366
aVMN0000490004
p367
aVMN0000577627
p368
ag50
atp369
Rp370
sVMN0000341672
p371
g2
((lp372
g67
aVMN0000163229
p373
ag69
aVMN0000237205
p374
ag129
aVMN0000790732
p375
aVMN0000361393
p376
aVMN0000131650
p377
aVMN0000496487
p378
ag171
atp379
Rp380
sg287
g2
((lp381
VMN0000894465
p382
aVMN0000987621
p383
aVMN0000180228
p384
atp385
Rp386
sVMN0000943827
p387
g2
((lp388
VMN0000583959
p389
ag28
atp390
Rp391
sVMN0000136871
p392
g2
((lp393
VMN0000316834
p394
aVMN0000577627
p395
atp396
Rp397
sVMN0000790732
p398
g2
((lp399
VMN0000066915
p400
ag23
atp401
Rp402
sVMN0000332257
p403
g2
((lp404
VMN0000129775
p405
aVMN0000359119
p406
aVMN0000279337
p407
atp408
Rp409
sVMN0000023925
p410
g2
((lp411
VMN0000204386
p412
atp413
Rp414
sVMN0000478982
p415
g2
((lp416
VMN0000128099
p417
aVMN0000129775
p418
aVMN0000738402
p419
aVMN0000622805
p420
aVMN0000929862
p421
atp422
Rp423
sVMN0000583959
p424
g2
((lp425
VMN0000066915
p426
atp427
Rp428
sVMN0000000441
p429
g2
((lp430
VMN0000790820
p431
aVMN0000883318
p432
aVMN0000134729
p433
atp434
Rp435
sVMN0000079960
p436
g2
((lp437
VMN0000163229
p438
aVMN0000796734
p439
aVMN0000041874
p440
aVMN0000685647
p441
aVMN0000604852
p442
aVMN0000577627
p443
atp444
Rp445
sVMN0000545074
p446
g2
((lp447
VMN0000151979
p448
aVMN0000316834
p449
aVMN0000796734
p450
aVMN0000180228
p451
aVMN0000361393
p452
aVMN0000467203
p453
atp454
Rp455
sVMN0000599732
p456
g2
((lp457
g403
aVMN0000478982
p458
ag31
atp459
Rp460
sVMN0000667669
p461
g2
((lp462
VMN0000041874
p463
aVMN0000090124
p464
atp465
Rp466
sVMN0000270491
p467
g2
((lp468
VMN0000066915
p469
atp470
Rp471
sVMN0000628467
p472
g2
((lp473
VMN0000776093
p474
aVMN0000007689
p475
ag217
aVMN0000765595
p476
ag148
aVMN0000237205
p477
aVMN0000467203
p478
atp479
Rp480
sVMN0000053606
p481
g2
((lp482
VMN0000316834
p483
atp484
Rp485
sVMN0000113753
p486
g2
((lp487
VMN0000316834
p488
aVMN0000376204
p489
ag420
aVMN0000238322
p490
aVMN0000478982
p491
ag403
aVMN0000806542
p492
atp493
Rp494
sVMN0000066915
p495
g2
((lp496
VMN0000816890
p497
ag451
atp498
Rp499
sVMN0000792530
p500
g2
((lp501
VMN0000796734
p502
ag239
ag288
aVMN0000842802
p503
aVMN0000114342
p504
ag295
atp505
Rp506
sVMN0000147785
p507
g2
((lp508
VMN0000037730
p509
ag7
aVMN0000152023
p510
ag142
aVMN0000184043
p511
atp512
Rp513
sVMN0000113300
p514
g2
((lp515
VMN0000128099
p516
aVMN0000929862
p517
atp518
Rp519
sVMN0000530745
p520
g2
((lp521
VMN0000046727
p522
ag469
aVMN0000894465
p523
aVMN0000577627
p524
ag451
atp525
Rp526
sVMN0000864209
p527
g2
((lp528
VMN0000066915
p529
ag451
atp530
Rp531
sVMN0000674662
p532
g2
((lp533
VMN0000548338
p534
aVMN0000066915
p535
aVMN0000894465
p536
aVMN0000174557
p537
atp538
Rp539
sVMN0000289599
p540
g2
((lp541
VMN0000134729
p542
aVMN0000290502
p543
ag431
aVMN0000472925
p544
ag165
aVMN0000883318
p545
atp546
Rp547
sVMN0000837886
p548
g2
((lp549
g15
atp550
Rp551
sVMN0000084446
p552
g2
((lp553
VMN0000279337
p554
aVMN0000113753
p555
aVMN0000927555
p556
aVMN0000622805
p557
aVMN0000270491
p558
atp559
Rp560
sVMN0000604852
p561
g2
((lp562
VMN0000128099
p563
aVMN0000894465
p564
aVMN0000577627
p565
atp566
Rp567
sVMN0000183311
p568
g2
((lp569
VMN0000180228
p570
atp571
Rp572
sg161
g2
((lp573
VMN0000796734
p574
aVMN0000130689
p575
aVMN0000270491
p576
aVMN0000066915
p577
aVMN0000530745
p578
aVMN0000204386
p579
atp580
Rp581
sVMN0000131650
p582
g2
((lp583
VMN0000128099
p584
aVMN0000129775
p585
aVMN0000104714
p586
atp587
Rp588
sVMN0000162487
p589
g2
((lp590
g161
aVMN0000816890
p591
aVMN0000014651
p592
aVMN0000158309
p593
atp594
Rp595
sVMN0000467203
p596
g2
((lp597
VMN0000316834
p598
aVMN0000796734
p599
aVMN0000622805
p600
aVMN0000165011
p601
aVMN0000894465
p602
aVMN0000128099
p603
atp604
Rp605
sVMN0000046814
p606
g2
((lp607
VMN0000583959
p608
aVMN0000162269
p609
atp610
Rp611
sVMN0000227088
p612
g2
((lp613
VMN0000583959
p614
aVMN0000066915
p615
aVMN0000858375
p616
atp617
Rp618
sVMN0000105129
p619
g2
((lp620
VMN0000037730
p621
aVMN0000894465
p622
aVMN0000029808
p623
aVMN0000577627
p624
aVMN0000758453
p625
atp626
Rp627
sVMN0000776371
p628
g2
((lp629
VMN0000865016
p630
aVMN0000467203
p631
atp632
Rp633
sg420
g2
((lp634
VMN0000128099
p635
aVMN0000066915
p636
atp637
Rp638
sVMN0000091549
p639
g2
((lp640
VMN0000137390
p641
aVMN0000790820
p642
ag429
aVMN0000270667
p643
atp644
Rp645
sVMN0000094813
p646
g2
((lp647
VMN0000373634
p648
atp649
Rp650
sVMN0000290502
p651
g2
((lp652
VMN0000790820
p653
ag171
ag542
aVMN0000959876
p654
atp655
Rp656
sVMN0000747757
p657
g2
((lp658
VMN0000199995
p659
aVMN0000138699
p660
atp661
Rp662
sVMN0000337119
p663
g2
((lp664
VMN0000316834
p665
aVMN0000796734
p666
aVMN0000543055
p667
atp668
Rp669
sVMN0000263271
p670
g2
((lp671
g193
aVMN0000037730
p672
atp673
Rp674
sg234
g2
((lp675
VMN0000075747
p676
atp677
Rp678
sVMN0000193320
p679
g2
((lp680
VMN0000536275
p681
ag96
aVMN0000163229
p682
aVMN0000796734
p683
aVMN0000079960
p684
aVMN0000084209
p685
aVMN0000987621
p686
aVMN0000339624
p687
ag561
aVMN0000894465
p688
aVMN0000260206
p689
atp690
Rp691
sVMN0000151979
p692
g2
((lp693
VMN0000536275
p694
aVMN0000478603
p695
aVMN0000064303
p696
atp697
Rp698
sVMN0000743623
p699
g2
((lp700
VMN0000219203
p701
atp702
Rp703
sVMN0000156938
p704
g2
((lp705
VMN0000796763
p706
atp707
Rp708
sg522
g2
((lp709
VMN0000128099
p710
atp711
Rp712
sVMN0000490004
p713
g2
((lp714
g692
aVMN0000536275
p715
aVMN0000041874
p716
aVMN0000005953
p717
aVMN0000894465
p718
aVMN0000577627
p719
atp720
Rp721
sVMN0000685647
p722
g2
((lp723
VMN0000066915
p724
aVMN0000041874
p725
atp726
Rp727
sVMN0000084209
p728
g2
((lp729
VMN0000536275
p730
aVMN0000894465
p731
aVMN0000005953
p732
aVMN0000577627
p733
atp734
Rp735
sVMN0000162269
p736
g2
((lp737
VMN0000014651
p738
ag201
aVMN0000927555
p739
aVMN0000796734
p740
atp741
Rp742
sVMN0000373634
p743
g2
((lp744
g514
aVMN0000478982
p745
atp746
Rp747
sVMN0000105354
p748
g2
((lp749
VMN0000894465
p750
ag716
aVMN0000577627
p751
aVMN0000064303
p752
atp753
Rp754
sVMN0000334193
p755
g2
((lp756
VMN0000104714
p757
aVMN0000929862
p758
atp759
Rp760
sVMN0000929862
p761
g2
((lp762
VMN0000104714
p763
aVMN0000129775
p764
aVMN0000128099
p765
atp766
Rp767
sg616
g2
((lp768
VMN0000066915
p769
aVMN0000204386
p770
aVMN0000270491
p771
atp772
Rp773
sVMN0000144847
p774
g2
((lp775
VMN0000041874
p776
aVMN0000204386
p777
atp778
Rp779
sg694
g2
((lp780
VMN0000894465
p781
aVMN0000577627
p782
atp783
Rp784
sVMN0000372322
p785
g2
((lp786
VMN0000270491
p787
atp788
Rp789
sVMN0000850692
p790
g2
((lp791
VMN0000066915
p792
atp793
Rp794
sVMN0000029808
p795
g2
((lp796
VMN0000604852
p797
aVMN0000894465
p798
aVMN0000260206
p799
aVMN0000079960
p800
aVMN0000193320
p801
atp802
Rp803
sVMN0000351227
p804
g2
((lp805
g337
aVMN0000796734
p806
ag4
ag392
aVMN0000459616
p807
ag687
aVMN0000144847
p808
atp809
Rp810
sVMN0000987621
p811
g2
((lp812
VMN0000894465
p813
aVMN0000577627
p814
atp815
Rp816
sg289
g2
((lp817
VMN0000066915
p818
atp819
Rp820
sVMN0000361393
p821
g2
((lp822
VMN0000316834
p823
aVMN0000129775
p824
ag420
aVMN0000624215
p825
aVMN0000270491
p826
ag273
aVMN0000390390
p827
aVMN0000128099
p828
atp829
Rp830
sVMN0000359119
p831
g2
((lp832
g514
aVMN0000929862
p833
atp834
Rp835
sVMN0000390390
p836
g2
((lp837
VMN0000128099
p838
ag420
atp839
Rp840
sVMN0000081316
p841
g2
((lp842
VMN0000921895
p843
atp844
Rp845
sVMN0000184043
p846
g2
((lp847
g273
ag728
ag50
aVMN0000075747
p848
atp849
Rp850
sVMN0000317865
p851
g2
((lp852
VMN0000008828
p853
aVMN0000765595
p854
aVMN0000237205
p855
ag596
atp856
Rp857
sVMN0000085915
p858
g2
((lp859
VMN0000165011
p860
aVMN0000066915
p861
ag295
aVMN0000864209
p862
aVMN0000796734
p863
atp864
Rp865
sVMN0000376204
p866
g2
((lp867
VMN0000316834
p868
aVMN0000927555
p869
aVMN0000279337
p870
atp871
Rp872
sVMN0000624215
p873
g2
((lp874
g827
aVMN0000128099
p875
aVMN0000316834
p876
ag420
atp877
Rp878
sg764
g2
((lp879
VMN0000128099
p880
aVMN0000138699
p881
atp882
Rp883
sVMN0000225930
p884
g2
((lp885
VMN0000478603
p886
aVMN0000754251
p887
aVMN0000270491
p888
aVMN0000894465
p889
aVMN0000237205
p890
aVMN0000182900
p891
atp892
Rp893
sg807
g2
((lp894
VMN0000045313
p895
aVMN0000622805
p896
atp897
Rp898
sg630
g2
((lp899
VMN0000467203
p900
atp901
Rp902
sVMN0000200074
p903
g2
((lp904
VMN0000058549
p905
aVMN0000361393
p906
aVMN0000894465
p907
aVMN0000316834
p908
ag420
atp909
Rp910
sVMN0000270667
p911
g2
((lp912
g193
aVMN0000842802
p913
aVMN0000114342
p914
aVMN0000066915
p915
aVMN0000131650
p916
atp917
Rp918
sg10
g2
((lp919
VMN0000066915
p920
aVMN0000198480
p921
atp922
Rp923
sVMN0000737886
p924
g2
((lp925
g87
ag150
ag136
aVMN0000351227
p926
aVMN0000765595
p927
ag596
atp928
Rp929
sVMN0000000534
p930
g2
((lp931
VMN0000776093
p932
aVMN0000467203
p933
aVMN0000765595
p934
aVMN0000237205
p935
ag148
atp936
Rp937
sVMN0000206241
p938
g2
((lp939
VMN0000104714
p940
atp941
Rp942
sg96
g2
((lp943
VMN0000685647
p944
aVMN0000199995
p945
aVMN0000041874
p946
aVMN0000577627
p947
aVMN0000180228
p948
atp949
Rp950
sVMN0000612716
p951
g2
((lp952
VMN0000894465
p953
aVMN0000816890
p954
ag469
ag91
atp955
Rp956
sVMN0000237205
p957
g2
((lp958
g217
ag906
aVMN0000316834
p959
atp960
Rp961
sVMN0000011707
p962
g2
((lp963
g469
aVMN0000674662
p964
atp965
Rp966
sVMN0000339624
p967
g2
((lp968
g217
aVMN0000530745
p969
ag862
aVMN0000796734
p970
aVMN0000005953
p971
atp972
Rp973
sVMN0000842802
p974
g2
((lp975
VMN0000128099
p976
ag23
atp977
Rp978
sVMN0000894465
p979
g2
((lp980
VMN0000806542
p981
aVMN0000066915
p982
aVMN0000128099
p983
ag451
atp984
Rp985
sVMN0000585896
p986
g2
((lp987
g87
ag313
aVMN0000075747
p988
ag291
ag273
ag469
ag969
atp989
Rp990
sVMN0000496487
p991
g2
((lp992
g663
atp993
Rp994
sVMN0000175579
p995
g2
((lp996
VMN0000184043
p997
aVMN0000790820
p998
ag542
atp999
Rp1000
sVMN0000738402
p1001
g2
((lp1002
g763
ag764
aVMN0000128099
p1003
atp1004
Rp1005
sVMN0000804703
p1006
g2
((lp1007
g722
ag659
atp1008
Rp1009
sVMN0000932665
p1010
g2
((lp1011
VMN0000792530
p1012
aVMN0000103484
p1013
aVMN0000754251
p1014
aVMN0000237205
p1015
ag287
ag884
ag643
aVMN0000099246
p1016
atp1017
Rp1018
sVMN0000270497
p1019
g2
((lp1020
VMN0000104714
p1021
atp1022
Rp1023
sVMN0000988627
p1024
g2
((lp1025
g431
ag619
atp1026
Rp1027
sVMN0000303626
p1028
g2
((lp1029
VMN0000685647
p1030
aVMN0000850692
p1031
aVMN0000199995
p1032
atp1033
Rp1034
sVMN0000260212
p1035
g2
((lp1036
VMN0000583959
p1037
ag165
ag763
aVMN0000334193
p1038
atp1039
Rp1040
sVMN0000242211
p1041
g2
((lp1042
VMN0000037730
p1043
ag623
aVMN0000134729
p1044
atp1045
Rp1046
sVMN0000785101
p1047
g2
((lp1048
VMN0000128440
p1049
ag938
atp1050
Rp1051
sVMN0000037730
p1052
g2
((lp1053
VMN0000084209
p1054
ag561
aVMN0000894465
p1055
aVMN0000114342
p1056
aVMN0000577627
p1057
ag171
atp1058
Rp1059
sVMN0000224345
p1060
g2
((lp1061
g148
atp1062
Rp1063
sVMN0000281254
p1064
g2
((lp1065
VMN0000144847
p1066
atp1067
Rp1068
sg475
g2
((lp1069
VMN0000865016
p1070
aVMN0000361393
p1071
atp1072
Rp1073
sg6
g2
((lp1074
VMN0000136871
p1075
aVMN0000011707
p1076
atp1077
Rp1078
sVMN0000139089
p1079
g2
((lp1080
VMN0000390532
p1081
aVMN0000041874
p1082
aVMN0000612716
p1083
atp1084
Rp1085
sVMN0000075747
p1086
g2
((lp1087
VMN0000066915
p1088
aVMN0000577627
p1089
aVMN0000490004
p1090
ag451
atp1091
Rp1092
sVMN0000224186
p1093
g2
((lp1094
VMN0000583959
p1095
aVMN0000624215
p1096
aVMN0000072041
p1097
ag290
ag469
ag969
atp1098
Rp1099
sg895
g2
((lp1100
VMN0000543055
p1101
atp1102
Rp1103
sg431
g2
((lp1104
VMN0000134729
p1105
atp1106
Rp1107
sVMN0000153443
p1108
g2
((lp1109
VMN0000373634
p1110
atp1111
Rp1112
sVMN0000690254
p1113
g2
((lp1114
g290
aVMN0000577627
p1115
atp1116
Rp1117
sVMN0000498987
p1118
g2
((lp1119
VMN0000361393
p1120
ag1015
ag596
atp1121
Rp1122
sg843
g2
((lp1123
VMN0000113300
p1124
atp1125
Rp1126
sVMN0000797431
p1127
g2
((lp1128
g165
aVMN0000496487
p1129
aVMN0000758444
p1130
atp1131
Rp1132
sVMN0000822910
p1133
g2
((lp1134
VMN0000290502
p1135
aVMN0000790820
p1136
aVMN0000883318
p1137
atp1138
Rp1139
sVMN0000478603
p1140
g2
((lp1141
VMN0000894465
p1142
aVMN0000041874
p1143
atp1144
Rp1145
sg542
g2
((lp1146
VMN0000129775
p1147
aVMN0000490004
p1148
aVMN0000138699
p1149
atp1150
Rp1151
sVMN0000765595
p1152
g2
((lp1153
g692
ag150
aVMN0000776371
p1154
aVMN0000351227
p1155
aVMN0000237205
p1156
aVMN0000008828
p1157
ag630
ag596
atp1158
Rp1159
sVMN0000213212
p1160
g2
((lp1161
VMN0000066915
p1162
ag288
atp1163
Rp1164
sg860
g2
((lp1165
VMN0000927555
p1166
atp1167
Rp1168
sVMN0000678339
p1169
g2
((lp1170
VMN0000163229
p1171
ag716
aVMN0000075747
p1172
aVMN0000502163
p1173
aVMN0000066915
p1174
aVMN0000064303
p1175
atp1176
Rp1177
sVMN0000260206
p1178
g2
((lp1179
VMN0000690254
p1180
aVMN0000604852
p1181
aVMN0000138699
p1182
ag728
aVMN0000005953
p1183
aVMN0000577627
p1184
atp1185
Rp1186
sVMN0000780258
p1187
g2
((lp1188
g217
aVMN0000467203
p1189
ag475
aVMN0000237205
p1190
ag148
atp1191
Rp1192
sVMN0000069534
p1193
g2
((lp1194
g96
ag436
ag728
ag811
ag687
ag561
aVMN0000005953
p1195
aVMN0000260206
p1196
aVMN0000224186
p1197
aVMN0000894465
p1198
ag969
atp1199
Rp1200
sVMN0000665860
p1201
g2
((lp1202
VMN0000490004
p1203
ag728
ag623
aVMN0000604852
p1204
aVMN0000114342
p1205
atp1206
Rp1207
sVMN0000194246
p1208
g2
((lp1209
VMN0000137390
p1210
aVMN0000334193
p1211
ag938
ag1016
atp1212
Rp1213
sVMN0000182900
p1214
g2
((lp1215
VMN0000894465
p1216
ag716
aVMN0000180228
p1217
aVMN0000198480
p1218
atp1219
Rp1220
sVMN0000130689
p1221
g2
((lp1222
g469
aVMN0000270491
p1223
atp1224
Rp1225
sVMN0000949630
p1226
g2
((lp1227
VMN0000069534
p1228
ag1090
ag50
aVMN0000612716
p1229
atp1230
Rp1231
sVMN0000138699
p1232
g2
((lp1233
VMN0000894465
p1234
atp1235
Rp1236
sVMN0000243008
p1237
g2
((lp1238
g716
aVMN0000490004
p1239
ag728
aVMN0000747757
p1240
aVMN0000260206
p1241
ag273
ag50
atp1242
Rp1243
sVMN0000072041
p1244
g2
((lp1245
VMN0000316834
p1246
aVMN0000622805
p1247
ag290
ag451
ag765
aVMN0000066915
p1248
atp1249
Rp1250
sVMN0000279337
p1251
g2
((lp1252
g420
atp1253
Rp1254
sg1016
g2
((lp1255
VMN0000206241
p1256
atp1257
Rp1258
sVMN0000626939
p1259
g2
((lp1260
g623
atp1261
Rp1262
sg295
g2
((lp1263
VMN0000180228
p1264
atp1265
Rp1266
sVMN0000204386
p1267
g2
((lp1268
VMN0000066915
p1269
aVMN0000174557
p1270
atp1271
Rp1272
sVMN0000064303
p1273
g2
((lp1274
VMN0000577627
p1275
atp1276
Rp1277
sVMN0000576718
p1278
g2
((lp1279
g483
aVMN0000545074
p1280
aVMN0000129775
p1281
ag420
ag974
ag906
aVMN0000206241
p1282
ag596
atp1283
Rp1284
sVMN0000502163
p1285
g2
((lp1286
g1232
atp1287
Rp1288
sVMN0000796734
p1289
g2
((lp1290
VMN0000674662
p1291
aVMN0000041874
p1292
ag451
ag860
ag290
aVMN0000066915
p1293
ag295
atp1294
Rp1295
sVMN0000768321
p1296
g2
((lp1297
VMN0000075747
p1298
ag811
aVMN0000747757
p1299
aVMN0000894465
p1300
aVMN0000131650
p1301
ag273
aVMN0000114342
p1302
atp1303
Rp1304
sVMN0000005307
p1305
g2
((lp1306
VMN0000316834
p1307
aVMN0000376204
p1308
ag475
aVMN0000927555
p1309
aVMN0000622805
p1310
ag860
aVMN0000361393
p1311
aVMN0000279337
p1312
aVMN0000113753
p1313
aVMN0000866491
p1314
atp1315
Rp1316
sVMN0000212614
p1317
g2
((lp1318
VMN0000622805
p1319
atp1320
Rp1321
sVMN0000758453
p1322
g2
((lp1323
g392
aVMN0000072041
p1324
aVMN0000894465
p1325
aVMN0000114342
p1326
aVMN0000690254
p1327
ag296
atp1328
Rp1329
sVMN0000005953
p1330
g2
((lp1331
VMN0000041874
p1332
aVMN0000138699
p1333
aVMN0000894465
p1334
aVMN0000114342
p1335
aVMN0000577627
p1336
aVMN0000066915
p1337
atp1338
Rp1339
sVMN0000038805
p1340
g2
((lp1341
VMN0000376204
p1342
aVMN0000200074
p1343
aVMN0000361393
p1344
aVMN0000182415
p1345
aVMN0000927555
p1346
ag420
aVMN0000279337
p1347
aVMN0000113753
p1348
atp1349
Rp1350
sVMN0000033666
p1351
g2
((lp1352
VMN0000685647
p1353
aVMN0000041874
p1354
aVMN0000199995
p1355
ag532
atp1356
Rp1357
s.