(dp0
VMN0000316834
p1
c__builtin__
set
p2
((lp3
VMN0000317093
p4
atp5
Rp6
sVMN0000802302
p7
g2
((lp8
VMN0000772526
p9
atp10
Rp11
sVMN0000074195
p12
g2
((lp13
VMN0000317093
p14
atp15
Rp16
sVMN0000041874
p17
g2
((lp18
VMN0000265456
p19
atp20
Rp21
sVMN0000097654
p22
g2
((lp23
VMN0000934069
p24
atp25
Rp26
sVMN0000835585
p27
g2
((lp28
VMN0000923033
p29
aVMN0000671953
p30
atp31
Rp32
sVMN0000029884
p33
g2
((lp34
VMN0000180228
p35
atp36
Rp37
sVMN0000475431
p38
g2
((lp39
VMN0000180228
p40
atp41
Rp42
sVMN0000149515
p43
g2
((lp44
VMN0000128099
p45
aVMN0000751019
p46
atp47
Rp48
sVMN0000051909
p49
g2
((lp50
VMN0000041874
p51
aVMN0000002330
p52
atp53
Rp54
sVMN0000203639
p55
g2
((lp56
VMN0000180228
p57
atp58
Rp59
sVMN0000498987
p60
g2
((lp61
VMN0000208774
p62
atp63
Rp64
sVMN0000467382
p65
g2
((lp66
VMN0000041874
p67
aVMN0000936425
p68
atp69
Rp70
sVMN0000659517
p71
g2
((lp72
VMN0000316834
p73
aVMN0000751019
p74
atp75
Rp76
sVMN0000208774
p77
g2
((lp78
VMN0000092942
p79
ag7
atp80
Rp81
sVMN0000864209
p82
g2
((lp83
VMN0000265456
p84
aVMN0000180228
p85
atp86
Rp87
sVMN0000087985
p88
g2
((lp89
VMN0000041874
p90
atp91
Rp92
sVMN0000305468
p93
g2
((lp94
VMN0000671953
p95
atp96
Rp97
sVMN0000478603
p98
g2
((lp99
VMN0000041874
p100
aVMN0000751019
p101
atp102
Rp103
sVMN0000210323
p104
g2
((lp105
VMN0000128099
p106
atp107
Rp108
sVMN0000119469
p109
g2
((lp110
VMN0000110161
p111
atp112
Rp113
sVMN0000473554
p114
g2
((lp115
VMN0000934069
p116
atp117
Rp118
sVMN0000200074
p119
g2
((lp120
VMN0000659517
p121
aVMN0000316834
p122
aVMN0000144458
p123
atp124
Rp125
sVMN0000267814
p126
g2
((lp127
VMN0000128099
p128
aVMN0000144458
p129
atp130
Rp131
sVMN0000222748
p132
g2
((lp133
g95
atp134
Rp135
sVMN0000069986
p136
g2
((lp137
VMN0000903609
p138
atp139
Rp140
sVMN0000936425
p141
g2
((lp142
VMN0000316834
p143
aVMN0000041874
p144
aVMN0000087985
p145
aVMN0000144458
p146
atp147
Rp148
sVMN0000132449
p149
g2
((lp150
VMN0000934069
p151
aVMN0000136640
p152
atp153
Rp154
sVMN0000012180
p155
g2
((lp156
VMN0000944084
p157
atp158
Rp159
sg95
g2
((lp160
VMN0000659517
p161
atp162
Rp163
sVMN0000605375
p164
g2
((lp165
VMN0000944084
p166
atp167
Rp168
sVMN0000038469
p169
g2
((lp170
VMN0000128099
p171
atp172
Rp173
sVMN0000024944
p174
g2
((lp175
VMN0000110161
p176
aVMN0000132449
p177
atp178
Rp179
sVMN0000923033
p180
g2
((lp181
VMN0000041874
p182
aVMN0000199995
p183
aVMN0000180228
p184
atp185
Rp186
sVMN0000820232
p187
g2
((lp188
VMN0000094205
p189
atp190
Rp191
sVMN0000567624
p192
g2
((lp193
VMN0000144458
p194
atp195
Rp196
sVMN0000618713
p197
g2
((lp198
g180
atp199
Rp200
sVMN0000106916
p201
g2
((lp202
VMN0000944084
p203
atp204
Rp205
sVMN0000138407
p206
g2
((lp207
VMN0000316834
p208
atp209
Rp210
sVMN0000096613
p211
g2
((lp212
VMN0000204386
p213
aVMN0000130689
p214
atp215
Rp216
sVMN0000281254
p217
g2
((lp218
VMN0000936206
p219
aVMN0000944084
p220
aVMN0000069986
p221
atp222
Rp223
sVMN0000390390
p224
g2
((lp225
VMN0000128099
p226
aVMN0000144458
p227
atp228
Rp229
sVMN0000805661
p230
g2
((lp231
g74
atp232
Rp233
sVMN0000898479
p234
g2
((lp235
VMN0000041874
p236
atp237
Rp238
sVMN0000151979
p239
g2
((lp240
VMN0000153526
p241
aVMN0000087985
p242
aVMN0000478603
p243
atp244
Rp245
sVMN0000204386
p246
g2
((lp247
VMN0000087985
p248
atp249
Rp250
sg194
g2
((lp251
VMN0000317093
p252
aVMN0000128099
p253
atp254
Rp255
sVMN0000141838
p256
g2
((lp257
VMN0000316834
p258
aVMN0000478603
p259
aVMN0000751019
p260
atp261
Rp262
sg111
g2
((lp263
VMN0000041874
p264
atp265
Rp266
sVMN0000153526
p267
g2
((lp268
VMN0000180228
p269
atp270
Rp271
sVMN0000186185
p272
g2
((lp273
VMN0000074195
p274
ag82
atp275
Rp276
sVMN0000002330
p277
g2
((lp278
VMN0000041874
p279
atp280
Rp281
sg24
g2
((lp282
VMN0000317093
p283
atp284
Rp285
sVMN0000774145
p286
g2
((lp287
VMN0000208774
p288
atp289
Rp290
sVMN0000921965
p291
g2
((lp292
VMN0000820232
p293
aVMN0000094205
p294
atp295
Rp296
sVMN0000081619
p297
g2
((lp298
VMN0000605375
p299
ag166
aVMN0000094205
p300
atp301
Rp302
sVMN0000303626
p303
g2
((lp304
VMN0000199995
p305
atp306
Rp307
sVMN0000931015
p308
g2
((lp309
g180
atp310
Rp311
sVMN0000361014
p312
g2
((lp313
VMN0000478982
p314
atp315
Rp316
sVMN0000542976
p317
g2
((lp318
VMN0000772526
p319
atp320
Rp321
sVMN0000751019
p322
g2
((lp323
g35
atp324
Rp325
sVMN0000325459
p326
g2
((lp327
VMN0000041874
p328
atp329
Rp330
sVMN0000092942
p331
g2
((lp332
g106
aVMN0000316834
p333
aVMN0000144458
p334
atp335
Rp336
sVMN0000478982
p337
g2
((lp338
VMN0000128099
p339
atp340
Rp341
s.