(dp0
VMN0000317093
p1
S'Nat King Cole'
p2
sVMN0000316834
p3
S'Marvin Gaye'
p4
sVMN0000021744
p5
S'Stephen Stills'
p6
sVMN0000006987
p7
S'Alias'
p8
sVMN0000852007
p9
S'Roy Orbison'
p10
sVMN0000604924
p11
S'Arthur Conley'
p12
sVMN0000796690
p13
S'Don Covay'
p14
sVMN0000284667
p15
S'Robbie Nevil'
p16
sVMN0000988692
p17
S'Grapefruit'
p18
sVMN0000691616
p19
S'Ryan Cabrera'
p20
sVMN0000945196
p21
S'Gerry Rafferty'
p22
sVMN0000329468
p23
S'Jerry Butler'
p24
sVMN0000058035
p25
S'The Chiffons'
p26
sVMN0000855531
p27
S'Barbra Streisand'
p28
s.