(dp0
VMN0000376613
p1
S'Q-Tip'
p2
sVMN0001162681
p3
S'C+C Music Factory'
p4
sVMN0002453941
p5
S'Portrait'
p6
sVMN0000295276
p7
S'Jimmy Cliff'
p8
sVMN0000245760
p9
S'Les McCann'
p10
sVMN0000344609
p11
S'Jesus Jones'
p12
sVMN0000472925
p13
S'The Offspring'
p14
sVMN0000216978
p15
S'U.N.V.'
p16
sVMN0001928494
p17
S'Sweet Dreams'
p18
sVMN0000051909
p19
S'Carpenters'
p20
sVMN0000590524
p21
S'Young-Holt Unlimited'
p22
sVMN0000299668
p23
S'KC & The Sunshine Band'
p24
sVMN0000739041
p25
S'Fountains Of Wayne'
p26
sVMN0000670226
p27
S'The Killers'
p28
sVMN0000053606
p29
S'Bloodstone'
p30
sVMN0000231342
p31
S'Deee-Lite'
p32
sVMN0000021050
p33
S'Paul Lekakis'
p34
sVMN0000665835
p35
S'Goose Creek Symphony'
p36
sVMN0000868174
p37
S'Rascal Flatts'
p38
sVMN0000020050
p39
S'Ten Years After'
p40
sVMN0000035338
p41
S'Peabo Bryson'
p42
sVMN0000677781
p43
S'Wilson Pickett'
p44
sVMN0000239921
p45
S'Depeche Mode'
p46
sVMN0000744573
p47
S'TKA'
p48
sVMN0000883318
p49
S'Red Hot Chili Peppers'
p50
sVMN0000913490
p51
S'Cheyenne Kimball'
p52
sVMN0000799053
p53
S'Donovan'
p54
sVMN0000866491
p55
S'Maxwell'
p56
sVMN0000322092
p57
S'Peter Cetera'
p58
sVMN0000664093
p59
S'Hamilton Bohannon'
p60
sVMN0000242543
p61
S'West Street Mob'
p62
sVMN0000387973
p63
S'Raekwon'
p64
sVMN0000527463
p65
S'Bull Moose Jackson'
p66
sVMN0000633358
p67
S'Danity Kane'
p68
sVMN0000566430
p69
S'Mobb Deep Featuring Vita & Noyd'
p70
sVMN0000036641
p71
S'Paul Wall Featuring Big Pokey'
p72
sVMN0000794306
p73
S'EMF'
p74
sVMN0000209142
p75
S'George Harrison'
p76
sVMN0000049026
p77
S'Switchfoot'
p78
sVMN0000603980
p79
S'Tiny Tim'
p80
sVMN0000114342
p81
S'The Doors'
p82
sVMN0000011597
p83
S'The American Breed'
p84
sVMN0000069702
p85
S'Choirboys'
p86
sVMN0000141838
p87
S'Eddie Money'
p88
sVMN0000824022
p89
S'Little Richard'
p90
sVMN0000186185
p91
S'Celine Dion'
p92
sVMN0000103484
p93
S'Indigo Girls'
p94
sVMN0000060476
p95
S'The Friends Of Distinction'
p96
sVMN0000226312
p97
S'Lil Suzy'
p98
sVMN0000175049
p99
S'Firehouse'
p100
sVMN0000943827
p101
S'Cake'
p102
sVMN0000136871
p103
S'The Doobie Brothers'
p104
sVMN0000029808
p105
S'Tesla'
p106
sVMN0000340152
p107
S'Ratt'
p108
sVMN0000930722
p109
S'Timi Yuro'
p110
sVMN0000796690
p111
S'Don Covay'
p112
sVMN0000064509
p113
S'Bobby Womack'
p114
sVMN0000662067
p115
S'Gravediggaz'
p116
sVMN0000661795
p117
S'DMX'
p118
sVMN0000304401
p119
S'Procol Harum'
p120
sVMN0000921895
p121
S'2Pac'
p122
sVMN0000068097
p123
S'Bob Lind'
p124
sVMN0000011754
p125
S'Sheena Easton'
p126
sVMN0000321321
p127
S'Lulu'
p128
sVMN0000959876
p129
S'Wu-Tang Clan'
p130
sVMN0000570046
p131
S'Marc Almond'
p132
sVMN0000173647
p133
S'Firefall'
p134
sVMN0000342834
p135
S'Mel Carter'
p136
sVMN0000584923
p137
S'Dave Edmunds'
p138
sVMN0000530745
p139
S'Bruce Springsteen'
p140
sVMN0000117272
p141
S'Connie Stevens'
p142
sVMN0000178345
p143
S'Jane Child'
p144
sVMN0000774588
p145
S'Kris Kristofferson'
p146
sVMN0000119469
p147
S'Corey Hart'
p148
sVMN0000222748
p149
S'Vixen'
p150
sVMN0000062729
p151
S'Bobby Sherman'
p152
sVMN0000127451
p153
S'Jackie DeShannon'
p154
sVMN0000695401
p155
S'Yvonne Fair'
p156
sVMN0000260038
p157
S'Dinah Washington'
p158
sVMN0000755776
p159
S'Simon Stokes'
p160
sVMN0000199995
p161
S'Genesis'
p162
sVMN0000358408
p163
S'Run-D.M.C.'
p164
sVMN0000106916
p165
S'Chris Cagle'
p166
sVMN0000776371
p167
S'Color Me Badd'
p168
sVMN0000328014
p169
S'Peter Tosh'
p170
sVMN0000016235
p171
S'Tony Orlando'
p172
sVMN0000792507
p173
S'Frank Sinatra'
p174
sVMN0000747757
p175
S'Split Enz'
p176
sVMN0000814898
p177
S'Lee Dorsey'
p178
sVMN0000925635
p179
S'Sunshine Anderson'
p180
sVMN0000502806
p181
S'The Rivingtons'
p182
sVMN0000094752
p183
S'LL Cool J'
p184
sVMN0000766893
p185
S'The Isley Brothers'
p186
sVMN0000533117
p187
S'Ice Cube Featuring George Clinton'
p188
sVMN0000020278
p189
S'Teddy Pendergrass'
p190
sVMN0000175939
p191
S'David Geddes'
p192
sVMN0000662797
p193
S'Ginuwine'
p194
sVMN0000317020
p195
S"Quad City DJ's"
p196
sVMN0000600075
p197
S'Adam Wade'
p198
sVMN0000334740
p199
S'Ronnie Milsap'
p200
sVMN0000188432
p201
S'David Sanborn'
p202
sVMN0000645474
p203
S'David Essex'
p204
sVMN0000043714
p205
S'Bee Gees'
p206
sVMN0000509156
p207
S'Mudvayne'
p208
sVMN0000266063
p209
S'Chris Brown Featuring Jay Biz'
p210
sVMN0000806991
p211
S'Vikki Carr'
p212
sVMN0000105354
p213
S'Cheap Trick'
p214
sVMN0000334193
p215
S'New Order'
p216
sVMN0000929862
p217
S'Afrika Bambaataa'
p218
sVMN0000678408
p219
S'Herbie Mann'
p220
sVMN0000153526
p221
S'Cliff Richard'
p222
sVMN0000303050
p223
S'Rufus Thomas'
p224
sVMN0000383056
p225
S'The Click Five'
p226
sVMN0000073666
p227
S'Baby Washington'
p228
sVMN0000012307
p229
S'Tracie Spencer'
p230
sVMN0000632986
p231
S'Jordan Pruitt'
p232
sVMN0000850692
p233
S'Jethro Tull'
p234
sVMN0003116716
p235
S'Eye To Eye'
p236
sVMN0000180228
p237
S'Elvis Presley'
p238
sVMN0000246628
p239
S'Johnny Nash'
p240
sVMN0000361393
p241
S'Prince'
p242
sVMN0000080428
p243
S'The Lettermen'
p244
sVMN0000988692
p245
S'Grapefruit'
p246
sVMN0000294377
p247
S'Linda Clifford'
p248
sVMN0000085915
p249
S'Billy Joel'
p250
sVMN0000008828
p251
S'Spice Girls'
p252
sVMN0000179021
p253
S'Don Fardon'
p254
sVMN0000178750
p255
S'Stacy Lattisaw'
p256
sVMN0000756380
p257
S'Blues Magoos'
p258
sVMN0000177122
p259
S'Fat Joe'
p260
sVMN0000794449
p261
S'Frankie Valli'
p262
sVMN0000232564
p263
S'John Lennon'
p264
sVMN0000576979
p265
S'The Wombles'
p266
sVMN0000624215
p267
S'The Brothers Johnson'
p268
sVMN0000352575
p269
S'Men At Large'
p270
sVMN0000150048
p271
S'Enigma'
p272
sVMN0000087985
p273
S'The Hollies'
p274
sVMN0000840348
p275
S'Velvet Revolver'
p276
sVMN0000945196
p277
S'Gerry Rafferty'
p278
sVMN0000165076
p279
S'Stacey Q'
p280
sVMN0000165077
p281
S'Stacie Orrico'
p282
sVMN0000406657
p283
S'Meredith Brooks'
p284
sVMN0000178122
p285
S'Filter'
p286
sVMN0000125561
p287
S'Cinderella'
p288
sVMN0000923033
p289
S'Styx'
p290
sVMN0000567624
p291
S'The Stylistics'
p292
sVMN0000104714
p293
S'Kraftwerk'
p294
sVMN0002907557
p295
S'The Raindrops'
p296
sVMN0000090803
p297
S'King Curtis'
p298
sVMN0000621639
p299
S'Tone-Loc'
p300
sVMN0000842802
p301
S'Peter Gabriel'
p302
sVMN0000610706
p303
S'Bread'
p304
sVMN0000294891
p305
S'Salt-N-Pepa'
p306
sVMN0000224186
p307
S'John Mellencamp'
p308
sVMN0000411761
p309
S'Nina Simone'
p310
sVMN0000059819
p311
S'Betty Wright'
p312
sVMN0000833539
p313
S'Mark Morrison'
p314
sVMN0000010155
p315
S'Paper Lace'
p316
sVMN0000830538
p317
S'Robert Plant'
p318
sVMN0000019241
p319
S'Patty Loveless'
p320
sVMN0000825883
p321
S'Dierks Bentley'
p322
sVMN0000115140
p323
S'Commander Cody And His Lost Planet Airmen'
p324
sVMN0000027136
p325
S'Paulina Rubio'
p326
sVMN0000988627
p327
S'Fuel'
p328
sVMN0000861351
p329
S'Fat Joe Featuring Nelly'
p330
sVMN0000135059
p331
S'Classics IV'
p332
sVMN0000616296
p333
S'Ashlee Simpson'
p334
sVMN0000017387
p335
S'Sixpence None The Richer'
p336
sVMN0000118544
p337
S'The Drifters'
p338
sVMN0000281376
p339
S'Lords Of The Underground'
p340
sVMN0000794846
p341
S'Eddie Rabbitt'
p342
sVMN0000578999
p343
S'Aaliyah'
p344
sVMN0000477410
p345
S'The Orlons'
p346
sVMN0000986573
p347
S'The Red Jumpsuit Apparatus'
p348
sVMN0000743968
p349
S'Patrice Rushen'
p350
sVMN0000012128
p351
S'All-4-One'
p352
sVMN0000961234
p353
S'Dave Matthews Band'
p354
sVMN0000812920
p355
S'Dee Dee Sharp'
p356
sVMN0000788126
p357
S'Clay Davidson'
p358
sVMN0000543595
p359
S'Candlebox'
p360
sVMN0000096744
p361
S'Chris Rea'
p362
sVMN0000049374
p363
S'Simple Minds'
p364
sVMN0000153443
p365
S'Fabolous'
p366
sVMN0000102050
p367
S'The Kingston Trio'
p368
sVMN0000888484
p369
S'Michelle Branch'
p370
sVMN0000325401
p371
S'Petula Clark'
p372
sVMN0000355208
p373
S'Porno For Pyros'
p374
sVMN0000123132
p375
S'Barbara Lewis'
p376
sVMN0000465822
p377
S'Michael Peterson'
p378
sVMN0000311674
p379
S'Vanilla Fudge'
p380
sVMN0000038321
p381
S'Snow Patrol'
p382
sVMN0000816890
p383
S'Johnny Cash'
p384
sVMN0000740499
p385
S'Grand Puba'
p386
sVMN0000025335
p387
S'Trina'
p388
sVMN0000134729
p389
S'Faith No More'
p390
sVMN0000771638
p391
S'Bonnie Guitar'
p392
sVMN0000129551
p393
S'Crossfade'
p394
sVMN0000919805
p395
S"Lil' Kim Featuring 50 Cent"
p396
sVMN0000553483
p397
S'Happy Mondays'
p398
sVMN0000490738
p399
S'Monica'
p400
sVMN0000194246
p401
S'Garbage'
p402
sVMN0000058035
p403
S'The Chiffons'
p404
sVMN0000153103
p405
S'Donald Fagen'
p406
sVMN0000797431
p407
S'Elastica'
p408
sVMN0000882782
p409
S'Noel Harrison'
p410
sVMN0000050656
p411
S'B. Bumble & The Stingers'
p412
sVMN0000746666
p413
S'Sister Sledge'
p414
sVMN0000006987
p415
S'Alias'
p416
sVMN0000594665
p417
S'Diana Ross'
p418
sVMN0000146755
p419
S'Cutting Crew'
p420
sVMN0000053190
p421
S'The Castells'
p422
sVMN0000857203
p423
S'Kay Starr'
p424
sVMN0000243008
p425
S'Weezer'
p426
sVMN0000156938
p427
S'Shaggy'
p428
sVMN0000676313
p429
S'Hi-Five'
p430
sVMN0000026367
p431
S'Skid Row'
p432
sVMN0000662692
p433
S'Glenn Medeiros'
p434
sVMN0000531986
p435
S'David Bowie'
p436
sVMN0000078467
p437
S'The Communards'
p438
sVMN0000208997
p439
S'Rita Coolidge'
p440
sVMN0000312522
p441
S'Van McCoy'
p442
sVMN0000075100
p443
S'Bad Company'
p444
sVMN0000198426
p445
S'Changing Faces'
p446
sVMN0000921965
p447
S'The Ventures'
p448
sVMN0000758453
p449
S'Blues Traveler'
p450
sVMN0000049774
p451
S'BLACKstreet'
p452
sVMN0000005953
p453
S'Alice Cooper'
p454
sVMN0000749167
p455
S'Trini Lopez'
p456
sVMN0000149973
p457
S'Barbara Lynn'
p458
sVMN0000747967
p459
S'Shelby Flint'
p460
sVMN0000590285
p461
S'Billy Preston'
p462
sVMN0000478603
p463
S'The Monkees'
p464
sVMN0000167517
p465
S'Dire Straits'
p466
sVMN0000359559
p467
S'Karyn White'
p468
sVMN0000955647
p469
S'Mason Williams'
p470
sVMN0000614598
p471
S'Mystikal'
p472
sVMN0000691616
p473
S'Ryan Cabrera'
p474
sVMN0000849405
p475
S'Marques Houston'
p476
sVMN0000852688
p477
S'Jimmy Eat World'
p478
sVMN0000343930
p479
S'The Jesus and Mary Chain'
p480
sVMN0000500646
p481
S'Motherlode'
p482
sVMN0000373634
p483
S'Nas'
p484
sVMN0000861687
p485
S'Nelly Furtado'
p486
sVMN0000021744
p487
S'Stephen Stills'
p488
sVMN0000802302
p489
S'De La Soul Featuring Chaka Khan'
p490
sVMN0000165011
p491
S'Dionne Warwick'
p492
sVMN0000775323
p493
S'Chris Isaak'
p494
sVMN0000087179
p495
S'The Knack'
p496
sVMN0000572579
p497
S'Anita Baker'
p498
sVMN0000274822
p499
S'Lonnie Mack'
p500
sVMN0000118189
p501
S'Clay Walker'
p502
sVMN0000198162
p503
S'Johnnie Taylor'
p504
sVMN0000059101
p505
S'Bobby Byrd'
p506
sVMN0000160690
p507
S'En Vogue'
p508
sVMN0000000674
p509
S'P.J. Proby'
p510
sVMN0000281254
p511
S'Lonestar'
p512
sVMN0000010458
p513
S'Alison Moyet'
p514
sVMN0000059537
p515
S'Blue Cheer'
p516
sVMN0000260206
p517
S'Van Halen'
p518
sVMN0000219203
p519
S'U2'
p520
sVMN0000495366
p521
S'The S.O.S. Band'
p522
sVMN0000098081
p523
S'Engelbert Humperdinck'
p524
sVMN0000045972
p525
S'Swing Out Sister'
p526
sVMN0000780258
p527
S'Christina Aguilera'
p528
sVMN0000165624
p529
S'Change'
p530
sVMN0000325126
p531
S'Phajja'
p532
sVMN0000891911
p533
S'Midnight Star'
p534
sVMN0000500612
p535
S'Adam Sandler'
p536
sVMN0000766066
p537
S'Bobby Vinton'
p538
sVMN0000099246
p539
S'Concrete Blonde'
p540
sVMN0000046784
p541
S'Syl Johnson'
p542
sVMN0000171117
p543
S'Eddie Lovette'
p544
sVMN0000110161
p545
S'Chicago'
p546
sVMN0000169124
p547
S'Eddie Harris'
p548
sVMN0000100196
p549
S'Chubb Rock'
p550
sVMN0000142106
p551
S'Lauren Wood'
p552
sVMN0000140608
p553
S"dog's eye view"
p554
sVMN0000074520
p555
S'The Hives'
p556
sVMN0000546678
p557
S'Lonnie Gordon'
p558
sVMN0002479562
p559
S'Whistle'
p560
sVMN0000078532
p561
S'Inner Circle'
p562
sVMN0000020984
p563
S'Shelley Fabares'
p564
sVMN0001772529
p565
S'Pockets'
p566
sVMN0000188342
p567
S'Freddy Fender'
p568
sVMN0000814974
p569
S'Del Reeves'
p570
sVMN0000583959
p571
S'Willie Nelson'
p572
sVMN0000816387
p573
S'Leon Russell'
p574
sVMN0000097173
p575
S'Bonnie Tyler'
p576
sVMN0000156886
p577
S'Spyro Gyra'
p578
sVMN0000041874
p579
S'The Beach Boys'
p580
sVMN0000113300
p581
S'Kool Moe Dee'
p582
sVMN0000696015
p583
S'Phoebe Snow'
p584
sVMN0000290072
p585
S'Roberta Flack'
p586
sVMN0000576718
p587
S'Seal'
p588
sVMN0000097654
p589
S'Kim Carnes'
p590
sVMN0000890724
p591
S'The Originals'
p592
sVMN0000806829
p593
S"Jane's Addiction"
p594
sVMN0000066915
p595
S'Bob Dylan'
p596
sVMN0000156950
p597
S'Chad Brock'
p598
sVMN0000070715
p599
S'Bobby Darin'
p600
sVMN0000856640
p601
S"Lil' Kim Featuring Puff Daddy"
p602
sVMN0000258955
p603
S'Juvenile'
p604
sVMN0000864209
p605
S'Neil Diamond'
p606
sVMN0000577235
p607
S'The Staple Singers'
p608
sVMN0000792839
p609
S'Shanice'
p610
sVMN0000127063
p611
S'Bell Biv Devoe'
p612
sVMN0000837886
p613
S'Lit'
p614
sVMN0000303506
p615
S'Usher'
p616
sVMN0000184091
p617
S'Don Henley'
p618
sVMN0000796763
p619
S'Eddy Grant'
p620
sVMN0000898828
p621
S'The Searchers'
p622
sVMN0000120005
p623
S'Corina'
p624
sVMN0000164594
p625
S'Ben E. King'
p626
sVMN0000162487
p627
S'Dixie Chicks'
p628
sVMN0000047789
p629
S'Bodeans'
p630
sVMN0000289058
p631
S'Saigon Kick'
p632
sVMN0000930642
p633
S'Morris Day'
p634
sVMN0000149605
p635
S'Clipse'
p636
sVMN0000042768
p637
S'Benny Spellman'
p638
sVMN0000897205
p639
S'Miki Howard'
p640
sVMN0000569685
p641
S'The Temptations'
p642
sVMN0000162820
p643
S'Gene Chandler'
p644
sVMN0000179205
p645
S'Don McLean'
p646
sVMN0000065590
p647
S'The Flaming Lips'
p648
sVMN0000290502
p649
S'Limp Bizkit'
p650
sVMN0000345355
p651
S'Melissa Etheridge'
p652
sVMN0000355616
p653
S'Poison'
p654
sVMN0000263271
p655
S'Lifehouse'
p656
sVMN0000212614
p657
S'Deodato'
p658
sVMN0000186978
p659
S'Mack 10'
p660
sVMN0000488908
p661
S'Petey Pablo'
p662
sVMN0000116178
p663
S'Culture Club'
p664
sVMN0000950805
p665
S'Glass Tiger'
p666
sVMN0000237205
p667
S'Madonna'
p668
sVMN0000508449
p669
S"Alan O'Day"
p670
sVMN0000621112
p671
S'Mya'
p672
sVMN0000030928
p673
S'Tevin Campbell'
p674
sVMN0000284882
p675
S'Josie Cotton'
p676
sVMN0000031380
p677
S'Paula Abdul'
p678
sVMN0000162269
p679
S'Faith Hill'
p680
sVMN0000931015
p681
S'Tom Cochrane'
p682
sVMN0000292243
p683
S'Polly Brown'
p684
sVMN0000187478
p685
S'Eric Clapton'
p686
sVMN0000400322
p687
S'The Neon Philharmonic'
p688
sVMN0000565388
p689
S'The Swinging Blue Jeans'
p690
sVMN0000103391
p691
S'Kris Jensen'
p692
sVMN0000084446
p693
S'India.Arie'
p694
sVMN0000224369
p695
S'John Miles'
p696
sVMN0000058361
p697
S'Betty Everett'
p698
sVMN0000403184
p699
S'The Osmonds'
p700
sVMN0000662438
p701
S'Donnie Brooks'
p702
sVMN0000087305
p703
S'Kid Frost'
p704
sVMN0000198480
p705
S'Cat Stevens'
p706
sVMN0000413000
p707
S'The Notorious B.I.G. Featuring Diddy'
p708
sVMN0000898275
p709
S'Missing Persons'
p710
sVMN0000391003
p711
S'Norman Greenbaum'
p712
sVMN0000478982
p713
S'A Tribe Called Quest'
p714
sVMN0000366681
p715
S'Paramore'
p716
sVMN0000208076
p717
S'Luther Vandross'
p718
sVMN0000000441
p719
S'P.O.D.'
p720
sVMN0000801971
p721
S'Bob Geldof'
p722
sVMN0000493122
p723
S'The Rascals'
p724
sVMN0000826762
p725
S'Digable Planets'
p726
sVMN0000208774
p727
S'Janet Jackson'
p728
sVMN0000606283
p729
S'Al Jarreau'
p730
sVMN0000256349
p731
S'Peggy Lee'
p732
sVMN0000232679
p733
S'John Kongos'
p734
sVMN0000305468
p735
S'Lita Ford'
p736
sVMN0000174155
p737
S'Fred Schneider'
p738
sVMN0000865016
p739
S'New Edition'
p740
sVMN0000109025
p741
S'Larry Groce'
p742
sVMN0000894847
p743
S'The Pointer Sisters'
p744
sVMN0000784759
p745
S'Joanie Sommers'
p746
sVMN0000477834
p747
S'The New Seekers'
p748
sVMN0000920939
p749
S'The Undisputed Truth'
p750
sVMN0000564631
p751
S'The Sugarhill Gang'
p752
sVMN0000368367
p753
S'Nancy Wilson'
p754
sVMN0000075473
p755
S'The Honeydrippers'
p756
sVMN0000043444
p757
S'Steve Martin'
p758
sVMN0000020812
p759
S'Slaughter'
p760
sVMN0000325366
p761
S'R.B. Greaves'
p762
sVMN0000667669
p763
S'Daft Punk'
p764
sVMN0000312890
p765
S'Justin Timberlake'
p766
sVMN0000790833
p767
S'Shalamar'
p768
sVMN0000585896
p769
S'The Wallflowers'
p770
sVMN0000307461
p771
S'Van Morrison'
p772
sVMN0000492331
p773
S'Pretenders'
p774
sVMN0000548338
p775
S'Cannonball Adderley'
p776
sVMN0000565727
p777
S'Darrell Banks'
p778
sVMN0000944349
p779
S'Cameo'
p780
sVMN0000574102
p781
S'Dashboard Confessional'
p782
sVMN0000480108
p783
S'A-Ha'
p784
sVMN0000748222
p785
S'Siouxsie and The Banshees'
p786
sVMN0000796736
p787
S'Elvin Bishop'
p788
sVMN0000264350
p789
S'Sean Paul'
p790
sVMN0000822910
p791
S'Hoobastank'
p792
sVMN0000667794
p793
S'Gordon Lightfoot'
p794
sVMN0000575051
p795
S"Herman's Hermits"
p796
sVMN0000294923
p797
S'Judy Collins'
p798
sVMN0000147635
p799
S'Carly Simon'
p800
sVMN0000057663
p801
S'Blessid Union Of Souls'
p802
sVMN0000123360
p803
S'Chris Walker'
p804
sVMN0000628467
p805
S'Britney Spears'
p806
sVMN0000263019
p807
S'Jonathan King'
p808
sVMN0000851745
p809
S'Jewel Akens'
p810
sVMN0000048622
p811
S'The Marcels'
p812
sVMN0000317093
p813
S'Nat King Cole'
p814
sVMN0000689891
p815
S'Young MC'
p816
sVMN0000868616
p817
S'Nickelback'
p818
sVMN0000377035
p819
S'Mass Production'
p820
sVMN0000233147
p821
S'Howie Day'
p822
sVMN0000074195
p823
S'Natalie Cole'
p824
sVMN0000563349
p825
S'Dan Seals'
p826
sVMN0001009627
p827
S'Rob Thomas'
p828
sVMN0000252495
p829
S'Wayne Newton'
p830
sVMN0000584041
p831
S'Ying Yang Twins'
p832
sVMN0000745915
p833
S'Paul Anka'
p834
sVMN0000546214
p835
S'Moby Featuring Gwen Stefani'
p836
sVMN0000569256
p837
S'The Tams'
p838
sVMN0000148066
p839
S'D.C. LaRue'
p840
sVMN0000134600
p841
S"D'Angelo"
p842
sVMN0000240999
p843
S'Mark Lindsay'
p844
sVMN0000128143
p845
S'Twista Featuring Trey Songz'
p846
sVMN0000659517
p847
S'Grand Funk Railroad'
p848
sVMN0000093215
p849
S'Black Moon'
p850
sVMN0000739702
p851
S'Frozen Ghost'
p852
sVMN0000944084
p853
S'George Strait'
p854
sVMN0000524050
p855
S'Bryan Ferry'
p856
sVMN0000019133
p857
S'Ambrosia'
p858
sVMN0000838195
p859
S'Percy Sledge'
p860
sVMN0000669303
p861
S'Golden Earring'
p862
sVMN0000480086
p863
S'Modest Mouse'
p864
sVMN0000036849
p865
S'Sonny James'
p866
sVMN0000775494
p867
S'Cherish'
p868
sVMN0000044764
p869
S'Blondie'
p870
sVMN0000132305
p871
S'Clarence Reid'
p872
sVMN0000162197
p873
S'Ben Folds'
p874
sVMN0000069534
p875
S'Bon Jovi'
p876
sVMN0000350685
p877
S'Twista Featuring Pitbull'
p878
sVMN0002855999
p879
S'Freddy King'
p880
sVMN0000072999
p881
S'The Happenings'
p882
sVMN0000674662
p883
S'Manfred Mann'
p884
sVMN0000061582
p885
S'Bobby Freeman'
p886
sVMN0000552576
p887
S'Gino Soccio'
p888
sVMN0000019297
p889
S'America'
p890
sVMN0000057840
p891
S'B.J. Thomas'
p892
sVMN0000554804
p893
S'The Wreckers'
p894
sVMN0000196993
p895
S'England Dan & John Ford Coley'
p896
sVMN0000293896
p897
S'Rod Stewart'
p898
sVMN0000279337
p899
S'Sade'
p900
sVMN0000498484
p901
S'The Rembrandts'
p902
sVMN0000626939
p903
S'Stone Sour'
p904
sVMN0000028772
p905
S'The 5th Dimension'
p906
sVMN0000845662
p907
S'Jill Scott'
p908
sVMN0000855531
p909
S'Barbra Streisand'
p910
sVMN0000520545
p911
S'My Chemical Romance'
p912
sVMN0000420381
p913
S'OutKast'
p914
sVMN0000502163
p915
S'10cc'
p916
sVMN0000180449
p917
S'Freddie Jackson'
p918
sVMN0000244048
p919
S'Sammie'
p920
sVMN0000857597
p921
S'E-40 Featuring Keak Da Sneak'
p922
sVMN0000767016
p923
S'Keith Sweat'
p924
sVMN0000033666
p925
S'Supertramp'
p926
sVMN0000220194
p927
S'MC Eiht'
p928
sVMN0000413753
p929
S'The Persuaders'
p930
sVMN0000298764
p931
S'Roxette'
p932
sVMN0000773642
p933
S'The Kingsmen'
p934
sVMN0000046823
p935
S'Benzino'
p936
sVMN0000297894
p937
S'Poco'
p938
sVMN0000182360
p939
S'Donny Hathaway'
p940
sVMN0000086927
p941
S'Kelly Clarkson'
p942
sVMN0000502371
p943
S'Ciara Featuring Missy Elliott'
p944
sVMN0000159805
p945
S'Beats International'
p946
sVMN0000568861
p947
S'The Sweet Inspirations'
p948
sVMN0000158407
p949
S'Beau Coup'
p950
sVMN0000239827
p951
S'John Mayer'
p952
sVMN0000492249
p953
S'Anything Box'
p954
sVMN0000938878
p955
S'Brownsville Station'
p956
sVMN0000835585
p957
S'Loverboy'
p958
sVMN0000326964
p959
S'Jeremy Jordan'
p960
sVMN0000221059
p961
S'Jason Mraz'
p962
sVMN0000029600
p963
S'Smash Mouth'
p964
sVMN0000635466
p965
S'Bubba Sparxxx'
p966
sVMN0000203639
p967
S'Johnny Rivers'
p968
sVMN0000187907
p969
S'Aventura Featuring Don Omar'
p970
sVMN0000780346
p971
S'Coolio'
p972
sVMN0000618713
p973
S'Aldo Nova'
p974
sVMN0000070800
p975
S'Billy Idol'
p976
sVMN0000062002
p977
S'Bachman-Turner Overdrive'
p978
sVMN0000473554
p979
S'Olivia Newton-John'
p980
sVMN0000758444
p981
S'Blur'
p982
sVMN0000255576
p983
S'Honeymoon Suite'
p984
sVMN0000022255
p985
S'Paul Evans'
p986
sVMN0000317865
p987
S'Jennifer Lopez Featuring Big Pun '
p988
sVMN0000170214
p989
S'Ferrante & Teicher'
p990
sVMN0000605375
p991
S'Alan Jackson'
p992
sVMN0000936425
p993
S'Todd Rundgren'
p994
sVMN0000894962
p995
S'The Postal Service'
p996
sVMN0000749734
p997
S'Slade'
p998
sVMN0000496487
p999
S'Adam Ant'
p1000
sVMN0000500889
p1001
S'Minnie Riperton'
p1002
sVMN0000805208
p1003
S'Joe Simon'
p1004
sVMN0000379669
p1005
S'Naughty By Nature'
p1006
sVMN0000061172
p1007
S'The Cars'
p1008
sVMN0000414889
p1009
S'The Presidents Of The United States Of America'
p1010
sVMN0000024944
p1011
S'Amy Grant'
p1012
sVMN0000776093
p1013
S'Kylie Minogue'
p1014
sVMN0000754251
p1015
S'Suzanne Vega'
p1016
sVMN0000949780
p1017
S'Hanson'
p1018
sVMN0000100160
p1019
S'The Kinks'
p1020
sVMN0000222436
p1021
S'David Lee Roth'
p1022
sVMN0000005307
p1023
S'Alicia Keys'
p1024
sVMN0000936190
p1025
S'Stevie Nicks'
p1026
sVMN0000220946
p1027
S'David Houston'
p1028
sVMN0000804703
p1029
S'GTR'
p1030
sVMN0000184811
p1031
S'Erasure'
p1032
sVMN0000516202
p1033
S'Brian Hyland'
p1034
sVMN0000002923
p1035
S"T'Pau"
p1036
sVMN0000524239
p1037
S'Brook Benton'
p1038
sVMN0000173925
p1039
S'Eddie Holman'
p1040
sVMN0000341672
p1041
S'No Doubt'
p1042
sVMN0000495201
p1043
S'Mims'
p1044
sVMN0000158309
p1045
S'Pat Benatar'
p1046
sVMN0000861757
p1047
S'David Foster'
p1048
sVMN0000201297
p1049
S'Foghat'
p1050
sVMN0000402872
p1051
S'The Meters'
p1052
sVMN0000023925
p1053
S'Stephen Bishop'
p1054
sVMN0000251358
p1055
S'Leschea'
p1056
sVMN0000477875
p1057
S'The Supremes'
p1058
sVMN0000649435
p1059
S'Gerald Levert'
p1060
sVMN0000807041
p1061
S'Joey Scarbury'
p1062
sVMN0000228444
p1063
S'Lee Ritenour'
p1064
sVMN0000545074
p1065
S'George Michael'
p1066
sVMN0000167361
p1067
S'Dru Hill'
p1068
sVMN0000073682
p1069
S'Trina Featuring Kelly Rowland'
p1070
sVMN0000101946
p1071
S'Isaac Hayes'
p1072
sVMN0000463803
p1073
S"Ol' Dirty Bastard"
p1074
sVMN0000284667
p1075
S'Robbie Nevil'
p1076
sVMN0000536275
p1077
S'Sweet'
p1078
sVMN0000139089
p1079
S'Barenaked Ladies'
p1080
sVMN0000475431
p1081
S'Stray Cats'
p1082
sVMN0000149515
p1083
S'Joe Cocker'
p1084
sVMN0000965206
p1085
S'Garnet Mimms'
p1086
sVMN0000343947
p1087
S'Real Life'
p1088
sVMN0000048507
p1089
S'Sweet Sensation'
p1090
sVMN0000599389
p1091
S"Mother's Finest"
p1092
sVMN0000017929
p1093
S'Patti Austin'
p1094
sVMN0000215513
p1095
S'Ciara'
p1096
sVMN0000123754
p1097
S'Christopher Cross'
p1098
sVMN0000675710
p1099
S'Marc Cohn'
p1100
sVMN0000540010
p1101
S'Capleton'
p1102
sVMN0000988471
p1103
S'Enya'
p1104
sVMN0000197867
p1105
S'The Hullaballoos'
p1106
sVMN0000491288
p1107
S'Mike Post'
p1108
sVMN0000165117
p1109
S'Tamia'
p1110
sVMN0000267814
p1111
S'Hot Chocolate'
p1112
sVMN0000164053
p1113
S'Faith Evans'
p1114
sVMN0000772567
p1115
S'Iron Butterfly'
p1116
sVMN0000131650
p1117
S'Talking Heads'
p1118
sVMN0000013393
p1119
S'Tower Of Power'
p1120
sVMN0000510805
p1121
S'Toby Keith'
p1122
sVMN0000046814
p1123
S'Blake Shelton'
p1124
sVMN0000036106
p1125
S'Steve Miller Band'
p1126
sVMN0000933772
p1127
S'Brand Nubian'
p1128
sVMN0000774956
p1129
S'Chris Kenner'
p1130
sVMN0000065231
p1131
S'Keith Martin'
p1132
sVMN0000163213
p1133
S'Tweet'
p1134
sVMN0000945900
p1135
S'George McCrae'
p1136
sVMN0000200679
p1137
S'Twista'
p1138
sVMN0000091549
p1139
S'Chevelle'
p1140
sVMN0000129775
p1141
S'Parliament'
p1142
sVMN0000963005
p1143
S'Will Smith Featuring Dru Hill '
p1144
sVMN0000390390
p1145
S'Ohio Players'
p1146
sVMN0000297702
p1147
S'Sammy Hagar'
p1148
sVMN0000028619
p1149
S'Steve Arrington'
p1150
sVMN0000941579
p1151
S'Buck Owens'
p1152
sVMN0000322027
p1153
S'Nelson Riddle'
p1154
sVMN0000002330
p1155
S'Sergio Mendes'
p1156
sVMN0000768737
p1157
S'Icehouse'
p1158
sVMN0000046727
p1159
S'Edwin Starr'
p1160
sVMN0000832833
p1161
S'Samantha Mumba'
p1162
sVMN0000424296
p1163
S'The Righteous Brothers'
p1164
sVMN0000757085
p1165
S'Bangles'
p1166
sVMN0000081619
p1167
S'Keith Urban'
p1168
sVMN0000046861
p1169
S'Ray Charles'
p1170
sVMN0000685647
p1171
S'Yes'
p1172
sVMN0000224257
p1173
S'Jay-Z'
p1174
sVMN0000665860
p1175
S'Godsmack'
p1176
sVMN0000200882
p1177
S'Gene Pitney'
p1178
sVMN0000479149
p1179
S'A Perfect Circle'
p1180
sVMN0000892771
p1181
S"The O'Jays"
p1182
sVMN0000005501
p1183
S'System Of A Down'
p1184
sVMN0000351227
p1185
S'Richard Marx'
p1186
sVMN0000926237
p1187
S'Third Eye Blind'
p1188
sVMN0000656081
p1189
S'Elliott Yamin'
p1190
sVMN0000619536
p1191
S'Pretty Ricky'
p1192
sVMN0003018652
p1193
S'Peter Shelley'
p1194
sVMN0000184043
p1195
S'Foo Fighters'
p1196
sVMN0000838524
p1197
S'Savoy Brown'
p1198
sVMN0000089710
p1199
S'Billy Paul'
p1200
sVMN0000069153
p1201
S'Joan Baez'
p1202
sVMN0000591104
p1203
S'Mongo Santamaria'
p1204
sVMN0000171637
p1205
S'Duane Eddy'
p1206
sVMN0000234004
p1207
S'Jeannie Seely'
p1208
sVMN0000678339
p1209
S'XTC'
p1210
sVMN0000472440
p1211
S'The Olympics'
p1212
sVMN0000322733
p1213
S'Jermaine Dupri Featuring Nate Dogg'
p1214
sVMN0000200074
p1215
S'Lenny Kravitz'
p1216
sVMN0000393106
p1217
S'The Newbeats'
p1218
sVMN0000143781
p1219
S'The Del Fuegos'
p1220
sVMN0000149044
p1221
S'Barry White'
p1222
sVMN0000193320
p1223
S'Def Leppard'
p1224
sVMN0000737886
p1225
S'Enrique Iglesias'
p1226
sVMN0000051118
p1227
S'The Marathons'
p1228
sVMN0000361014
p1229
S'Brandy Featuring Kanye West'
p1230
sVMN0000502398
p1231
S'Archie Bell & The Drells'
p1232
sVMN0000852656
p1233
S'RuPaul'
p1234
sVMN0000178775
p1235
S'Figures On A Beach'
p1236
sVMN0000191006
p1237
S'Gary Wright'
p1238
sVMN0000469519
p1239
S'Ashley Tisdale'
p1240
sVMN0000010412
p1241
S'Spin Doctors'
p1242
sVMN0000138407
p1243
S'The Dramatics'
p1244
sVMN0000142531
p1245
S'James Darren'
p1246
sVMN0000193305
p1247
S'Cassie'
p1248
sVMN0000077283
p1249
S'Geto Boys Featuring Flaj'
p1250
sVMN0000159214
p1251
S'Dusty Springfield'
p1252
sVMN0000665364
p1253
S'Goanna'
p1254
sVMN0000651549
p1255
S'Gwen McCrae'
p1256
sVMN0000312782
p1257
S'Keith Carradine'
p1258
sVMN0000040743
p1259
S'Audioslave'
p1260
sVMN0000075825
p1261
S'The Coasters'
p1262
sVMN0000619388
p1263
S'Alejandro Sanz'
p1264
sVMN0000270667
p1265
S'Live'
p1266
sVMN0000813463
p1267
S'John Waite'
p1268
sVMN0000672656
p1269
S'Crime Mob Featuring Lil Scrappy'
p1270
sVMN0000059156
p1271
S'B.B. King'
p1272
sVMN0000774145
p1273
S'Kimberley Locke'
p1274
sVMN0000085397
p1275
S'Kelis'
p1276
sVMN0000242211
p1277
S'Saliva'
p1278
sVMN0000180617
p1279
S'Carolyn Dawn Johnson'
p1280
sVMN0000497236
p1281
S'Adina Howard'
p1282
sVMN0000379125
p1283
S'Neil Young'
p1284
sVMN0000771010
p1285
S'The Left Banke'
p1286
sVMN0000061045
p1287
S'Bobby Caldwell'
p1288
sVMN0000834314
p1289
S'Jude Cole'
p1290
sVMN0000805661
p1291
S'Humble Pie'
p1292
sVMN0000765075
p1293
S'The Honeycombs'
p1294
sVMN0000048903
p1295
S'Blu Cantrell'
p1296
sVMN0000787940
p1297
S'Levert'
p1298
sVMN0000808304
p1299
S'Lou Gramm'
p1300
sVMN0000220590
p1301
S'MC Lyte'
p1302
sVMN0000148477
p1303
S'Clarence Carter'
p1304
sVMN0000848688
p1305
S'J.J. Fad'
p1306
sVMN0000154967
p1307
S'Shades Of Blue'
p1308
sVMN0000407101
p1309
S'Nicolette Larson'
p1310
sVMN0000490004
p1311
S'The Ramones'
p1312
sVMN0000075747
p1313
S'The Clash'
p1314
sVMN0000020809
p1315
S'Shep & The Limelites'
p1316
sVMN0000790820
p1317
S'Tool'
p1318
sVMN0000597309
p1319
S'Tina Turner'
p1320
sVMN0000026825
p1321
S'Paula Cole'
p1322
sVMN0000087697
p1323
S'Kem'
p1324
sVMN0000271029
p1325
S'Esther Phillips'
p1326
sVMN0000376422
p1327
S'Queens Of The Stone Age'
p1328
sVMN0000690254
p1329
S'ZZ Top'
p1330
sVMN0000797452
p1331
S'Stage Dolls'
p1332
sVMN0000988005
p1333
S'Fotomaker'
p1334
sVMN0000246885
p1335
S'Johnny Mathis'
p1336
sVMN0000013589
p1337
S'Alvin Cash'
p1338
sVMN0000139655
p1339
S'Laura Branigan'
p1340
sVMN0000610339
p1341
S'Toad The Wet Sprocket'
p1342
sVMN0000751019
p1343
S'The Animals'
p1344
sVMN0000744265
p1345
S'Tony Joe White'
p1346
sVMN0000509356
p1347
S'Atlantic Starr'
p1348
sVMN0000773442
p1349
S'Chingy'
p1350
sVMN0000423267
p1351
S'Small Faces'
p1352
sVMN0000136075
p1353
S'The Crusaders'
p1354
sVMN0000498987
p1355
S'SWV'
p1356
sVMN0000932922
p1357
S'Brass Construction'
p1358
sVMN0000082013
p1359
S'The Impressions'
p1360
sVMN0000152023
p1361
S'Everclear'
p1362
sVMN0000017021
p1363
S'Tenacious D'
p1364
sVMN0000577627
p1365
S'The Who'
p1366
sVMN0000337119
p1367
S'Phil Collins'
p1368
sVMN0000554963
p1369
S'Harry Chapin'
p1370
sVMN0000812711
p1371
S'Death Cab For Cutie'
p1372
sVMN0000098342
p1373
S'JC Chasez'
p1374
sVMN0000026227
p1375
S'Smokie'
p1376
sVMN0000334770
p1377
S'Ramsey Lewis'
p1378
sVMN0000814606
p1379
S'Wanda Jackson'
p1380
sVMN0000806645
p1381
S'Dr. Hook'
p1382
sVMN0000949630
p1383
S'Goo Goo Dolls'
p1384
sVMN0000178799
p1385
S'Staind'
p1386
sVMN0000403794
p1387
S'Michel Polnareff'
p1388
sVMN0000245049
p1389
S'Johnny Cymbal'
p1390
sVMN0000745964
p1391
S'The Allman Brothers Band'
p1392
sVMN0000806542
p1393
S'Etta James'
p1394
sVMN0000619750
p1395
S'Tommy Shaw'
p1396
sVMN0000174557
p1397
S'Carole King'
p1398
sVMN0000204386
p1399
S'James Taylor'
p1400
sVMN0000086065
p1401
S'Ice Cube Featuring Das EFX'
p1402
sVMN0000002273
p1403
S'Allan Sherman'
p1404
sVMN0000210323
p1405
S'Joe Tex'
p1406
sVMN0000796734
p1407
S'Elton John'
p1408
sVMN0000777210
p1409
S'Kool & The Gang'
p1410
sVMN0000831733
p1411
S'Lindsay Lohan'
p1412
sVMN0000847006
p1413
S'D4L'
p1414
sVMN0000247250
p1415
S'When In Rome'
p1416
sVMN0000012472
p1417
S'Traffic'
p1418
sVMN0000944241
p1419
S'George Hamilton IV'
p1420
sVMN0000831448
p1421
S'Romeo Void'
p1422
sVMN0000807949
p1423
S'Underworld'
p1424
sVMN0000814852
p1425
S'John Sebastian'
p1426
sVMN0000021128
p1427
S'Trillville'
p1428
sVMN0000747163
p1429
S'Amanda Perez'
p1430
sVMN0000762496
p1431
S'Folk Implosion'
p1432
sVMN0000174198
p1433
S'Edwin McCain'
p1434
sVMN0000748994
p1435
S'Trick Daddy Featuring LaTocha Scott'
p1436
sVMN0000131681
p1437
S'Pat Boone'
p1438
sVMN0000479687
p1439
S'Midge Ure'
p1440
sVMN0000029086
p1441
S'Snoop Dogg Featuring Master P'
p1442
sVMN0000390532
p1443
S'Oingo Boingo'
p1444
sVMN0000194063
p1445
S'Lee Ann Womack'
p1446
sVMN0000524837
p1447
S'Mrs. Miller'
p1448
sVMN0000124492
p1449
S'Beck'
p1450
sVMN0000778656
p1451
S'Cornelius Brothers & Sister Rose'
p1452
sVMN0000765595
p1453
S'Backstreet Boys'
p1454
sVMN0000763798
p1455
S'Bobby Comstock'
p1456
sVMN0000497426
p1457
S'The Singing Nun'
p1458
sVMN0000882956
p1459
S'Merry Clayton'
p1460
sVMN0000830464
p1461
S'Ron Holden'
p1462
sVMN0000031685
p1463
S'Paul Simon'
p1464
sVMN0000467382
p1465
S'Michael Penn'
p1466
sVMN0000537548
p1467
S'Busta Rhymes'
p1468
sVMN0000784814
p1469
S'The Cranberries'
p1470
sVMN0000163229
p1471
S'Electric Light Orchestra'
p1472
sVMN0000372322
p1473
S'Natalie Merchant'
p1474
sVMN0000260384
p1475
S'Julian Lennon'
p1476
sVMN0000837946
p1477
S'Juice Newton'
p1478
sVMN0000817011
p1479
S'Was (Not Was)'
p1480
sVMN0000813392
p1481
S'Dean Martin'
p1482
sVMN0000391933
p1483
S'Rainbow'
p1484
sVMN0000170454
p1485
S'Carla Thomas'
p1486
sVMN0000852007
p1487
S'Roy Orbison'
p1488
sVMN0000753963
p1489
S'The Association'
p1490
sVMN0000193601
p1491
S'Gang Starr'
p1492
sVMN0000012180
p1493
S'Trace Adkins'
p1494
sVMN0000671953
p1495
S'Heart'
p1496
sVMN0000181376
p1497
S'UB40'
p1498
sVMN0000303061
p1499
S'Junior M.A.F.I.A.'
p1500
sVMN0000138332
p1501
S'The Crystals'
p1502
sVMN0000107090
p1503
S'Cher'
p1504
sVMN0000227988
p1505
S'House Of Pain'
p1506
sVMN0000674150
p1507
S'Helen Reddy'
p1508
sVMN0000665908
p1509
S'Good Charlotte'
p1510
sVMN0000182415
p1511
S'Fugees'
p1512
sVMN0000238322
p1513
S'De La Soul'
p1514
sVMN0000004553
p1515
S'T-Connection'
p1516
sVMN0000058549
p1517
S'Elvis Costello'
p1518
sVMN0000080780
p1519
S'Sheryl Crow'
p1520
sVMN0000812877
p1521
S'Deep Blue Something'
p1522
sVMN0000813731
p1523
S'Debbie Gibson'
p1524
sVMN0000858827
p1525
S'Queen'
p1526
sVMN0000128950
p1527
S'Earl-Jean'
p1528
sVMN0000234384
p1529
S"Lil' Romeo"
p1530
sVMN0000090124
p1531
S'Black Box'
p1532
sVMN0000334644
p1533
S'Jerry Reed'
p1534
sVMN0000270162
p1535
S'Lil Scrappy'
p1536
sVMN0000495288
p1537
S'The Rentals'
p1538
sVMN0000533551
p1539
S'Buckcherry'
p1540
sVMN0001649799
p1541
S'Sonny Charles'
p1542
sVMN0000136640
p1543
S'The KLF Featuring Tammy Wynette'
p1544
sVMN0000044751
p1545
S'Steve Wariner'
p1546
sVMN0000393031
p1547
S'Ohio Express'
p1548
sVMN0000154544
p1549
S'Green Day'
p1550
sVMN0000665957
p1551
S'Harold Melvin & The Blue Notes'
p1552
sVMN0000258882
p1553
S'Jon Secada'
p1554
sVMN0000770059
p1555
S'Born Jamericans'
p1556
sVMN0000282752
p1557
S'Robbie Dupree'
p1558
sVMN0000014651
p1559
S'Patsy Cline'
p1560
sVMN0000359119
p1561
S'KRS-One'
p1562
sVMN0000934367
p1563
S'Breaking Benjamin'
p1564
sVMN0000745241
p1565
S'Status Quo'
p1566
sVMN0000201760
p1567
S'George Benson'
p1568
sVMN0000079960
p1569
S'Boston'
p1570
sVMN0000270497
p1571
S'Peter Schilling'
p1572
sVMN0000013384
p1573
S'Tanya Tucker'
p1574
sVMN0000219428
p1575
S'Uncle Kracker'
p1576
sVMN0000599732
p1577
S'Arrested Development'
p1578
sVMN0000860561
p1579
S'The Fray'
p1580
sVMN0000270491
p1581
S'Joni Mitchell'
p1582
sVMN0000050520
p1583
S'Bettye Swann'
p1584
sVMN0000791483
p1585
S'Dwight Yoakam'
p1586
sVMN0000029884
p1587
S'Paul McCartney'
p1588
sVMN0000113753
p1589
S'Lauryn Hill'
p1590
sVMN0000792530
p1591
S'Tori Amos'
p1592
sVMN0000068155
p1593
S'The Chantels'
p1594
sVMN0000016227
p1595
S'Tavares'
p1596
sVMN0000418981
p1597
S'The Shirelles'
p1598
sVMN0000562663
p1599
S'Harpers Bizarre'
p1600
sVMN0000790732
p1601
S'Squeeze'
p1602
sVMN0000758630
p1603
S'Better Than Ezra'
p1604
sVMN0000664459
p1605
S'Da Brat'
p1606
sVMN0000188467
p1607
S'John Parr'
p1608
sVMN0000581859
p1609
S'The Vogues'
p1610
sVMN0000296487
p1611
S'Roger Daltrey'
p1612
sVMN0000391586
p1613
S'James Blunt'
p1614
sVMN0000018419
p1615
S'Patti Drew'
p1616
sVMN0000467203
p1617
S'Michael Jackson'
p1618
sVMN0000146841
p1619
S'Cyndi Thomson'
p1620
sVMN0002313776
p1621
S'Rhinoceros'
p1622
sVMN0000417598
p1623
S'The Premiers'
p1624
sVMN0000414251
p1625
S'Otis Redding'
p1626
sVMN0000251595
p1627
S'Whitesnake'
p1628
sVMN0000105129
p1629
S'Collective Soul'
p1630
sVMN0000806507
p1631
S'Tyrone Davis'
p1632
sVMN0000048300
p1633
S'Bar-Kays'
p1634
sVMN0000332257
p1635
S'Neneh Cherry'
p1636
sVMN0000811622
p1637
S'John Denver'
p1638
sVMN0000637022
p1639
S'The Capitols'
p1640
sVMN0000157314
p1641
S'Tag Team'
p1642
sVMN0000115554
p1643
S'LSG'
p1644
sVMN0000094813
p1645
S'Black Rob'
p1646
sVMN0000266151
p1647
S'Little Texas'
p1648
sVMN0000238069
p1649
S'Robin S.'
p1650
sVMN0000071812
p1651
S'The Four Tops'
p1652
sVMN0000040124
p1653
S'The Ataris'
p1654
sVMN0000898479
p1655
S'The Smithereens'
p1656
sVMN0000072003
p1657
S'Ice-T'
p1658
sVMN0000151979
p1659
S'Bay City Rollers'
p1660
sVMN0000743623
p1661
S'Spacehog'
p1662
sVMN0000325459
p1663
S'R.E.M.'
p1664
sVMN0000778344
p1665
S'LaVern Baker'
p1666
sVMN0000934069
p1667
S'Brenda Lee'
p1668
sVMN0000811897
p1669
S'John Michael Montgomery'
p1670
sVMN0000604924
p1671
S'Arthur Conley'
p1672
sVMN0000898188
p1673
S'Mint Condition'
p1674
sVMN0000818200
p1675
S'Westside Connection'
p1676
sVMN0000077732
p1677
S'Bobby Vee'
p1678
sVMN0000308871
p1679
S'Little Anthony & The Imperials'
p1680
sVMN0000084209
p1681
S'Kiss'
p1682
sVMN0000542976
p1683
S'Candi Staton'
p1684
sVMN0000317108
p1685
S'Jeffrey Osborne'
p1686
sVMN0000112360
p1687
S'Kon Kan'
p1688
sVMN0000049367
p1689
S'The Blackbyrds'
p1690
sVMN0000371582
p1691
S'Nappy Roots'
p1692
sVMN0000858375
p1693
S'Mary Chapin Carpenter'
p1694
sVMN0000022928
p1695
S'Steppenwolf'
p1696
sVMN0000227352
p1697
S'Hugo Montenegro'
p1698
sVMN0000069645
p1699
S'The Fireballs'
p1700
sVMN0000926428
p1701
S'Thomas Dolby'
p1702
sVMN0000798801
p1703
S'Don Ho'
p1704
sVMN0000544965
p1705
S'Daniel Powter'
p1706
sVMN0000772526
p1707
S'Irma Thomas'
p1708
sVMN0000463435
p1709
S'Michael Nesmith'
p1710
sVMN0001572321
p1711
S'Tourists'
p1712
sVMN0000678167
p1713
S'Das EFX'
p1714
sVMN0000664378
p1715
S'Glen Campbell'
p1716
sVMN0000814220
p1717
S'Debby Boone'
p1718
sVMN0000987621
p1719
S'Foreigner'
p1720
sVMN0000205180
p1721
S'Dr. John'
p1722
sVMN0000053739
p1723
S'Bette Midler'
p1724
sVMN0000892827
p1725
S'The Notorious B.I.G.'
p1726
sVMN0000383889
p1727
S'matchbox twenty'
p1728
sVMN0000610880
p1729
S'Brad Paisley'
p1730
sVMN0000725395
p1731
S'Fergie'
p1732
sVMN0000622805
p1733
S'Stevie Wonder'
p1734
sVMN0000349555
p1735
S'Jimmy Holiday'
p1736
sVMN0000376204
p1737
S'Mary J. Blige'
p1738
sVMN0000674332
p1739
S'Herb Alpert'
p1740
sVMN0000785585
p1741
S'Claude Gray'
p1742
sVMN0000611797
p1743
S'Lady Sovereign'
p1744
sVMN0000329468
p1745
S'Jerry Butler'
p1746
sVMN0000459616
p1747
S'Michael McDonald'
p1748
sVMN0000225930
p1749
S'Liz Phair'
p1750
sVMN0000414700
p1751
S'Mike Jones'
p1752
sVMN0000738674
p1753
S'Donna Fargo'
p1754
sVMN0000286115
p1755
S'Lorrie Morgan'
p1756
sVMN0000132449
p1757
S'Crystal Gayle'
p1758
sVMN0000600264
p1759
S'Mr. Big'
p1760
sVMN0000550120
p1761
S'High School Musical Cast'
p1762
sVMN0000000534
p1763
S'All Saints'
p1764
sVMN0000035076
p1765
S'Soul II Soul'
p1766
sVMN0000026952
p1767
S'Smokie Norful'
p1768
sVMN0000038469
p1769
S'Beastie Boys'
p1770
sVMN0000306258
p1771
S'Ludacris'
p1772
sVMN0000936206
p1773
S'Alabama'
p1774
sVMN0000868456
p1775
S'Melba Montgomery'
p1776
sVMN0000206241
p1777
S'Eurythmics'
p1778
sVMN0000479772
p1779
S'The Motels'
p1780
sVMN0000118791
p1781
S'LeAnn Rimes'
p1782
sVMN0000011707
p1783
S'Steely Dan'
p1784
sVMN0000096613
p1785
S'Bonnie Raitt'
p1786
sVMN0000375239
p1787
S'Marty Wilde'
p1788
sVMN0000894465
p1789
S'The Rolling Stones'
p1790
sVMN0000137390
p1791
S'The Cure'
p1792
sVMN0000294085
p1793
S'Rodney Crowell'
p1794
sVMN0000297990
p1795
S'The Poppy Family'
p1796
sVMN0000846113
p1797
S"Philly's Most Wanted"
p1798
sVMN0000175579
p1799
S'Disturbed'
p1800
sVMN0000093632
p1801
S'Robert Palmer'
p1802
sVMN0000049062
p1803
S'Simple Plan'
p1804
sVMN0000196976
p1805
S'Gretchen Wilson'
p1806
sVMN0000354733
p1807
S'Los Lobos'
p1808
sVMN0000144458
p1809
S'Curtis Mayfield'
p1810
sVMN0000932665
p1811
S'Alanis Morissette'
p1812
sVMN0000608945
p1813
S'Brandy'
p1814
sVMN0000419102
p1815
S'The Shins'
p1816
sVMN0000749175
p1817
S'Skeeter Davis'
p1818
sVMN0000119651
p1819
S'J.J. Cale'
p1820
sVMN0000820232
p1821
S'Dick Dale'
p1822
sVMN0000303626
p1823
S'Kansas'
p1824
sVMN0000604852
p1825
S'Aerosmith'
p1826
sVMN0000844707
p1827
S'Ronnie Carroll'
p1828
sVMN0000128440
p1829
S'Duran Duran'
p1830
sVMN0000073806
p1831
S'The Highwaymen'
p1832
sVMN0000128099
p1833
S'James Brown'
p1834
sVMN0000565242
p1835
S'Hedgehoppers Anonymous'
p1836
sVMN0000411689
p1837
S'Ray Peterson'
p1838
sVMN0000092942
p1839
S'Chic'
p1840
sVMN0000785101
p1841
S'Bananarama'
p1842
sVMN0000853492
p1843
S'Marshall Crenshaw'
p1844
sVMN0000037730
p1845
S'Pearl Jam'
p1846
sVMN0000316834
p1847
S'Marvin Gaye'
p1848
sVMN0000224345
p1849
S'Vitamin C'
p1850
sVMN0000007689
p1851
S'TLC'
p1852
sVMN0000227088
p1853
S'Deana Carter'
p1854
sVMN0000674749
p1855
S'The Manhattan Transfer'
p1856
sVMN0000262794
p1857
S'Hootie & The Blowfish'
p1858
sVMN0000081316
p1859
S'Bone Thugs-N-Harmony'
p1860
sVMN0000383853
p1861
S'Neal McCoy'
p1862
sVMN0000001418
p1863
S'T.I.'
p1864
sVMN0000169677
p1865
S'Ernie K-Doe'
p1866
sVMN0000543055
p1867
S'Georgie Fame'
p1868
sVMN0000094205
p1869
S'Chet Atkins'
p1870
sVMN0000927555
p1871
S'Aretha Franklin'
p1872
sVMN0000260212
p1873
S'Pet Shop Boys'
p1874
sVMN0000074853
p1875
S'The KLF'
p1876
sVMN0000556320
p1877
S'Glenn Yarbrough'
p1878
sVMN0000559405
p1879
S'Daddy Yankee'
p1880
sVMN0000314050
p1881
S'Narada Michael Walden'
p1882
sVMN0000018513
p1883
S'Paul Hardcastle'
p1884
sVMN0000612716
p1885
S'Tom Petty'
p1886
sVMN0000213212
p1887
S'Janis Ian'
p1888
sVMN0000144847
p1889
S'Eagles'
p1890
sVMN0000171889
p1891
S'Elephant Man'
p1892
sVMN0000378624
p1893
S'Quincy Jones Featuring Ray Charles '
p1894
sVMN0000903609
p1895
S'Jim Reeves'
p1896
sVMN0000866417
p1897
S'Maxi Priest'
p1898
sVMN0000069986
p1899
S'Kenny Rogers'
p1900
sVMN0001317177
p1901
S'Drafi'
p1902
sVMN0000258276
p1903
S'Digital Underground'
p1904
sVMN0000019740
p1905
S'Amerie'
p1906
sVMN0000182900
p1907
S'Fleetwood Mac'
p1908
sVMN0000262255
p1909
S'Mariah Carey'
p1910
sVMN0000692251
p1911
S'The Youngbloods'
p1912
sVMN0000741718
p1913
S'P.M. Dawn'
p1914
sVMN0000130689
p1915
S'Jackson Browne'
p1916
sVMN0000138699
p1917
S'Frank Zappa'
p1918
sVMN0000183311
p1919
S'Fine Young Cannibals'
p1920
sVMN0000072041
p1921
S'Bob Seger'
p1922
sVMN0000228099
p1923
S'Howard Jones'
p1924
sVMN0003014650
p1925
S'The Regents'
p1926
sVMN0000359966
p1927
S'Rickie Lee Jones'
p1928
sVMN0000147785
p1929
S'Eve 6'
p1930
sVMN0000065397
p1931
S'Bobbie Gentry'
p1932
sVMN0000153590
p1933
S'Graham Nash'
p1934
sVMN0000686897
p1935
S'Linda Ronstadt'
p1936
sVMN0000816538
p1937
S'Johnny Bristol'
p1938
sVMN0000064303
p1939
S'Badfinger'
p1940
sVMN0000339624
p1941
S'Meat Loaf'
p1942
sVMN0000738402
p1943
S'Grandmaster Flash'
p1944
sVMN0000768321
p1945
S'INXS'
p1946
sVMN0000757328
p1947
S'The Marketts'
p1948
sVMN0000289599
p1949
S'Linkin Park'
p1950
sVMN0000620386
p1951
S'Tommy James'
p1952
sVMN0000045313
p1953
S'Steve Winwood'
p1954
sVMN0000768328
p1955
S'Kellie Coffey'
p1956
sVMN0000384883
p1957
S'Mary Travers'
p1958
sVMN0000233228
p1959
S'Lou Rawls'
p1960
sVMN0000110011
p1961
S'Crazy Town'
p1962
sVMN0000280061
p1963
S'Joshua Kadison'
p1964
sVMN0000106882
p1965
S'Lamont Dozier'
p1966
sVMN0000038805
p1967
S'Angie Stone'
p1968
sVMN0000830653
p1969
S'Sailcat'
p1970
sVMN0000168958
p1971
S'Eddie Floyd'
p1972
sVMN0000169228
p1973
S'Dionne Farris'
p1974
s.