(dp0
VMN0000239827
p1
S'John Mayer'
p2
sVMN0000344609
p3
S'Jesus Jones'
p4
sVMN0000748994
p5
S'Trick Daddy Featuring LaTocha Scott'
p6
sVMN0000167517
p7
S'Dire Straits'
p8
sVMN0000295276
p9
S'Jimmy Cliff'
p10
sVMN0000159805
p11
S'Beats International'
p12
sVMN0000390532
p13
S'Oingo Boingo'
p14
sVMN0000134729
p15
S'Faith No More'
p16
sVMN0000614598
p17
S'Mystikal'
p18
sVMN0000492249
p19
S'Anything Box'
p20
sVMN0000835585
p21
S'Loverboy'
p22
sVMN0000472925
p23
S'The Offspring'
p24
sVMN0000661795
p25
S'DMX'
p26
sVMN0000852688
p27
S'Jimmy Eat World'
p28
sVMN0000029600
p29
S'Smash Mouth'
p30
sVMN0000530745
p31
S'Bruce Springsteen'
p32
sVMN0000467382
p33
S'Michael Penn'
p34
sVMN0000373634
p35
S'Nas'
p36
sVMN0000618713
p37
S'Aldo Nova'
p38
sVMN0000070800
p39
S'Billy Idol'
p40
sVMN0000036106
p41
S'Steve Miller Band'
p42
sVMN0000213212
p43
S'Janis Ian'
p44
sVMN0000200074
p45
S'Lenny Kravitz'
p46
sVMN0000040743
p47
S'Audioslave'
p48
sVMN0000758444
p49
S'Blur'
p50
sVMN0000775323
p51
S'Chris Isaak'
p52
sVMN0000758630
p53
S'Better Than Ezra'
p54
sVMN0000008828
p55
S'Spice Girls'
p56
sVMN0000128440
p57
S'Duran Duran'
p58
sVMN0000038805
p59
S'Angie Stone'
p60
sVMN0000059101
p61
S'Bobby Byrd'
p62
sVMN0000936425
p63
S'Todd Rundgren'
p64
sVMN0000406657
p65
S'Meredith Brooks'
p66
sVMN0000239921
p67
S'Depeche Mode'
p68
sVMN0000010458
p69
S'Alison Moyet'
p70
sVMN0000883318
p71
S'Red Hot Chili Peppers'
p72
sVMN0000540010
p73
S'Capleton'
p74
sVMN0000799053
p75
S'Donovan'
p76
sVMN0000866491
p77
S'Maxwell'
p78
sVMN0000219203
p79
S'U2'
p80
sVMN0000024944
p81
S'Amy Grant'
p82
sVMN0000776093
p83
S'Kylie Minogue'
p84
sVMN0000387973
p85
S'Raekwon'
p86
sVMN0000107090
p87
S'Cher'
p88
sVMN0000780258
p89
S'Christina Aguilera'
p90
sVMN0000069986
p91
S'Kenny Rogers'
p92
sVMN0000069153
p93
S'Joan Baez'
p94
sVMN0000182415
p95
S'Fugees'
p96
sVMN0000238322
p97
S'De La Soul'
p98
sVMN0000222436
p99
S'David Lee Roth'
p100
sVMN0000058549
p101
S'Elvis Costello'
p102
sVMN0000080780
p103
S'Sheryl Crow'
p104
sVMN0000209142
p105
S'George Harrison'
p106
sVMN0000812877
p107
S'Deep Blue Something'
p108
sVMN0000987621
p109
S'Foreigner'
p110
sVMN0000049026
p111
S'Switchfoot'
p112
sVMN0000988627
p113
S'Fuel'
p114
sVMN0000832833
p115
S'Samantha Mumba'
p116
sVMN0000114342
p117
S'The Doors'
p118
sVMN0000198480
p119
S'Cat Stevens'
p120
sVMN0000577627
p121
S'The Who'
p122
sVMN0000804703
p123
S'GTR'
p124
sVMN0000184811
p125
S'Erasure'
p126
sVMN0000110161
p127
S'Chicago'
p128
sVMN0000090124
p129
S'Black Box'
p130
sVMN0000334644
p131
S'Jerry Reed'
p132
sVMN0000100196
p133
S'Chubb Rock'
p134
sVMN0000103484
p135
S'Indigo Girls'
p136
sVMN0000140608
p137
S"dog's eye view"
p138
sVMN0000934069
p139
S'Brenda Lee'
p140
sVMN0000341672
p141
S'No Doubt'
p142
sVMN0000175049
p143
S'Firehouse'
p144
sVMN0000738402
p145
S'Grandmaster Flash'
p146
sVMN0000158309
p147
S'Pat Benatar'
p148
sVMN0000943827
p149
S'Cake'
p150
sVMN0000337119
p151
S'Phil Collins'
p152
sVMN0000790732
p153
S'Squeeze'
p154
sVMN0000180228
p155
S'Elvis Presley'
p156
sVMN0000393031
p157
S'Ohio Express'
p158
sVMN0000391003
p159
S'Norman Greenbaum'
p160
sVMN0000402872
p161
S'The Meters'
p162
sVMN0000031380
p163
S'Paula Abdul'
p164
sVMN0000014651
p165
S'Patsy Cline'
p166
sVMN0000858375
p167
S'Mary Chapin Carpenter'
p168
sVMN0000961234
p169
S'Dave Matthews Band'
p170
sVMN0000813463
p171
S'John Waite'
p172
sVMN0000201760
p173
S'George Benson'
p174
sVMN0000079960
p175
S'Boston'
p176
sVMN0000270497
p177
S'Peter Schilling'
p178
sVMN0000041874
p179
S'The Beach Boys'
p180
sVMN0000599732
p181
S'Arrested Development'
p182
sVMN0000667669
p183
S'Daft Punk'
p184
sVMN0000270491
p185
S'Joni Mitchell'
p186
sVMN0000290072
p187
S'Roberta Flack'
p188
sVMN0000011754
p189
S'Sheena Easton'
p190
sVMN0000628467
p191
S'Britney Spears'
p192
sVMN0000053606
p193
S'Bloodstone'
p194
sVMN0000139089
p195
S'Barenaked Ladies'
p196
sVMN0000674662
p197
S'Manfred Mann'
p198
sVMN0000475431
p199
S'Stray Cats'
p200
sVMN0000066915
p201
S'Bob Dylan'
p202
sVMN0000792530
p203
S'Tori Amos'
p204
sVMN0000147785
p205
S'Eve 6'
p206
sVMN0000113300
p207
S'Kool Moe Dee'
p208
sVMN0000175579
p209
S'Disturbed'
p210
sVMN0000048507
p211
S'Sweet Sensation'
p212
sVMN0000864209
p213
S'Neil Diamond'
p214
sVMN0000026227
p215
S'Smokie'
p216
sVMN0000289599
p217
S'Linkin Park'
p218
sVMN0000127063
p219
S'Bell Biv Devoe'
p220
sVMN0000837886
p221
S'Lit'
p222
sVMN0000105129
p223
S'Collective Soul'
p224
sVMN0000260212
p225
S'Pet Shop Boys'
p226
sVMN0000988471
p227
S'Enya'
p228
sVMN0000184091
p229
S'Don Henley'
p230
sVMN0000796763
p231
S'Eddy Grant'
p232
sVMN0000164053
p233
S'Faith Evans'
p234
sVMN0000414889
p235
S'The Presidents Of The United States Of America'
p236
sVMN0000131650
p237
S'Talking Heads'
p238
sVMN0000005953
p239
S'Alice Cooper'
p240
sVMN0000162487
p241
S'Dixie Chicks'
p242
sVMN0000047789
p243
S'Bodeans'
p244
sVMN0000002923
p245
S"T'Pau"
p246
sVMN0000467203
p247
S'Michael Jackson'
p248
sVMN0000046814
p249
S'Blake Shelton'
p250
sVMN0000123754
p251
S'Christopher Cross'
p252
sVMN0000199995
p253
S'Genesis'
p254
sVMN0000194246
p255
S'Garbage'
p256
sVMN0000358408
p257
S'Run-D.M.C.'
p258
sVMN0000084446
p259
S'India.Arie'
p260
sVMN0000106916
p261
S'Chris Cagle'
p262
sVMN0000776371
p263
S'Color Me Badd'
p264
sVMN0000332257
p265
S'Neneh Cherry'
p266
sVMN0000328014
p267
S'Peter Tosh'
p268
sVMN0000622805
p269
S'Stevie Wonder'
p270
sVMN0000091549
p271
S'Chevelle'
p272
sVMN0000094813
p273
S'Black Rob'
p274
sVMN0000290502
p275
S'Limp Bizkit'
p276
sVMN0000747757
p277
S'Split Enz'
p278
sVMN0000376613
p279
S'Q-Tip'
p280
sVMN0000925635
p281
S'Sunshine Anderson'
p282
sVMN0000345355
p283
S'Melissa Etheridge'
p284
sVMN0000553483
p285
S'Happy Mondays'
p286
sVMN0000963005
p287
S'Will Smith Featuring Dru Hill '
p288
sVMN0000390390
p289
S'Ohio Players'
p290
sVMN0000263271
p291
S'Lifehouse'
p292
sVMN0000212614
p293
S'Deodato'
p294
sVMN0000137390
p295
S'The Cure'
p296
sVMN0000193320
p297
S'Def Leppard'
p298
sVMN0000151979
p299
S'Bay City Rollers'
p300
sVMN0000743623
p301
S'Spacehog'
p302
sVMN0000156938
p303
S'Shaggy'
p304
sVMN0000635466
p305
S'Bubba Sparxxx'
p306
sVMN0000023925
p307
S'Stephen Bishop'
p308
sVMN0000578999
p309
S'Aaliyah'
p310
sVMN0000490004
p311
S'The Ramones'
p312
sVMN0000757085
p313
S'Bangles'
p314
sVMN0000081619
p315
S'Keith Urban'
p316
sVMN0000077732
p317
S'Bobby Vee'
p318
sVMN0000043714
p319
S'Bee Gees'
p320
sVMN0000685647
p321
S'Yes'
p322
sVMN0000084209
p323
S'Kiss'
p324
sVMN0000608945
p325
S'Brandy'
p326
sVMN0000152023
p327
S'Everclear'
p328
sVMN0000105354
p329
S'Cheap Trick'
p330
sVMN0000334193
p331
S'New Order'
p332
sVMN0000929862
p333
S'Afrika Bambaataa'
p334
sVMN0000945196
p335
S'Gerry Rafferty'
p336
sVMN0000227352
p337
S'Hugo Montenegro'
p338
sVMN0000536275
p339
S'Sweet'
p340
sVMN0000583959
p341
S'Willie Nelson'
p342
sVMN0000194063
p343
S'Lee Ann Womack'
p344
sVMN0000252495
p345
S'Wayne Newton'
p346
sVMN0000372322
p347
S'Natalie Merchant'
p348
sVMN0000163229
p349
S'Electric Light Orchestra'
p350
sVMN0000801971
p351
S'Bob Geldof'
p352
sVMN0000850692
p353
S'Jethro Tull'
p354
sVMN0000029808
p355
S'Tesla'
p356
sVMN0000351227
p357
S'Richard Marx'
p358
sVMN0000926237
p359
S'Third Eye Blind'
p360
sVMN0000099246
p361
S'Concrete Blonde'
p362
sVMN0000246628
p363
S'Johnny Nash'
p364
sVMN0000361393
p365
S'Prince'
p366
sVMN0000892827
p367
S'The Notorious B.I.G.'
p368
sVMN0000383889
p369
S'matchbox twenty'
p370
sVMN0000478982
p371
S'A Tribe Called Quest'
p372
sVMN0000081316
p373
S'Bone Thugs-N-Harmony'
p374
sVMN0000113753
p375
S'Lauryn Hill'
p376
sVMN0000545074
p377
S'George Michael'
p378
sVMN0000317865
p379
S'Jennifer Lopez Featuring Big Pun '
p380
sVMN0000184043
p381
S'Foo Fighters'
p382
sVMN0000094752
p383
S'LL Cool J'
p384
sVMN0000826762
p385
S'Digable Planets'
p386
sVMN0000085915
p387
S'Billy Joel'
p388
sVMN0000376204
p389
S'Mary J. Blige'
p390
sVMN0000000534
p391
S'All Saints'
p392
sVMN0000865016
p393
S'New Edition'
p394
sVMN0000845662
p395
S'Jill Scott'
p396
sVMN0000022928
p397
S'Steppenwolf'
p398
sVMN0000129775
p399
S'Parliament'
p400
sVMN0000678339
p401
S'XTC'
p402
sVMN0000459616
p403
S'Michael McDonald'
p404
sVMN0000624215
p405
S'The Brothers Johnson'
p406
sVMN0000225930
p407
S'Liz Phair'
p408
sVMN0000605375
p409
S'Alan Jackson'
p410
sVMN0000124492
p411
S'Beck'
p412
sVMN0000816538
p413
S'Johnny Bristol'
p414
sVMN0000130689
p415
S'Jackson Browne'
p416
sVMN0000144847
p417
S'Eagles'
p418
sVMN0000737886
p419
S'Enrique Iglesias'
p420
sVMN0000165077
p421
S'Stacie Orrico'
p422
sVMN0000206241
p423
S'Eurythmics'
p424
sVMN0000303506
p425
S'Usher'
p426
sVMN0000178122
p427
S'Filter'
p428
sVMN0000923033
p429
S'Styx'
p430
sVMN0000612716
p431
S'Tom Petty'
p432
sVMN0000136871
p433
S'The Doobie Brothers'
p434
sVMN0000104714
p435
S'Kraftwerk'
p436
sVMN0000237205
p437
S'Madonna'
p438
sVMN0000011707
p439
S'Steely Dan'
p440
sVMN0000621639
p441
S'Tone-Loc'
p442
sVMN0000842802
p443
S'Peter Gabriel'
p444
sVMN0000029086
p445
S'Snoop Dogg Featuring Master P'
p446
sVMN0000894465
p447
S'The Rolling Stones'
p448
sVMN0000585896
p449
S'The Wallflowers'
p450
sVMN0000101946
p451
S'Isaac Hayes'
p452
sVMN0000822910
p453
S'Hoobastank'
p454
sVMN0000098342
p455
S'JC Chasez'
p456
sVMN0000502163
p457
S'10cc'
p458
sVMN0000074520
p459
S'The Hives'
p460
sVMN0000816890
p461
S'Johnny Cash'
p462
sVMN0000830538
p463
S'Robert Plant'
p464
sVMN0000378624
p465
S'Quincy Jones Featuring Ray Charles '
p466
sVMN0000548338
p467
S'Cannonball Adderley'
p468
sVMN0000270667
p469
S'Live'
p470
sVMN0000144458
p471
S'Curtis Mayfield'
p472
sVMN0000932665
p473
S'Alanis Morissette'
p474
sVMN0000546214
p475
S'Moby Featuring Gwen Stefani'
p476
sVMN0000748222
p477
S'Siouxsie and The Banshees'
p478
sVMN0000027136
p479
S'Paulina Rubio'
p480
sVMN0000264350
p481
S'Sean Paul'
p482
sVMN0000754251
p483
S'Suzanne Vega'
p484
sVMN0000303626
p485
S'Kansas'
p486
sVMN0000604852
p487
S'Aerosmith'
p488
sVMN0000790820
p489
S'Tool'
p490
sVMN0000017387
p491
S'Sixpence None The Richer'
p492
sVMN0000057663
p493
S'Blessid Union Of Souls'
p494
sVMN0000046727
p495
S'Edwin Starr'
p496
sVMN0000242211
p497
S'Saliva'
p498
sVMN0000128099
p499
S'James Brown'
p500
sVMN0000959876
p501
S'Wu-Tang Clan'
p502
sVMN0000645474
p503
S'David Essex'
p504
sVMN0000000441
p505
S'P.O.D.'
p506
sVMN0000785101
p507
S'Bananarama'
p508
sVMN0000037730
p509
S'Pearl Jam'
p510
sVMN0000316834
p511
S'Marvin Gaye'
p512
sVMN0000224345
p513
S'Vitamin C'
p514
sVMN0000281254
p515
S'Lonestar'
p516
sVMN0000007689
p517
S'TLC'
p518
sVMN0000227088
p519
S'Deana Carter'
p520
sVMN0000020050
p521
S'Ten Years After'
p522
sVMN0000262794
p523
S'Hootie & The Blowfish'
p524
sVMN0000303061
p525
S'Junior M.A.F.I.A.'
p526
sVMN0000224186
p527
S'John Mellencamp'
p528
sVMN0000045313
p529
S'Steve Winwood'
p530
sVMN0000146841
p531
S'Cyndi Thomson'
p532
sVMN0000169677
p533
S'Ernie K-Doe'
p534
sVMN0000597309
p535
S'Tina Turner'
p536
sVMN0000543055
p537
S'Georgie Fame'
p538
sVMN0000153443
p539
S'Fabolous'
p540
sVMN0000690254
p541
S'ZZ Top'
p542
sVMN0000163213
p543
S'Tweet'
p544
sVMN0000317108
p545
S'Jeffrey Osborne'
p546
sVMN0000498987
p547
S'SWV'
p548
sVMN0000921895
p549
S'2Pac'
p550
sVMN0000659517
p551
S'Grand Funk Railroad'
p552
sVMN0000355208
p553
S'Porno For Pyros'
p554
sVMN0000075747
p555
S'The Clash'
p556
sVMN0000134600
p557
S"D'Angelo"
p558
sVMN0000610339
p559
S'Toad The Wet Sprocket'
p560
sVMN0000669303
p561
S'Golden Earring'
p562
sVMN0000478603
p563
S'The Monkees'
p564
sVMN0000955647
p565
S'Mason Williams'
p566
sVMN0000765595
p567
S'Backstreet Boys'
p568
sVMN0000078467
p569
S'The Communards'
p570
sVMN0000165011
p571
S'Dionne Warwick'
p572
sVMN0000162269
p573
S'Faith Hill'
p574
sVMN0000260206
p575
S'Van Halen'
p576
sVMN0000665908
p577
S'Good Charlotte'
p578
sVMN0000069534
p579
S'Bon Jovi'
p580
sVMN0000665860
p581
S'Godsmack'
p582
sVMN0000033666
p583
S'Supertramp'
p584
sVMN0000662067
p585
S'Gravediggaz'
p586
sVMN0000182900
p587
S'Fleetwood Mac'
p588
sVMN0000262255
p589
S'Mariah Carey'
p590
sVMN0000797431
p591
S'Elastica'
p592
sVMN0000005307
p593
S'Alicia Keys'
p594
sVMN0000006987
p595
S'Alias'
p596
sVMN0000594665
p597
S'Diana Ross'
p598
sVMN0000537548
p599
S'Busta Rhymes'
p600
sVMN0000949630
p601
S'Goo Goo Dolls'
p602
sVMN0000138699
p603
S'Frank Zappa'
p604
sVMN0000243008
p605
S'Weezer'
p606
sVMN0000183311
p607
S'Fine Young Cannibals'
p608
sVMN0000072041
p609
S'Bob Seger'
p610
sVMN0000304401
p611
S'Procol Harum'
p612
sVMN0000496487
p613
S'Adam Ant'
p614
sVMN0000279337
p615
S'Sade'
p616
sVMN0000806542
p617
S'Etta James'
p618
sVMN0000762496
p619
S'Folk Implosion'
p620
sVMN0000626939
p621
S'Stone Sour'
p622
sVMN0000174557
p623
S'Carole King'
p624
sVMN0000204386
p625
S'James Taylor'
p626
sVMN0000064303
p627
S'Badfinger'
p628
sVMN0000420381
p629
S'OutKast'
p630
sVMN0000012472
p631
S'Traffic'
p632
sVMN0000576718
p633
S'Seal'
p634
sVMN0000359119
p635
S'KRS-One'
p636
sVMN0000796734
p637
S'Elton John'
p638
sVMN0000768321
p639
S'INXS'
p640
sVMN0000792839
p641
S'Shanice'
p642
sVMN0000927555
p643
S'Aretha Franklin'
p644
sVMN0000768328
p645
S'Kellie Coffey'
p646
sVMN0000339624
p647
S'Meat Loaf'
p648
sVMN0000758453
p649
S'Blues Traveler'
p650
sVMN0000048903
p651
S'Blu Cantrell'
p652
sVMN0000046823
p653
S'Benzino'
p654
sVMN0000110011
p655
S'Crazy Town'
p656
sVMN0000298764
p657
S'Roxette'
p658
sVMN0000208774
p659
S'Janet Jackson'
p660
sVMN0000696015
p661
S'Phoebe Snow'
p662
sVMN0000159214
p663
S'Dusty Springfield'
p664
s.