(dp0
VMN0001162681
p1
S'C+C Music Factory'
p2
sVMN0000295276
p3
S'Jimmy Cliff'
p4
sVMN0000245760
p5
S'Les McCann'
p6
sVMN0000344609
p7
S'Jesus Jones'
p8
sVMN0000472925
p9
S'The Offspring'
p10
sVMN0000530745
p11
S'Bruce Springsteen'
p12
sVMN0000167517
p13
S'Dire Straits'
p14
sVMN0000299668
p15
S'KC & The Sunshine Band'
p16
sVMN0000533117
p17
S'Ice Cube Featuring George Clinton'
p18
sVMN0000317020
p19
S"Quad City DJ's"
p20
sVMN0000053606
p21
S'Bloodstone'
p22
sVMN0000231342
p23
S'Deee-Lite'
p24
sVMN0000008828
p25
S'Spice Girls'
p26
sVMN0000020050
p27
S'Ten Years After'
p28
sVMN0000677781
p29
S'Wilson Pickett'
p30
sVMN0000239921
p31
S'Depeche Mode'
p32
sVMN0000744573
p33
S'TKA'
p34
sVMN0000883318
p35
S'Red Hot Chili Peppers'
p36
sVMN0000861351
p37
S'Fat Joe Featuring Nelly'
p38
sVMN0000799053
p39
S'Donovan'
p40
sVMN0000794846
p41
S'Eddie Rabbitt'
p42
sVMN0000322092
p43
S'Peter Cetera'
p44
sVMN0000387973
p45
S'Raekwon'
p46
sVMN0000527463
p47
S'Bull Moose Jackson'
p48
sVMN0000553483
p49
S'Happy Mondays'
p50
sVMN0000026367
p51
S'Skid Row'
p52
sVMN0000209142
p53
S'George Harrison'
p54
sVMN0000049026
p55
S'Switchfoot'
p56
sVMN0000114342
p57
S'The Doors'
p58
sVMN0000610880
p59
S'Brad Paisley'
p60
sVMN0000141838
p61
S'Eddie Money'
p62
sVMN0000824022
p63
S'Little Richard'
p64
sVMN0000186185
p65
S'Celine Dion'
p66
sVMN0000064303
p67
S'Badfinger'
p68
sVMN0000103484
p69
S'Indigo Girls'
p70
sVMN0000078532
p71
S'Inner Circle'
p72
sVMN0000175049
p73
S'Firehouse'
p74
sVMN0000943827
p75
S'Cake'
p76
sVMN0000136871
p77
S'The Doobie Brothers'
p78
sVMN0000340152
p79
S'Ratt'
p80
sVMN0000930722
p81
S'Timi Yuro'
p82
sVMN0000796690
p83
S'Don Covay'
p84
sVMN0000757328
p85
S'The Marketts'
p86
sVMN0000206241
p87
S'Eurythmics'
p88
sVMN0000662067
p89
S'Gravediggaz'
p90
sVMN0000304401
p91
S'Procol Harum'
p92
sVMN0000068097
p93
S'Bob Lind'
p94
sVMN0000011754
p95
S'Sheena Easton'
p96
sVMN0000321321
p97
S'Lulu'
p98
sVMN0000959876
p99
S'Wu-Tang Clan'
p100
sVMN0000570046
p101
S'Marc Almond'
p102
sVMN0000342834
p103
S'Mel Carter'
p104
sVMN0000559405
p105
S'Daddy Yankee'
p106
sVMN0000051909
p107
S'Carpenters'
p108
sVMN0000084446
p109
S'India.Arie'
p110
sVMN0000774588
p111
S'Kris Kristofferson'
p112
sVMN0000119469
p113
S'Corey Hart'
p114
sVMN0000222748
p115
S'Vixen'
p116
sVMN0000002923
p117
S"T'Pau"
p118
sVMN0000695401
p119
S'Yvonne Fair'
p120
sVMN0000260038
p121
S'Dinah Washington'
p122
sVMN0000755776
p123
S'Simon Stokes'
p124
sVMN0000199995
p125
S'Genesis'
p126
sVMN0000358408
p127
S'Run-D.M.C.'
p128
sVMN0000106916
p129
S'Chris Cagle'
p130
sVMN0000776371
p131
S'Color Me Badd'
p132
sVMN0000028619
p133
S'Steve Arrington'
p134
sVMN0000747757
p135
S'Split Enz'
p136
sVMN0000224257
p137
S'Jay-Z'
p138
sVMN0000925635
p139
S'Sunshine Anderson'
p140
sVMN0000094752
p141
S'LL Cool J'
p142
sVMN0000766893
p143
S'The Isley Brothers'
p144
sVMN0000193320
p145
S'Def Leppard'
p146
sVMN0000171889
p147
S'Elephant Man'
p148
sVMN0000662797
p149
S'Ginuwine'
p150
sVMN0000180617
p151
S'Carolyn Dawn Johnson'
p152
sVMN0000645474
p153
S'David Essex'
p154
sVMN0000043714
p155
S'Bee Gees'
p156
sVMN0000509156
p157
S'Mudvayne'
p158
sVMN0000266063
p159
S'Chris Brown Featuring Jay Biz'
p160
sVMN0000105354
p161
S'Cheap Trick'
p162
sVMN0000334193
p163
S'New Order'
p164
sVMN0000929862
p165
S'Afrika Bambaataa'
p166
sVMN0000488908
p167
S'Petey Pablo'
p168
sVMN0000153526
p169
S'Cliff Richard'
p170
sVMN0000383056
p171
S'The Click Five'
p172
sVMN0000073666
p173
S'Baby Washington'
p174
sVMN0000012307
p175
S'Tracie Spencer'
p176
sVMN0000852007
p177
S'Roy Orbison'
p178
sVMN0000850692
p179
S'Jethro Tull'
p180
sVMN0000180228
p181
S'Elvis Presley'
p182
sVMN0000246628
p183
S'Johnny Nash'
p184
sVMN0000361393
p185
S'Prince'
p186
sVMN0000566430
p187
S'Mobb Deep Featuring Vita & Noyd'
p188
sVMN0000988692
p189
S'Grapefruit'
p190
sVMN0000085915
p191
S'Billy Joel'
p192
sVMN0000173925
p193
S'Eddie Holman'
p194
sVMN0000178750
p195
S'Stacy Lattisaw'
p196
sVMN0000756380
p197
S'Blues Magoos'
p198
sVMN0000177122
p199
S'Fat Joe'
p200
sVMN0000232564
p201
S'John Lennon'
p202
sVMN0000576979
p203
S'The Wombles'
p204
sVMN0000624215
p205
S'The Brothers Johnson'
p206
sVMN0000270667
p207
S'Live'
p208
sVMN0000087985
p209
S'The Hollies'
p210
sVMN0000840348
p211
S'Velvet Revolver'
p212
sVMN0000945196
p213
S'Gerry Rafferty'
p214
sVMN0000165076
p215
S'Stacey Q'
p216
sVMN0000165077
p217
S'Stacie Orrico'
p218
sVMN0000406657
p219
S'Meredith Brooks'
p220
sVMN0000178122
p221
S'Filter'
p222
sVMN0000125561
p223
S'Cinderella'
p224
sVMN0000923033
p225
S'Styx'
p226
sVMN0000567624
p227
S'The Stylistics'
p228
sVMN0000104714
p229
S'Kraftwerk'
p230
sVMN0002907557
p231
S'The Raindrops'
p232
sVMN0000621639
p233
S'Tone-Loc'
p234
sVMN0000842802
p235
S'Peter Gabriel'
p236
sVMN0000610706
p237
S'Bread'
p238
sVMN0000294891
p239
S'Salt-N-Pepa'
p240
sVMN0000411761
p241
S'Nina Simone'
p242
sVMN0000833539
p243
S'Mark Morrison'
p244
sVMN0000830538
p245
S'Robert Plant'
p246
sVMN0000019241
p247
S'Patty Loveless'
p248
sVMN0000825883
p249
S'Dierks Bentley'
p250
sVMN0000115140
p251
S'Commander Cody And His Lost Planet Airmen'
p252
sVMN0000027136
p253
S'Paulina Rubio'
p254
sVMN0000988627
p255
S'Fuel'
p256
sVMN0000540010
p257
S'Capleton'
p258
sVMN0000616296
p259
S'Ashlee Simpson'
p260
sVMN0000017387
p261
S'Sixpence None The Richer'
p262
sVMN0000281376
p263
S'Lords Of The Underground'
p264
sVMN0000866491
p265
S'Maxwell'
p266
sVMN0000578999
p267
S'Aaliyah'
p268
sVMN0000502371
p269
S'Ciara Featuring Missy Elliott'
p270
sVMN0000743968
p271
S'Patrice Rushen'
p272
sVMN0000012128
p273
S'All-4-One'
p274
sVMN0000961234
p275
S'Dave Matthews Band'
p276
sVMN0000604924
p277
S'Arthur Conley'
p278
sVMN0000788126
p279
S'Clay Davidson'
p280
sVMN0000543595
p281
S'Candlebox'
p282
sVMN0000096744
p283
S'Chris Rea'
p284
sVMN0000153443
p285
S'Fabolous'
p286
sVMN0000888484
p287
S'Michelle Branch'
p288
sVMN0000325401
p289
S'Petula Clark'
p290
sVMN0000355208
p291
S'Porno For Pyros'
p292
sVMN0000311674
p293
S'Vanilla Fudge'
p294
sVMN0000208997
p295
S'Rita Coolidge'
p296
sVMN0000740499
p297
S'Grand Puba'
p298
sVMN0000478603
p299
S'The Monkees'
p300
sVMN0000134729
p301
S'Faith No More'
p302
sVMN0000129551
p303
S'Crossfade'
p304
sVMN0000919805
p305
S"Lil' Kim Featuring 50 Cent"
p306
sVMN0000490738
p307
S'Monica'
p308
sVMN0000194246
p309
S'Garbage'
p310
sVMN0000058035
p311
S'The Chiffons'
p312
sVMN0000153103
p313
S'Donald Fagen'
p314
sVMN0000797431
p315
S'Elastica'
p316
sVMN0000746666
p317
S'Sister Sledge'
p318
sVMN0000006987
p319
S'Alias'
p320
sVMN0000577235
p321
S'The Staple Singers'
p322
sVMN0000857203
p323
S'Kay Starr'
p324
sVMN0000243008
p325
S'Weezer'
p326
sVMN0000156938
p327
S'Shaggy'
p328
sVMN0000676313
p329
S'Hi-Five'
p330
sVMN0000036641
p331
S'Paul Wall Featuring Big Pokey'
p332
sVMN0000531986
p333
S'David Bowie'
p334
sVMN0000078467
p335
S'The Communards'
p336
sVMN0000492331
p337
S'Pretenders'
p338
sVMN0000574102
p339
S'Dashboard Confessional'
p340
sVMN0000075100
p341
S'Bad Company'
p342
sVMN0000198426
p343
S'Changing Faces'
p344
sVMN0000921965
p345
S'The Ventures'
p346
sVMN0000758453
p347
S'Blues Traveler'
p348
sVMN0000005953
p349
S'Alice Cooper'
p350
sVMN0000033666
p351
S'Supertramp'
p352
sVMN0000025335
p353
S'Trina'
p354
sVMN0000359559
p355
S'Karyn White'
p356
sVMN0000955647
p357
S'Mason Williams'
p358
sVMN0000614598
p359
S'Mystikal'
p360
sVMN0000691616
p361
S'Ryan Cabrera'
p362
sVMN0000849405
p363
S'Marques Houston'
p364
sVMN0000852688
p365
S'Jimmy Eat World'
p366
sVMN0000343930
p367
S'The Jesus and Mary Chain'
p368
sVMN0000373634
p369
S'Nas'
p370
sVMN0000861687
p371
S'Nelly Furtado'
p372
sVMN0000021744
p373
S'Stephen Stills'
p374
sVMN0000118791
p375
S'LeAnn Rimes'
p376
sVMN0000165011
p377
S'Dionne Warwick'
p378
sVMN0000775323
p379
S'Chris Isaak'
p380
sVMN0000087179
p381
S'The Knack'
p382
sVMN0000572579
p383
S'Anita Baker'
p384
sVMN0000123360
p385
S'Chris Walker'
p386
sVMN0000198162
p387
S'Johnnie Taylor'
p388
sVMN0000059101
p389
S'Bobby Byrd'
p390
sVMN0000160690
p391
S'En Vogue'
p392
sVMN0000281254
p393
S'Lonestar'
p394
sVMN0000059537
p395
S'Blue Cheer'
p396
sVMN0000260206
p397
S'Van Halen'
p398
sVMN0000219203
p399
S'U2'
p400
sVMN0000495366
p401
S'The S.O.S. Band'
p402
sVMN0000098081
p403
S'Engelbert Humperdinck'
p404
sVMN0000045972
p405
S'Swing Out Sister'
p406
sVMN0000780258
p407
S'Christina Aguilera'
p408
sVMN0000806645
p409
S'Dr. Hook'
p410
sVMN0000891911
p411
S'Midnight Star'
p412
sVMN0000766066
p413
S'Bobby Vinton'
p414
sVMN0000099246
p415
S'Concrete Blonde'
p416
sVMN0000046784
p417
S'Syl Johnson'
p418
sVMN0000171117
p419
S'Eddie Lovette'
p420
sVMN0000110161
p421
S'Chicago'
p422
sVMN0000100196
p423
S'Chubb Rock'
p424
sVMN0000140608
p425
S"dog's eye view"
p426
sVMN0000391003
p427
S'Norman Greenbaum'
p428
sVMN0000546678
p429
S'Lonnie Gordon'
p430
sVMN0000790732
p431
S'Squeeze'
p432
sVMN0000020984
p433
S'Shelley Fabares'
p434
sVMN0001772529
p435
S'Pockets'
p436
sVMN0000188342
p437
S'Freddy Fender'
p438
sVMN0000583959
p439
S'Willie Nelson'
p440
sVMN0000041874
p441
S'The Beach Boys'
p442
sVMN0000113300
p443
S'Kool Moe Dee'
p444
sVMN0000696015
p445
S'Phoebe Snow'
p446
sVMN0000158309
p447
S'Pat Benatar'
p448
sVMN0000097654
p449
S'Kim Carnes'
p450
sVMN0000806829
p451
S"Jane's Addiction"
p452
sVMN0000066915
p453
S'Bob Dylan'
p454
sVMN0000070715
p455
S'Bobby Darin'
p456
sVMN0000856640
p457
S"Lil' Kim Featuring Puff Daddy"
p458
sVMN0000864209
p459
S'Neil Diamond'
p460
sVMN0000594665
p461
S'Diana Ross'
p462
sVMN0000792839
p463
S'Shanice'
p464
sVMN0000127063
p465
S'Bell Biv Devoe'
p466
sVMN0000837886
p467
S'Lit'
p468
sVMN0000303506
p469
S'Usher'
p470
sVMN0000184091
p471
S'Don Henley'
p472
sVMN0000796763
p473
S'Eddy Grant'
p474
sVMN0000898828
p475
S'The Searchers'
p476
sVMN0000162487
p477
S'Dixie Chicks'
p478
sVMN0000047789
p479
S'Bodeans'
p480
sVMN0000289058
p481
S'Saigon Kick'
p482
sVMN0000930642
p483
S'Morris Day'
p484
sVMN0000149605
p485
S'Clipse'
p486
sVMN0000480086
p487
S'Modest Mouse'
p488
sVMN0000569685
p489
S'The Temptations'
p490
sVMN0000065590
p491
S'The Flaming Lips'
p492
sVMN0000290502
p493
S'Limp Bizkit'
p494
sVMN0000345355
p495
S'Melissa Etheridge'
p496
sVMN0000263271
p497
S'Lifehouse'
p498
sVMN0000186978
p499
S'Mack 10'
p500
sVMN0000116178
p501
S'Culture Club'
p502
sVMN0000950805
p503
S'Glass Tiger'
p504
sVMN0000621112
p505
S'Mya'
p506
sVMN0000270162
p507
S'Lil Scrappy'
p508
sVMN0000816890
p509
S'Johnny Cash'
p510
sVMN0000031380
p511
S'Paula Abdul'
p512
sVMN0000162269
p513
S'Faith Hill'
p514
sVMN0000931015
p515
S'Tom Cochrane'
p516
sVMN0000187478
p517
S'Eric Clapton'
p518
sVMN0000060476
p519
S'The Friends Of Distinction'
p520
sVMN0000565388
p521
S'The Swinging Blue Jeans'
p522
sVMN0000224369
p523
S'John Miles'
p524
sVMN0000403184
p525
S'The Osmonds'
p526
sVMN0000802302
p527
S'De La Soul Featuring Chaka Khan'
p528
sVMN0000198480
p529
S'Cat Stevens'
p530
sVMN0000898275
p531
S'Missing Persons'
p532
sVMN0000478982
p533
S'A Tribe Called Quest'
p534
sVMN0000762496
p535
S'Folk Implosion'
p536
sVMN0000208076
p537
S'Luther Vandross'
p538
sVMN0000813463
p539
S'John Waite'
p540
sVMN0000801971
p541
S'Bob Geldof'
p542
sVMN0000493122
p543
S'The Rascals'
p544
sVMN0000826762
p545
S'Digable Planets'
p546
sVMN0000208774
p547
S'Janet Jackson'
p548
sVMN0000305468
p549
S'Lita Ford'
p550
sVMN0000174155
p551
S'Fred Schneider'
p552
sVMN0000144458
p553
S'Curtis Mayfield'
p554
sVMN0000865016
p555
S'New Edition'
p556
sVMN0000894847
p557
S'The Pointer Sisters'
p558
sVMN0000920939
p559
S'The Undisputed Truth'
p560
sVMN0000564631
p561
S'The Sugarhill Gang'
p562
sVMN0000368367
p563
S'Nancy Wilson'
p564
sVMN0000043444
p565
S'Steve Martin'
p566
sVMN0000020812
p567
S'Slaughter'
p568
sVMN0000350685
p569
S'Twista Featuring Pitbull'
p570
sVMN0000667669
p571
S'Daft Punk'
p572
sVMN0000790833
p573
S'Shalamar'
p574
sVMN0000585896
p575
S'The Wallflowers'
p576
sVMN0000307461
p577
S'Van Morrison'
p578
sVMN0000548338
p579
S'Cannonball Adderley'
p580
sVMN0000565727
p581
S'Darrell Banks'
p582
sVMN0000944349
p583
S'Cameo'
p584
sVMN0000804703
p585
S'GTR'
p586
sVMN0000480108
p587
S'A-Ha'
p588
sVMN0000748222
p589
S'Siouxsie and The Banshees'
p590
sVMN0000796736
p591
S'Elvin Bishop'
p592
sVMN0000264350
p593
S'Sean Paul'
p594
sVMN0000822910
p595
S'Hoobastank'
p596
sVMN0000667794
p597
S'Gordon Lightfoot'
p598
sVMN0000575051
p599
S"Herman's Hermits"
p600
sVMN0000294923
p601
S'Judy Collins'
p602
sVMN0000147635
p603
S'Carly Simon'
p604
sVMN0000057663
p605
S'Blessid Union Of Souls'
p606
sVMN0000628467
p607
S'Britney Spears'
p608
sVMN0000263019
p609
S'Jonathan King'
p610
sVMN0000048622
p611
S'The Marcels'
p612
sVMN0000317093
p613
S'Nat King Cole'
p614
sVMN0000689891
p615
S'Young MC'
p616
sVMN0000868616
p617
S'Nickelback'
p618
sVMN0000233147
p619
S'Howie Day'
p620
sVMN0000074195
p621
S'Natalie Cole'
p622
sVMN0000563349
p623
S'Dan Seals'
p624
sVMN0001009627
p625
S'Rob Thomas'
p626
sVMN0000252495
p627
S'Wayne Newton'
p628
sVMN0000584041
p629
S'Ying Yang Twins'
p630
sVMN0000745915
p631
S'Paul Anka'
p632
sVMN0000500612
p633
S'Adam Sandler'
p634
sVMN0000148066
p635
S'D.C. LaRue'
p636
sVMN0000134600
p637
S"D'Angelo"
p638
sVMN0000751019
p639
S'The Animals'
p640
sVMN0000128143
p641
S'Twista Featuring Trey Songz'
p642
sVMN0000659517
p643
S'Grand Funk Railroad'
p644
sVMN0000093215
p645
S'Black Moon'
p646
sVMN0000739702
p647
S'Frozen Ghost'
p648
sVMN0000944084
p649
S'George Strait'
p650
sVMN0000524050
p651
S'Bryan Ferry'
p652
sVMN0000831448
p653
S'Romeo Void'
p654
sVMN0000669303
p655
S'Golden Earring'
p656
sVMN0000036849
p657
S'Sonny James'
p658
sVMN0000132305
p659
S'Clarence Reid'
p660
sVMN0000162197
p661
S'Ben Folds'
p662
sVMN0000069534
p663
S'Bon Jovi'
p664
sVMN0000174557
p665
S'Carole King'
p666
sVMN0000136640
p667
S'The KLF Featuring Tammy Wynette'
p668
sVMN0002855999
p669
S'Freddy King'
p670
sVMN0000072999
p671
S'The Happenings'
p672
sVMN0000674662
p673
S'Manfred Mann'
p674
sVMN0000664459
p675
S'Da Brat'
p676
sVMN0000019297
p677
S'America'
p678
sVMN0000554804
p679
S'The Wreckers'
p680
sVMN0000196993
p681
S'England Dan & John Ford Coley'
p682
sVMN0000237205
p683
S'Madonna'
p684
sVMN0000279337
p685
S'Sade'
p686
sVMN0000498484
p687
S'The Rembrandts'
p688
sVMN0000626939
p689
S'Stone Sour'
p690
sVMN0000028772
p691
S'The 5th Dimension'
p692
sVMN0000845662
p693
S'Jill Scott'
p694
sVMN0000855531
p695
S'Barbra Streisand'
p696
sVMN0000520545
p697
S'My Chemical Romance'
p698
sVMN0000420381
p699
S'OutKast'
p700
sVMN0000502163
p701
S'10cc'
p702
sVMN0000244048
p703
S'Sammie'
p704
sVMN0000383853
p705
S'Neal McCoy'
p706
sVMN0000212614
p707
S'Deodato'
p708
sVMN0000220194
p709
S'MC Eiht'
p710
sVMN0000298764
p711
S'Roxette'
p712
sVMN0000046823
p713
S'Benzino'
p714
sVMN0000182360
p715
S'Donny Hathaway'
p716
sVMN0000086927
p717
S'Kelly Clarkson'
p718
sVMN0000159805
p719
S'Beats International'
p720
sVMN0000242543
p721
S'West Street Mob'
p722
sVMN0000492249
p723
S'Anything Box'
p724
sVMN0000835585
p725
S'Loverboy'
p726
sVMN0000661795
p727
S'DMX'
p728
sVMN0000221059
p729
S'Jason Mraz'
p730
sVMN0000029600
p731
S'Smash Mouth'
p732
sVMN0000635466
p733
S'Bubba Sparxxx'
p734
sVMN0000203639
p735
S'Johnny Rivers'
p736
sVMN0000187907
p737
S'Aventura Featuring Don Omar'
p738
sVMN0000618713
p739
S'Aldo Nova'
p740
sVMN0000070800
p741
S'Billy Idol'
p742
sVMN0000376613
p743
S'Q-Tip'
p744
sVMN0000758444
p745
S'Blur'
p746
sVMN0000317865
p747
S'Jennifer Lopez Featuring Big Pun '
p748
sVMN0000170214
p749
S'Ferrante & Teicher'
p750
sVMN0000605375
p751
S'Alan Jackson'
p752
sVMN0000936425
p753
S'Todd Rundgren'
p754
sVMN0000894962
p755
S'The Postal Service'
p756
sVMN0000496487
p757
S'Adam Ant'
p758
sVMN0000234384
p759
S"Lil' Romeo"
p760
sVMN0000061172
p761
S'The Cars'
p762
sVMN0000414889
p763
S'The Presidents Of The United States Of America'
p764
sVMN0000024944
p765
S'Amy Grant'
p766
sVMN0000776093
p767
S'Kylie Minogue'
p768
sVMN0000754251
p769
S'Suzanne Vega'
p770
sVMN0000949780
p771
S'Hanson'
p772
sVMN0000495288
p773
S'The Rentals'
p774
sVMN0000222436
p775
S'David Lee Roth'
p776
sVMN0000005307
p777
S'Alicia Keys'
p778
sVMN0000936190
p779
S'Stevie Nicks'
p780
sVMN0000010458
p781
S'Alison Moyet'
p782
sVMN0000184811
p783
S'Erasure'
p784
sVMN0000516202
p785
S'Brian Hyland'
p786
sVMN0000341672
p787
S'No Doubt'
p788
sVMN0000290072
p789
S'Roberta Flack'
p790
sVMN0000042768
p791
S'Benny Spellman'
p792
sVMN0000402872
p793
S'The Meters'
p794
sVMN0000023925
p795
S'Stephen Bishop'
p796
sVMN0000030928
p797
S'Tevin Campbell'
p798
sVMN0000477875
p799
S'The Supremes'
p800
sVMN0000000441
p801
S'P.O.D.'
p802
sVMN0000807041
p803
S'Joey Scarbury'
p804
sVMN0000123754
p805
S'Christopher Cross'
p806
sVMN0000545074
p807
S'George Michael'
p808
sVMN0000167361
p809
S'Dru Hill'
p810
sVMN0000073682
p811
S'Trina Featuring Kelly Rowland'
p812
sVMN0000101946
p813
S'Isaac Hayes'
p814
sVMN0000463803
p815
S"Ol' Dirty Bastard"
p816
sVMN0000284667
p817
S'Robbie Nevil'
p818
sVMN0000139089
p819
S'Barenaked Ladies'
p820
sVMN0000475431
p821
S'Stray Cats'
p822
sVMN0000149515
p823
S'Joe Cocker'
p824
sVMN0000965206
p825
S'Garnet Mimms'
p826
sVMN0000048507
p827
S'Sweet Sensation'
p828
sVMN0000599389
p829
S"Mother's Finest"
p830
sVMN0000215513
p831
S'Ciara'
p832
sVMN0000773642
p833
S'The Kingsmen'
p834
sVMN0000604852
p835
S'Aerosmith'
p836
sVMN0000988471
p837
S'Enya'
p838
sVMN0000817011
p839
S'Was (Not Was)'
p840
sVMN0000473554
p841
S'Olivia Newton-John'
p842
sVMN0000165117
p843
S'Tamia'
p844
sVMN0000267814
p845
S'Hot Chocolate'
p846
sVMN0000164053
p847
S'Faith Evans'
p848
sVMN0000772567
p849
S'Iron Butterfly'
p850
sVMN0000131650
p851
S'Talking Heads'
p852
sVMN0000013393
p853
S'Tower Of Power'
p854
sVMN0000510805
p855
S'Toby Keith'
p856
sVMN0000046814
p857
S'Blake Shelton'
p858
sVMN0000036106
p859
S'Steve Miller Band'
p860
sVMN0000328014
p861
S'Peter Tosh'
p862
sVMN0000933772
p863
S'Brand Nubian'
p864
sVMN0000675710
p865
S'Marc Cohn'
p866
sVMN0000163213
p867
S'Tweet'
p868
sVMN0000945900
p869
S'George McCrae'
p870
sVMN0000200679
p871
S'Twista'
p872
sVMN0000091549
p873
S'Chevelle'
p874
sVMN0000242211
p875
S'Saliva'
p876
sVMN0000963005
p877
S'Will Smith Featuring Dru Hill '
p878
sVMN0000390390
p879
S'Ohio Players'
p880
sVMN0000297702
p881
S'Sammy Hagar'
p882
sVMN0000322027
p883
S'Nelson Riddle'
p884
sVMN0000002330
p885
S'Sergio Mendes'
p886
sVMN0000768737
p887
S'Icehouse'
p888
sVMN0000046727
p889
S'Edwin Starr'
p890
sVMN0000832833
p891
S'Samantha Mumba'
p892
sVMN0000424296
p893
S'The Righteous Brothers'
p894
sVMN0000757085
p895
S'Bangles'
p896
sVMN0000081619
p897
S'Keith Urban'
p898
sVMN0000046861
p899
S'Ray Charles'
p900
sVMN0000685647
p901
S'Yes'
p902
sVMN0000136075
p903
S'The Crusaders'
p904
sVMN0000665860
p905
S'Godsmack'
p906
sVMN0000479149
p907
S'A Perfect Circle'
p908
sVMN0000892771
p909
S"The O'Jays"
p910
sVMN0000005501
p911
S'System Of A Down'
p912
sVMN0000351227
p913
S'Richard Marx'
p914
sVMN0000813731
p915
S'Debbie Gibson'
p916
sVMN0000359119
p917
S'KRS-One'
p918
sVMN0000219428
p919
S'Uncle Kracker'
p920
sVMN0003018652
p921
S'Peter Shelley'
p922
sVMN0000184043
p923
S'Foo Fighters'
p924
sVMN0000838524
p925
S'Savoy Brown'
p926
sVMN0000089710
p927
S'Billy Paul'
p928
sVMN0000069153
p929
S'Joan Baez'
p930
sVMN0000591104
p931
S'Mongo Santamaria'
p932
sVMN0000171637
p933
S'Duane Eddy'
p934
sVMN0000678167
p935
S'Das EFX'
p936
sVMN0000349555
p937
S'Jimmy Holiday'
p938
sVMN0000322733
p939
S'Jermaine Dupri Featuring Nate Dogg'
p940
sVMN0000200074
p941
S'Lenny Kravitz'
p942
sVMN0000813392
p943
S'Dean Martin'
p944
sVMN0000143781
p945
S'The Del Fuegos'
p946
sVMN0000149044
p947
S'Barry White'
p948
sVMN0000737886
p949
S'Enrique Iglesias'
p950
sVMN0000361014
p951
S'Brandy Featuring Kanye West'
p952
sVMN0000852656
p953
S'RuPaul'
p954
sVMN0000191006
p955
S'Gary Wright'
p956
sVMN0000010412
p957
S'Spin Doctors'
p958
sVMN0000138407
p959
S'The Dramatics'
p960
sVMN0000077283
p961
S'Geto Boys Featuring Flaj'
p962
sVMN0000159214
p963
S'Dusty Springfield'
p964
sVMN0000665364
p965
S'Goanna'
p966
sVMN0000040743
p967
S'Audioslave'
p968
sVMN0000375239
p969
S'Marty Wilde'
p970
sVMN0000069702
p971
S'Choirboys'
p972
sVMN0000059156
p973
S'B.B. King'
p974
sVMN0000774145
p975
S'Kimberley Locke'
p976
sVMN0000012472
p977
S'Traffic'
p978
sVMN0000497236
p979
S'Adina Howard'
p980
sVMN0000379125
p981
S'Neil Young'
p982
sVMN0000771010
p983
S'The Left Banke'
p984
sVMN0000749734
p985
S'Slade'
p986
sVMN0000834314
p987
S'Jude Cole'
p988
sVMN0000805661
p989
S'Humble Pie'
p990
sVMN0000765075
p991
S'The Honeycombs'
p992
sVMN0000049774
p993
S'BLACKstreet'
p994
sVMN0000808304
p995
S'Lou Gramm'
p996
sVMN0000220590
p997
S'MC Lyte'
p998
sVMN0000148477
p999
S'Clarence Carter'
p1000
sVMN0000490004
p1001
S'The Ramones'
p1002
sVMN0000075747
p1003
S'The Clash'
p1004
sVMN0000224186
p1005
S'John Mellencamp'
p1006
sVMN0000790820
p1007
S'Tool'
p1008
sVMN0000597309
p1009
S'Tina Turner'
p1010
sVMN0000087697
p1011
S'Kem'
p1012
sVMN0000376422
p1013
S'Queens Of The Stone Age'
p1014
sVMN0000690254
p1015
S'ZZ Top'
p1016
sVMN0000797452
p1017
S'Stage Dolls'
p1018
sVMN0000988005
p1019
S'Fotomaker'
p1020
sVMN0000246885
p1021
S'Johnny Mathis'
p1022
sVMN0000146755
p1023
S'Cutting Crew'
p1024
sVMN0000610339
p1025
S'Toad The Wet Sprocket'
p1026
sVMN0000744265
p1027
S'Tony Joe White'
p1028
sVMN0000773442
p1029
S'Chingy'
p1030
sVMN0000423267
p1031
S'Small Faces'
p1032
sVMN0000678339
p1033
S'XTC'
p1034
sVMN0000498987
p1035
S'SWV'
p1036
sVMN0000932922
p1037
S'Brass Construction'
p1038
sVMN0000082013
p1039
S'The Impressions'
p1040
sVMN0000152023
p1041
S'Everclear'
p1042
sVMN0000577627
p1043
S'The Who'
p1044
sVMN0000337119
p1045
S'Phil Collins'
p1046
sVMN0000554963
p1047
S'Harry Chapin'
p1048
sVMN0000812711
p1049
S'Death Cab For Cutie'
p1050
sVMN0000098342
p1051
S'JC Chasez'
p1052
sVMN0000026227
p1053
S'Smokie'
p1054
sVMN0000537548
p1055
S'Busta Rhymes'
p1056
sVMN0000692251
p1057
S'The Youngbloods'
p1058
sVMN0000949630
p1059
S'Goo Goo Dolls'
p1060
sVMN0000178799
p1061
S'Staind'
p1062
sVMN0000678408
p1063
S'Herbie Mann'
p1064
sVMN0000745964
p1065
S'The Allman Brothers Band'
p1066
sVMN0000806542
p1067
S'Etta James'
p1068
sVMN0000100160
p1069
S'The Kinks'
p1070
sVMN0000204386
p1071
S'James Taylor'
p1072
sVMN0000576718
p1073
S'Seal'
p1074
sVMN0000210323
p1075
S'Joe Tex'
p1076
sVMN0000796734
p1077
S'Elton John'
p1078
sVMN0000777210
p1079
S'Kool & The Gang'
p1080
sVMN0000831733
p1081
S'Lindsay Lohan'
p1082
sVMN0000847006
p1083
S'D4L'
p1084
sVMN0000247250
p1085
S'When In Rome'
p1086
sVMN0000807949
p1087
S'Underworld'
p1088
sVMN0000814852
p1089
S'John Sebastian'
p1090
sVMN0000021128
p1091
S'Trillville'
p1092
sVMN0000747163
p1093
S'Amanda Perez'
p1094
sVMN0000239827
p1095
S'John Mayer'
p1096
sVMN0000174198
p1097
S'Edwin McCain'
p1098
sVMN0000748994
p1099
S'Trick Daddy Featuring LaTocha Scott'
p1100
sVMN0000255576
p1101
S'Honeymoon Suite'
p1102
sVMN0000479687
p1103
S'Midge Ure'
p1104
sVMN0000029086
p1105
S'Snoop Dogg Featuring Master P'
p1106
sVMN0000390532
p1107
S'Oingo Boingo'
p1108
sVMN0000194063
p1109
S'Lee Ann Womack'
p1110
sVMN0000524837
p1111
S'Mrs. Miller'
p1112
sVMN0000124492
p1113
S'Beck'
p1114
sVMN0000778656
p1115
S'Cornelius Brothers & Sister Rose'
p1116
sVMN0000882956
p1117
S'Merry Clayton'
p1118
sVMN0000467382
p1119
S'Michael Penn'
p1120
sVMN0000784814
p1121
S'The Cranberries'
p1122
sVMN0000163229
p1123
S'Electric Light Orchestra'
p1124
sVMN0000372322
p1125
S'Natalie Merchant'
p1126
sVMN0000087305
p1127
S'Kid Frost'
p1128
sVMN0000837946
p1129
S'Juice Newton'
p1130
sVMN0000118189
p1131
S'Clay Walker'
p1132
sVMN0000391933
p1133
S'Rainbow'
p1134
sVMN0000753963
p1135
S'The Association'
p1136
sVMN0000193601
p1137
S'Gang Starr'
p1138
sVMN0000012180
p1139
S'Trace Adkins'
p1140
sVMN0000671953
p1141
S'Heart'
p1142
sVMN0000181376
p1143
S'UB40'
p1144
sVMN0000303061
p1145
S'Junior M.A.F.I.A.'
p1146
sVMN0000921895
p1147
S'2Pac'
p1148
sVMN0000107090
p1149
S'Cher'
p1150
sVMN0000227988
p1151
S'House Of Pain'
p1152
sVMN0000674150
p1153
S'Helen Reddy'
p1154
sVMN0000665908
p1155
S'Good Charlotte'
p1156
sVMN0000182415
p1157
S'Fugees'
p1158
sVMN0000238322
p1159
S'De La Soul'
p1160
sVMN0000004553
p1161
S'T-Connection'
p1162
sVMN0000058549
p1163
S'Elvis Costello'
p1164
sVMN0000080780
p1165
S'Sheryl Crow'
p1166
sVMN0000812877
p1167
S'Deep Blue Something'
p1168
sVMN0000926237
p1169
S'Third Eye Blind'
p1170
sVMN0000858827
p1171
S'Queen'
p1172
sVMN0000090124
p1173
S'Black Box'
p1174
sVMN0000334644
p1175
S'Jerry Reed'
p1176
sVMN0000260384
p1177
S'Julian Lennon'
p1178
sVMN0001649799
p1179
S'Sonny Charles'
p1180
sVMN0000393031
p1181
S'Ohio Express'
p1182
sVMN0000154544
p1183
S'Green Day'
p1184
sVMN0000332257
p1185
S'Neneh Cherry'
p1186
sVMN0000258882
p1187
S'Jon Secada'
p1188
sVMN0000770059
p1189
S'Born Jamericans'
p1190
sVMN0000282752
p1191
S'Robbie Dupree'
p1192
sVMN0000014651
p1193
S'Patsy Cline'
p1194
sVMN0000858375
p1195
S'Mary Chapin Carpenter'
p1196
sVMN0000343947
p1197
S'Real Life'
p1198
sVMN0000745241
p1199
S'Status Quo'
p1200
sVMN0000201760
p1201
S'George Benson'
p1202
sVMN0000079960
p1203
S'Boston'
p1204
sVMN0000270497
p1205
S'Peter Schilling'
p1206
sVMN0000013384
p1207
S'Tanya Tucker'
p1208
sVMN0000936206
p1209
S'Alabama'
p1210
sVMN0000599732
p1211
S'Arrested Development'
p1212
sVMN0000860561
p1213
S'The Fray'
p1214
sVMN0000270491
p1215
S'Joni Mitchell'
p1216
sVMN0000050520
p1217
S'Bettye Swann'
p1218
sVMN0000791483
p1219
S'Dwight Yoakam'
p1220
sVMN0000029884
p1221
S'Paul McCartney'
p1222
sVMN0000113753
p1223
S'Lauryn Hill'
p1224
sVMN0000792530
p1225
S'Tori Amos'
p1226
sVMN0000068155
p1227
S'The Chantels'
p1228
sVMN0000016227
p1229
S'Tavares'
p1230
sVMN0000418981
p1231
S'The Shirelles'
p1232
sVMN0000289599
p1233
S'Linkin Park'
p1234
sVMN0000758630
p1235
S'Better Than Ezra'
p1236
sVMN0000749167
p1237
S'Trini Lopez'
p1238
sVMN0000296487
p1239
S'Roger Daltrey'
p1240
sVMN0000391586
p1241
S'James Blunt'
p1242
sVMN0000018419
p1243
S'Patti Drew'
p1244
sVMN0000467203
p1245
S'Michael Jackson'
p1246
sVMN0000146841
p1247
S'Cyndi Thomson'
p1248
sVMN0000414251
p1249
S'Otis Redding'
p1250
sVMN0000251595
p1251
S'Whitesnake'
p1252
sVMN0000105129
p1253
S'Collective Soul'
p1254
sVMN0000811622
p1255
S'John Denver'
p1256
sVMN0000664093
p1257
S'Hamilton Bohannon'
p1258
sVMN0000157314
p1259
S'Tag Team'
p1260
sVMN0000094813
p1261
S'Black Rob'
p1262
sVMN0000238069
p1263
S'Robin S.'
p1264
sVMN0000071812
p1265
S'The Four Tops'
p1266
sVMN0000040124
p1267
S'The Ataris'
p1268
sVMN0000898479
p1269
S'The Smithereens'
p1270
sVMN0000072003
p1271
S'Ice-T'
p1272
sVMN0000151979
p1273
S'Bay City Rollers'
p1274
sVMN0000743623
p1275
S'Spacehog'
p1276
sVMN0000325459
p1277
S'R.E.M.'
p1278
sVMN0000778344
p1279
S'LaVern Baker'
p1280
sVMN0000934069
p1281
S'Brenda Lee'
p1282
sVMN0000811897
p1283
S'John Michael Montgomery'
p1284
sVMN0000058361
p1285
S'Betty Everett'
p1286
sVMN0000898188
p1287
S'Mint Condition'
p1288
sVMN0000818200
p1289
S'Westside Connection'
p1290
sVMN0000077732
p1291
S'Bobby Vee'
p1292
sVMN0000308871
p1293
S'Little Anthony & The Imperials'
p1294
sVMN0000084209
p1295
S'Kiss'
p1296
sVMN0000542976
p1297
S'Candi Staton'
p1298
sVMN0000317108
p1299
S'Jeffrey Osborne'
p1300
sVMN0000049367
p1301
S'The Blackbyrds'
p1302
sVMN0000371582
p1303
S'Nappy Roots'
p1304
sVMN0000022928
p1305
S'Steppenwolf'
p1306
sVMN0000227352
p1307
S'Hugo Montenegro'
p1308
sVMN0000536275
p1309
S'Sweet'
p1310
sVMN0000544965
p1311
S'Daniel Powter'
p1312
sVMN0000772526
p1313
S'Irma Thomas'
p1314
sVMN0000463435
p1315
S'Michael Nesmith'
p1316
sVMN0001572321
p1317
S'Tourists'
p1318
sVMN0000129775
p1319
S'Parliament'
p1320
sVMN0000664378
p1321
S'Glen Campbell'
p1322
sVMN0000029808
p1323
S'Tesla'
p1324
sVMN0000987621
p1325
S'Foreigner'
p1326
sVMN0000903609
p1327
S'Jim Reeves'
p1328
sVMN0000053739
p1329
S'Bette Midler'
p1330
sVMN0000892827
p1331
S'The Notorious B.I.G.'
p1332
sVMN0000383889
p1333
S'matchbox twenty'
p1334
sVMN0000097173
p1335
S'Bonnie Tyler'
p1336
sVMN0000738402
p1337
S'Grandmaster Flash'
p1338
sVMN0000622805
p1339
S'Stevie Wonder'
p1340
sVMN0000376204
p1341
S'Mary J. Blige'
p1342
sVMN0000674332
p1343
S'Herb Alpert'
p1344
sVMN0000329468
p1345
S'Jerry Butler'
p1346
sVMN0000459616
p1347
S'Michael McDonald'
p1348
sVMN0000225930
p1349
S'Liz Phair'
p1350
sVMN0000132449
p1351
S'Crystal Gayle'
p1352
sVMN0000600264
p1353
S'Mr. Big'
p1354
sVMN0000000534
p1355
S'All Saints'
p1356
sVMN0000035076
p1357
S'Soul II Soul'
p1358
sVMN0000026952
p1359
S'Smokie Norful'
p1360
sVMN0000038469
p1361
S'Beastie Boys'
p1362
sVMN0000306258
p1363
S'Ludacris'
p1364
sVMN0000612716
p1365
S'Tom Petty'
p1366
sVMN0000293896
p1367
S'Rod Stewart'
p1368
sVMN0000011707
p1369
S'Steely Dan'
p1370
sVMN0000096613
p1371
S'Bonnie Raitt'
p1372
sVMN0000927555
p1373
S'Aretha Franklin'
p1374
sVMN0000894465
p1375
S'The Rolling Stones'
p1376
sVMN0000137390
p1377
S'The Cure'
p1378
sVMN0000294085
p1379
S'Rodney Crowell'
p1380
sVMN0000846113
p1381
S"Philly's Most Wanted"
p1382
sVMN0000175579
p1383
S'Disturbed'
p1384
sVMN0000767016
p1385
S'Keith Sweat'
p1386
sVMN0000049062
p1387
S'Simple Plan'
p1388
sVMN0000196976
p1389
S'Gretchen Wilson'
p1390
sVMN0000354733
p1391
S'Los Lobos'
p1392
sVMN0000200882
p1393
S'Gene Pitney'
p1394
sVMN0000932665
p1395
S'Alanis Morissette'
p1396
sVMN0000608945
p1397
S'Brandy'
p1398
sVMN0000749175
p1399
S'Skeeter Davis'
p1400
sVMN0000119651
p1401
S'J.J. Cale'
p1402
sVMN0000820232
p1403
S'Dick Dale'
p1404
sVMN0000303626
p1405
S'Kansas'
p1406
sVMN0000260212
p1407
S'Pet Shop Boys'
p1408
sVMN0000128440
p1409
S'Duran Duran'
p1410
sVMN0000073806
p1411
S'The Highwaymen'
p1412
sVMN0000128099
p1413
S'James Brown'
p1414
sVMN0000565242
p1415
S'Hedgehoppers Anonymous'
p1416
sVMN0000092942
p1417
S'Chic'
p1418
sVMN0000785101
p1419
S'Bananarama'
p1420
sVMN0000798801
p1421
S'Don Ho'
p1422
sVMN0000037730
p1423
S'Pearl Jam'
p1424
sVMN0000316834
p1425
S'Marvin Gaye'
p1426
sVMN0000224345
p1427
S'Vitamin C'
p1428
sVMN0000007689
p1429
S'TLC'
p1430
sVMN0000227088
p1431
S'Deana Carter'
p1432
sVMN0000674749
p1433
S'The Manhattan Transfer'
p1434
sVMN0000262794
p1435
S'Hootie & The Blowfish'
p1436
sVMN0000081316
p1437
S'Bone Thugs-N-Harmony'
p1438
sVMN0000890724
p1439
S'The Originals'
p1440
sVMN0000001418
p1441
S'T.I.'
p1442
sVMN0000169677
p1443
S'Ernie K-Doe'
p1444
sVMN0000543055
p1445
S'Georgie Fame'
p1446
sVMN0000094205
p1447
S'Chet Atkins'
p1448
sVMN0000139655
p1449
S'Laura Branigan'
p1450
sVMN0000074853
p1451
S'The KLF'
p1452
sVMN0000334770
p1453
S'Ramsey Lewis'
p1454
sVMN0000314050
p1455
S'Narada Michael Walden'
p1456
sVMN0000018513
p1457
S'Paul Hardcastle'
p1458
sVMN0000765595
p1459
S'Backstreet Boys'
p1460
sVMN0000213212
p1461
S'Janis Ian'
p1462
sVMN0000378624
p1463
S'Quincy Jones Featuring Ray Charles '
p1464
sVMN0000866417
p1465
S'Maxi Priest'
p1466
sVMN0000069986
p1467
S'Kenny Rogers'
p1468
sVMN0000258276
p1469
S'Digital Underground'
p1470
sVMN0000182900
p1471
S'Fleetwood Mac'
p1472
sVMN0000262255
p1473
S'Mariah Carey'
p1474
sVMN0000741718
p1475
S'P.M. Dawn'
p1476
sVMN0000130689
p1477
S'Jackson Browne'
p1478
sVMN0000138699
p1479
S'Frank Zappa'
p1480
sVMN0000183311
p1481
S'Fine Young Cannibals'
p1482
sVMN0000072041
p1483
S'Bob Seger'
p1484
sVMN0000228099
p1485
S'Howard Jones'
p1486
sVMN0000359966
p1487
S'Rickie Lee Jones'
p1488
sVMN0000147785
p1489
S'Eve 6'
p1490
sVMN0000065397
p1491
S'Bobbie Gentry'
p1492
sVMN0000074520
p1493
S'The Hives'
p1494
sVMN0000686897
p1495
S'Linda Ronstadt'
p1496
sVMN0000816538
p1497
S'Johnny Bristol'
p1498
sVMN0000848688
p1499
S'J.J. Fad'
p1500
sVMN0000339624
p1501
S'Meat Loaf'
p1502
sVMN0000233228
p1503
S'Lou Rawls'
p1504
sVMN0000768321
p1505
S'INXS'
p1506
sVMN0000144847
p1507
S'Eagles'
p1508
sVMN0000045313
p1509
S'Steve Winwood'
p1510
sVMN0000768328
p1511
S'Kellie Coffey'
p1512
sVMN0000048903
p1513
S'Blu Cantrell'
p1514
sVMN0000546214
p1515
S'Moby Featuring Gwen Stefani'
p1516
sVMN0000110011
p1517
S'Crazy Town'
p1518
sVMN0000280061
p1519
S'Joshua Kadison'
p1520
sVMN0000106882
p1521
S'Lamont Dozier'
p1522
sVMN0000038805
p1523
S'Angie Stone'
p1524
sVMN0000169228
p1525
S'Dionne Farris'
p1526
s.