(dp0
VMN0000295276
p1
c__builtin__
set
p2
((lp3
VMN0000128099
p4
aVMN0000766893
p5
aVMN0000082013
p6
atp7
Rp8
sVMN0000245760
p9
g2
((lp10
VMN0000334770
p11
atp12
Rp13
sVMN0000472925
p14
g2
((lp15
VMN0000075747
p16
aVMN0000105354
p17
atp18
Rp19
sVMN0000530745
p20
g2
((lp21
VMN0000046727
p22
aVMN0000751019
p23
aVMN0000171637
p24
aVMN0000180228
p25
aVMN0000894465
p26
aVMN0000852007
p27
aVMN0000265456
p28
aVMN0000066915
p29
aVMN0000577627
p30
aVMN0000766893
p31
atp32
Rp33
sVMN0000167517
p34
g2
((lp35
VMN0000119651
p36
aVMN0000100160
p37
aVMN0000094205
p38
aVMN0000209142
p39
aVMN0000187478
p40
aVMN0000066915
p41
aVMN0000530745
p42
atp43
Rp44
sVMN0000053606
p45
g2
((lp46
VMN0000071812
p47
aVMN0000316834
p48
aVMN0000766893
p49
atp50
Rp51
sVMN0000008828
p52
g2
((lp53
VMN0000208774
p54
aVMN0000477875
p55
aVMN0000776093
p56
aVMN0000545074
p57
aVMN0000237205
p58
aVMN0000031380
p59
aVMN0000011754
p60
aVMN0000790833
p61
atp62
Rp63
sVMN0000020050
p64
g2
((lp65
VMN0000894465
p66
atp67
Rp68
sVMN0000677781
p69
g2
((lp70
VMN0000046861
p71
aVMN0000128099
p72
aVMN0000824022
p73
atp74
Rp75
sVMN0000239921
p76
g2
((lp77
VMN0000104714
p78
aVMN0000041874
p79
atp80
Rp81
sVMN0000883318
p82
g2
((lp83
VMN0000144458
p84
aVMN0000129775
p85
aVMN0000622805
p86
aVMN0000059101
p87
aVMN0000402872
p88
aVMN0000390390
p89
aVMN0000128099
p90
atp91
Rp92
sVMN0000540010
p93
g2
((lp94
VMN0000328014
p95
atp96
Rp97
sVMN0000799053
p98
g2
((lp99
VMN0000069153
p100
aVMN0000066915
p101
atp102
Rp103
sVMN0000866491
p104
g2
((lp105
VMN0000208774
p106
aVMN0000316834
p107
aVMN0000576718
p108
aVMN0000144458
p109
aVMN0000802302
p110
aVMN0000182360
p111
aVMN0000569685
p112
aVMN0000101946
p113
ag57
aVMN0000361393
p114
aVMN0000622805
p115
aVMN0000279337
p116
aVMN0000208076
p117
aVMN0000149044
p118
aVMN0000046784
p119
atp120
Rp121
sVMN0000553483
p122
g2
((lp123
VMN0000129775
p124
aVMN0000101946
p125
aVMN0000894465
p126
aVMN0000334193
p127
aVMN0000131650
p128
aVMN0000799053
p129
atp130
Rp131
sVMN0000069153
p132
g2
((lp133
VMN0000066915
p134
atp135
Rp136
sVMN0000306258
p137
g2
((lp138
VMN0000420381
p139
aVMN0000537548
p140
aVMN0000502371
p141
aVMN0000614598
p142
aVMN0000029086
p143
aVMN0000224257
p144
atp145
Rp146
sVMN0000049026
p147
g2
((lp148
VMN0000219203
p149
aVMN0000037730
p150
aVMN0000270667
p151
atp152
Rp153
sVMN0000114342
p154
g2
((lp155
VMN0000066915
p156
aVMN0000894465
p157
atp158
Rp159
sVMN0000141838
p160
g2
((lp161
VMN0000316834
p162
aVMN0000577627
p163
aVMN0000751019
p164
aVMN0000478603
p165
atp166
Rp167
sVMN0000186185
p168
g2
((lp169
VMN0000339624
p170
aVMN0000864209
p171
aVMN0000796734
p172
aVMN0000107090
p173
aVMN0000074195
p174
aVMN0000622805
p175
aVMN0000043714
p176
aVMN0000927555
p177
ag60
aVMN0000097173
p178
aVMN0000174557
p179
aVMN0000855531
p180
aVMN0000098081
p181
atp182
Rp183
sVMN0000103484
p184
g2
((lp185
VMN0000069153
p186
aVMN0000213212
p187
aVMN0000492331
p188
aVMN0000130689
p189
aVMN0000270491
p190
aVMN0000198480
p191
aVMN0000066915
p192
aVMN0000325459
p193
aVMN0000204386
p194
atp195
Rp196
sVMN0000078532
p197
g2
((lp198
VMN0000295276
p199
atp200
Rp201
sVMN0000175049
p202
g2
((lp203
VMN0000069534
p204
aVMN0000193320
p205
atp206
Rp207
sVMN0000943827
p208
g2
((lp209
VMN0000043714
p210
aVMN0000038469
p211
aVMN0000583959
p212
aVMN0000325459
p213
aVMN0000124492
p214
atp215
Rp216
sVMN0000136871
p217
g2
((lp218
VMN0000569685
p219
aVMN0000316834
p220
aVMN0000577627
p221
aVMN0000100160
p222
atp223
Rp224
sVMN0000206241
p225
g2
((lp226
VMN0000104714
p227
aVMN0000597309
p228
aVMN0000159214
p229
atp230
Rp231
sVMN0000304401
p232
g2
((lp233
VMN0000066915
p234
aVMN0000087985
p235
aVMN0000100160
p236
atp237
Rp238
sg60
g2
((lp239
VMN0000325401
p240
aVMN0000473554
p241
aVMN0000936190
p242
aVMN0000237205
p243
aVMN0000165011
p244
atp245
Rp246
sVMN0000321321
p247
g2
((lp248
VMN0000043714
p249
aVMN0000934069
p250
aVMN0000597309
p251
atp252
Rp253
sVMN0000959876
p254
g2
((lp255
VMN0000193601
p256
aVMN0000358408
p257
atp258
Rp259
sVMN0000570046
p260
g2
((lp261
VMN0000200882
p262
atp263
Rp264
sVMN0000559405
p265
g2
((lp266
VMN0000113300
p267
atp268
Rp269
sVMN0000051909
p270
g2
((lp271
VMN0000674332
p272
aVMN0000002330
p273
aVMN0000174557
p274
aVMN0000041874
p275
aVMN0000028772
p276
aVMN0000165011
p277
aVMN0000014651
p278
atp279
Rp280
sVMN0000084446
p281
g2
((lp282
VMN0000182360
p283
aVMN0000290072
p284
aVMN0000622805
p285
aVMN0000096613
p286
aVMN0000927555
p287
aVMN0000696015
p288
aVMN0000279337
p289
aVMN0000113753
p290
aVMN0000270491
p291
atp292
Rp293
sVMN0000774588
p294
g2
((lp295
VMN0000583959
p296
aVMN0000816890
p297
aVMN0000066915
p298
aVMN0000894465
p299
atp300
Rp301
sVMN0000119469
p302
g2
((lp303
VMN0000110161
p304
atp305
Rp306
sVMN0000222748
p307
g2
((lp308
VMN0000671953
p309
atp310
Rp311
sVMN0000123754
p312
g2
((lp313
g171
aVMN0000051909
p314
aVMN0000174557
p315
aVMN0000796734
p316
aVMN0000136871
p317
atp318
Rp319
sVMN0000199995
p320
g2
((lp321
g232
atp322
Rp323
sVMN0000358408
p324
g2
((lp325
VMN0000144458
p326
aVMN0000129775
p327
aVMN0000101946
p328
aVMN0000604852
p329
aVMN0000929862
p330
aVMN0000128099
p331
aVMN0000738402
p332
atp333
Rp334
sVMN0000106916
p335
g2
((lp336
VMN0000944084
p337
atp338
Rp339
sVMN0000776371
p340
g2
((lp341
VMN0000865016
p342
aVMN0000467203
p343
atp344
Rp345
sVMN0000664093
p346
g2
((lp347
VMN0000128099
p348
atp349
Rp350
sVMN0000747757
p351
g2
((lp352
VMN0000043714
p353
aVMN0000423267
p354
aVMN0000199995
p355
aVMN0000138699
p356
aVMN0000100160
p357
atp358
Rp359
sVMN0000224257
p360
g2
((lp361
VMN0000921895
p362
aVMN0000678167
p363
aVMN0000113300
p364
ag87
aVMN0000193601
p365
aVMN0000094752
p366
aVMN0000358408
p367
atp368
Rp369
sVMN0000925635
p370
g2
((lp371
VMN0000572579
p372
aVMN0000290072
p373
aVMN0000802302
p374
aVMN0000608945
p375
atp376
Rp377
sVMN0000094752
p378
g2
((lp379
g324
aVMN0000929862
p380
atp381
Rp382
sVMN0000766893
p383
g2
((lp384
VMN0000046861
p385
aVMN0000128099
p386
aVMN0000824022
p387
atp388
Rp389
sVMN0000193320
p390
g2
((lp391
VMN0000536275
p392
aVMN0000923033
p393
aVMN0000163229
p394
aVMN0000796734
p395
aVMN0000079960
p396
aVMN0000604852
p397
aVMN0000987621
p398
aVMN0000749734
p399
ag170
aVMN0000084209
p400
aVMN0000894465
p401
aVMN0000260206
p402
aVMN0000745241
p403
aVMN0000297702
p404
atp405
Rp406
sVMN0000662797
p407
g2
((lp408
VMN0000127063
p409
aVMN0000361393
p410
aVMN0000316834
p411
aVMN0000467203
p412
atp413
Rp414
sVMN0000043714
p415
g2
((lp416
VMN0000852007
p417
aVMN0000041874
p418
aVMN0000180228
p419
ag277
aVMN0000894465
p420
aVMN0000087985
p421
ag274
atp422
Rp423
sVMN0000610339
p424
g2
((lp425
VMN0000219203
p426
aVMN0000325459
p427
aVMN0000898479
p428
atp429
Rp430
sVMN0000749175
p431
g2
((lp432
VMN0000934069
p433
aVMN0000014651
p434
atp435
Rp436
sg17
g2
((lp437
VMN0000041874
p438
aVMN0000232564
p439
aVMN0000100160
p440
aVMN0000894465
p441
aVMN0000029884
p442
aVMN0000577627
p443
aVMN0000064303
p444
atp445
Rp446
sVMN0000334193
p447
g2
((lp448
VMN0000104714
p449
aVMN0000929862
p450
atp451
Rp452
sVMN0000929862
p453
g2
((lp454
VMN0000128099
p455
aVMN0000129775
p456
aVMN0000104714
p457
atp458
Rp459
sVMN0000153526
p460
g2
((lp461
VMN0000180228
p462
atp463
Rp464
sg39
g2
((lp465
VMN0000171637
p466
aVMN0000180228
p467
aVMN0000094205
p468
atp469
Rp470
sVMN0000372322
p471
g2
((lp472
VMN0000270491
p473
atp474
Rp475
sVMN0000852007
p476
g2
((lp477
VMN0000180228
p478
atp479
Rp480
sVMN0000850692
p481
g2
((lp482
VMN0000066915
p483
ag232
aVMN0000012472
p484
atp485
Rp486
sVMN0000361393
p487
g2
((lp488
VMN0000316834
p489
aVMN0000824022
p490
aVMN0000129775
p491
aVMN0000622805
p492
aVMN0000101946
p493
aVMN0000624215
p494
aVMN0000936425
p495
aVMN0000270491
p496
aVMN0000058549
p497
aVMN0000390390
p498
aVMN0000128099
p499
ag383
aVMN0000092942
p500
atp501
Rp502
sVMN0000536275
p503
g2
((lp504
VMN0000569685
p505
aVMN0000100160
p506
aVMN0000894465
p507
aVMN0000087985
p508
aVMN0000071812
p509
aVMN0000577627
p510
aVMN0000751019
p511
atp512
Rp513
sVMN0000317108
p514
g2
((lp515
g277
atp516
Rp517
sVMN0000232564
p518
g2
((lp519
VMN0000418981
p520
aVMN0000824022
p521
aVMN0000852007
p522
aVMN0000180228
p523
aVMN0000066915
p524
aVMN0000766893
p525
atp526
Rp527
sVMN0000624215
p528
g2
((lp529
VMN0000316834
p530
aVMN0000622805
p531
aVMN0000402872
p532
aVMN0000378624
p533
aVMN0000071812
p534
aVMN0000390390
p535
aVMN0000128099
p536
ag383
atp537
Rp538
sVMN0000270667
p539
g2
((lp540
VMN0000219203
p541
aVMN0000842802
p542
aVMN0000131650
p543
aVMN0000114342
p544
aVMN0000325459
p545
aVMN0000066915
p546
atp547
Rp548
sg421
g2
((lp549
VMN0000852007
p550
aVMN0000824022
p551
aVMN0000041874
p552
aVMN0000066915
p553
atp554
Rp555
sVMN0000840348
p556
g2
((lp557
VMN0000604852
p558
aVMN0000084209
p559
aVMN0000894465
p560
aVMN0000260206
p561
aVMN0000806829
p562
ag390
aVMN0000105354
p563
atp564
Rp565
sVMN0000945196
p566
g2
((lp567
VMN0000149515
p568
aVMN0000066915
p569
aVMN0000198480
p570
atp571
Rp572
sVMN0000165077
p573
g2
((lp574
VMN0000780258
p575
aVMN0000005307
p576
aVMN0000113753
p577
atp578
Rp579
sVMN0000406657
p580
g2
((lp581
VMN0000225930
p582
aVMN0000932665
p583
aVMN0000345355
p584
atp585
Rp586
sVMN0000125561
p587
g2
((lp588
VMN0000604852
p589
aVMN0000084209
p590
aVMN0000894465
p591
aVMN0000391933
p592
aVMN0000251595
p593
aVMN0000069534
p594
aVMN0000577627
p595
ag390
atp596
Rp597
sg393
g2
((lp598
VMN0000199995
p599
aVMN0000041874
p600
aVMN0000180228
p601
aVMN0000685647
p602
aVMN0000824022
p603
aVMN0000745964
p604
aVMN0000577627
p605
atp606
Rp607
sVMN0000567624
p608
g2
((lp609
VMN0000246885
p610
ag111
aVMN0000144458
p611
aVMN0000308871
p612
ag277
aVMN0000329468
p613
atp614
Rp615
sVMN0000339624
p616
g2
((lp617
g171
aVMN0000796734
p618
aVMN0000107090
p619
aVMN0000005953
p620
aVMN0000936425
p621
ag20
atp622
Rp623
sVMN0000842802
p624
g2
((lp625
VMN0000402872
p626
aVMN0000128099
p627
aVMN0000502163
p628
atp629
Rp630
sVMN0000294891
p631
g2
((lp632
g324
aVMN0000894847
p633
aVMN0000929862
p634
aVMN0000094752
p635
aVMN0000766893
p636
aVMN0000738402
p637
atp638
Rp639
sVMN0000411761
p640
g2
((lp641
VMN0000260038
p642
atp643
Rp644
sVMN0000830538
p645
g2
((lp646
VMN0000066915
p647
aVMN0000692251
p648
ag523
ag98
atp649
Rp650
sVMN0000019241
p651
g2
((lp652
VMN0000837946
p653
aVMN0000132449
p654
aVMN0000014651
p655
aVMN0000136640
p656
atp657
Rp658
sVMN0000825883
p659
g2
((lp660
VMN0000583959
p661
aVMN0000194063
p662
aVMN0000944084
p663
aVMN0000510805
p664
aVMN0000816890
p665
aVMN0000162487
p666
aVMN0000012180
p667
atp668
Rp669
sVMN0000027136
p670
g2
((lp671
VMN0000208774
p672
aVMN0000237205
p673
atp674
Rp675
sVMN0000988627
p676
g2
((lp677
VMN0000790820
p678
aVMN0000105129
p679
atp680
Rp681
sVMN0000616296
p682
g2
((lp683
VMN0000780258
p684
aVMN0000151979
p685
aVMN0000628467
p686
aVMN0000932665
p687
aVMN0000546214
p688
atp689
Rp690
sVMN0000017387
p691
g2
((lp692
VMN0000784814
p693
aVMN0000041874
p694
aVMN0000936425
p695
atp696
Rp697
sVMN0000934069
p698
g2
((lp699
VMN0000260038
p700
aVMN0000317093
p701
aVMN0000014651
p702
atp703
Rp704
sVMN0000961234
p705
g2
((lp706
g160
aVMN0000136871
p707
aVMN0000745964
p708
aVMN0000012472
p709
aVMN0000011707
p710
atp711
Rp712
sVMN0000096744
p713
g2
((lp714
VMN0000187478
p715
atp716
Rp717
sVMN0000888484
p718
g2
((lp719
VMN0000080780
p720
aVMN0000162269
p721
ag583
atp722
Rp723
sVMN0000797431
p724
g2
((lp725
g76
aVMN0000748222
p726
aVMN0000492331
p727
aVMN0000758444
p728
aVMN0000496487
p729
atp730
Rp731
sVMN0000311674
p732
g2
((lp733
VMN0000316834
p734
aVMN0000477875
p735
aVMN0000100160
p736
aVMN0000799053
p737
aVMN0000082013
p738
atp739
Rp740
sVMN0000208997
p741
g2
((lp742
VMN0000165011
p743
aVMN0000927555
p744
atp745
Rp746
sVMN0000510805
p747
g2
((lp748
VMN0000816890
p749
aVMN0000936206
p750
aVMN0000605375
p751
aVMN0000224186
p752
aVMN0000085915
p753
atp754
Rp755
sVMN0000478603
p756
g2
((lp757
VMN0000575051
p758
aVMN0000894465
p759
aVMN0000751019
p760
aVMN0000100160
p761
aVMN0000041874
p762
atp763
Rp764
sVMN0000134729
p765
g2
((lp766
VMN0000129775
p767
aVMN0000490004
p768
ag324
aVMN0000138699
p769
atp770
Rp771
sVMN0000260206
p772
g2
((lp773
VMN0000659517
p774
aVMN0000577627
p775
aVMN0000311674
p776
aVMN0000669303
p777
aVMN0000604852
p778
aVMN0000138699
p779
aVMN0000084209
p780
aVMN0000005953
p781
aVMN0000187478
p782
aVMN0000690254
p783
aVMN0000100160
p784
atp785
Rp786
sVMN0000490738
p787
g2
((lp788
VMN0000208774
p789
aVMN0000376204
p790
aVMN0000594665
p791
aVMN0000007689
p792
aVMN0000927555
p793
aVMN0000294891
p794
aVMN0000094752
p795
aVMN0000262255
p796
atp797
Rp798
sVMN0000758630
p799
g2
((lp800
VMN0000037730
p801
aVMN0000144847
p802
atp803
Rp804
sVMN0000153103
p805
g2
((lp806
VMN0000270491
p807
aVMN0000378624
p808
aVMN0000045313
p809
aVMN0000101946
p810
atp811
Rp812
sVMN0000325401
p813
g2
((lp814
g698
atp815
Rp816
sVMN0000746666
p817
g2
((lp818
VMN0000927555
p819
aVMN0000477875
p820
atp821
Rp822
sVMN0000594665
p823
g2
((lp824
VMN0000569685
p825
aVMN0000806542
p826
aVMN0000071812
p827
atp828
Rp829
sVMN0000243008
p830
g2
((lp831
VMN0000041874
p832
aVMN0000490004
p833
aVMN0000747757
p834
aVMN0000087179
p835
aVMN0000084209
p836
ag17
aVMN0000058549
p837
aVMN0000260206
p838
atp839
Rp840
sVMN0000156938
p841
g2
((lp842
VMN0000796763
p843
aVMN0000866417
p844
atp845
Rp846
sVMN0000492331
p847
g2
((lp848
VMN0000477875
p849
aVMN0000041874
p850
aVMN0000490004
p851
aVMN0000075747
p852
aVMN0000270491
p853
aVMN0000100160
p854
aVMN0000894465
p855
aVMN0000159214
p856
aVMN0000066915
p857
aVMN0000577627
p858
atp859
Rp860
sVMN0000921965
p861
g2
((lp862
VMN0000171637
p863
aVMN0000820232
p864
aVMN0000094205
p865
atp866
Rp867
sVMN0000758453
p868
g2
((lp869
g484
ag217
ag64
aVMN0000072041
p870
aVMN0000894465
p871
aVMN0000745964
p872
aVMN0000114342
p873
aVMN0000690254
p874
aVMN0000182900
p875
atp876
Rp877
sVMN0000005953
p878
g2
((lp879
g732
aVMN0000022928
p880
aVMN0000041874
p881
aVMN0000138699
p882
aVMN0000100160
p883
aVMN0000894465
p884
aVMN0000772567
p885
aVMN0000114342
p886
aVMN0000577627
p887
aVMN0000066915
p888
atp889
Rp890
sVMN0000033666
p891
g2
((lp892
VMN0000199995
p893
aVMN0000674662
p894
aVMN0000041874
p895
ag232
aVMN0000100160
p896
aVMN0000043714
p897
aVMN0000685647
p898
aVMN0000936425
p899
atp900
Rp901
sVMN0000838524
p902
g2
((lp903
VMN0000894465
p904
ag403
atp905
Rp906
sg142
g2
((lp907
VMN0000128099
p908
aVMN0000502371
p909
aVMN0000029086
p910
aVMN0000200679
p911
atp912
Rp913
sVMN0000852688
p914
g2
((lp915
VMN0000472925
p916
aVMN0000243008
p917
atp918
Rp919
sVMN0000343930
p920
g2
((lp921
VMN0000748222
p922
aVMN0000041874
p923
aVMN0000490004
p924
aVMN0000894465
p925
aVMN0000114342
p926
aVMN0000137390
p927
aVMN0000066915
p928
atp929
Rp930
sVMN0000866417
p931
g2
((lp932
VMN0000316834
p933
ag191
aVMN0000290072
p934
aVMN0000328014
p935
atp936
Rp937
sVMN0000423267
p938
g2
((lp939
VMN0000772526
p940
aVMN0000316834
p941
aVMN0000894465
p942
aVMN0000100160
p943
ag69
atp944
Rp945
sVMN0000775323
p946
g2
((lp947
VMN0000864209
p948
aVMN0000200882
p949
aVMN0000524050
p950
ag476
aVMN0000171637
p951
ag523
aVMN0000820232
p952
aVMN0000203639
p953
atp954
Rp955
sVMN0000087179
p956
g2
((lp957
VMN0000575051
p958
ag685
aVMN0000180228
p959
aVMN0000064303
p960
atp961
Rp962
sVMN0000572579
p963
g2
((lp964
VMN0000260038
p965
aVMN0000802302
p966
aVMN0000594665
p967
aVMN0000290072
p968
aVMN0000165011
p969
aVMN0000927555
p970
aVMN0000542976
p971
aVMN0000411761
p972
atp973
Rp974
sVMN0000128440
p975
g2
((lp976
g112
aVMN0000104714
p977
aVMN0000092942
p978
atp979
Rp980
sVMN0000198162
p981
g2
((lp982
VMN0000046861
p983
aVMN0000317093
p984
aVMN0000210323
p985
aVMN0000577235
p986
atp987
Rp988
sVMN0000281254
p989
g2
((lp990
VMN0000144847
p991
aVMN0000936206
p992
aVMN0000944084
p993
aVMN0000069986
p994
atp995
Rp996
sVMN0000919805
p997
g2
((lp998
VMN0000420381
p999
aVMN0000921895
p1000
aVMN0000373634
p1001
aVMN0000463803
p1002
aVMN0000029086
p1003
aVMN0000224257
p1004
aVMN0000892827
p1005
aVMN0000094752
p1006
atp1007
Rp1008
sVMN0000219203
p1009
g2
((lp1010
g476
aVMN0000066915
p1011
aVMN0000894465
p1012
aVMN0000577627
p1013
aVMN0000075747
p1014
atp1015
Rp1016
sVMN0000098081
p1017
g2
((lp1018
VMN0000246885
p1019
aVMN0000852007
p1020
ag262
ag523
atp1021
Rp1022
sVMN0000780258
p1023
g2
((lp1024
VMN0000208774
p1025
ag168
aVMN0000007689
p1026
ag619
aVMN0000578999
p1027
ag670
aVMN0000237205
p1028
ag52
aVMN0000031380
p1029
ag60
aVMN0000262255
p1030
aVMN0000467203
p1031
atp1032
Rp1033
sVMN0000692251
p1034
g2
((lp1035
VMN0000066915
p1036
atp1037
Rp1038
sVMN0000099246
p1039
g2
((lp1040
VMN0000492331
p1041
aVMN0000748222
p1042
aVMN0000100160
p1043
aVMN0000206241
p1044
ag178
aVMN0000325459
p1045
aVMN0000671953
p1046
atp1047
Rp1048
sVMN0000046784
p1049
g2
((lp1050
g69
atp1051
Rp1052
sg304
g2
((lp1053
VMN0000043714
p1054
aVMN0000041874
p1055
atp1056
Rp1057
sVMN0000100196
p1058
g2
((lp1059
VMN0000359119
p1060
aVMN0000238322
p1061
atp1062
Rp1063
sVMN0000074520
p1064
g2
((lp1065
VMN0000490004
p1066
aVMN0000100160
p1067
aVMN0000894465
p1068
ag17
aVMN0000577627
p1069
aVMN0000751019
p1070
atp1071
Rp1072
sVMN0000934367
p1073
g2
((lp1074
VMN0000037730
p1075
aVMN0000290502
p1076
aVMN0000790820
p1077
aVMN0000270667
p1078
aVMN0000105129
p1079
atp1080
Rp1081
sVMN0000790732
p1082
g2
((lp1083
g628
aVMN0000569685
p1084
aVMN0000100160
p1085
aVMN0000046861
p1086
aVMN0000423267
p1087
aVMN0000087985
p1088
aVMN0000029884
p1089
aVMN0000066915
p1090
atp1091
Rp1092
sVMN0000351227
p1093
g2
((lp1094
g160
aVMN0000085915
p1095
aVMN0000796734
p1096
ag304
ag217
aVMN0000459616
p1097
ag170
aVMN0000144847
p1098
atp1099
Rp1100
sVMN0000188342
p1101
g2
((lp1102
VMN0000046861
p1103
aVMN0000903609
p1104
ag523
atp1105
Rp1106
sVMN0000583959
p1107
g2
((lp1108
VMN0000046861
p1109
aVMN0000066915
p1110
aVMN0000094205
p1111
atp1112
Rp1113
sVMN0000041874
p1114
g2
((lp1115
VMN0000171637
p1116
aVMN0000265456
p1117
atp1118
Rp1119
sg364
g2
((lp1120
VMN0000128099
p1121
aVMN0000929862
p1122
atp1123
Rp1124
sVMN0000696015
p1125
g2
((lp1126
VMN0000927555
p1127
aVMN0000213212
p1128
aVMN0000066915
p1129
aVMN0000270491
p1130
aVMN0000411761
p1131
atp1132
Rp1133
sVMN0000290072
p1134
g2
((lp1135
VMN0000069153
p1136
aVMN0000594665
p1137
aVMN0000165011
p1138
aVMN0000927555
p1139
aVMN0000411761
p1140
aVMN0000066915
p1141
aVMN0000329468
p1142
atp1143
Rp1144
sVMN0000097654
p1145
g2
((lp1146
g698
atp1147
Rp1148
sVMN0000806829
p1149
g2
((lp1150
g920
aVMN0000114342
p1151
aVMN0000137390
p1152
aVMN0000748222
p1153
atp1154
Rp1155
sVMN0000066915
p1156
g2
((lp1157
VMN0000816890
p1158
aVMN0000824022
p1159
ag523
atp1160
Rp1161
sVMN0000233228
p1162
g2
((lp1163
VMN0000317093
p1164
atp1165
Rp1166
sVMN0000856640
p1167
g2
((lp1168
VMN0000127063
p1169
aVMN0000094752
p1170
aVMN0000359119
p1171
ag324
aVMN0000238322
p1172
atp1173
Rp1174
sVMN0000864209
p1175
g2
((lp1176
VMN0000066915
p1177
aVMN0000265456
p1178
ag262
ag523
atp1179
Rp1180
sVMN0000577235
p1181
g2
((lp1182
VMN0000082013
p1183
atp1184
Rp1185
sVMN0000127063
p1186
g2
((lp1187
VMN0000569685
p1188
aVMN0000208076
p1189
ag47
aVMN0000467203
p1190
atp1191
Rp1192
sVMN0000837886
p1193
g2
((lp1194
VMN0000152023
p1195
atp1196
Rp1197
sVMN0000303506
p1198
g2
((lp1199
VMN0000208774
p1200
aVMN0000316834
p1201
aVMN0000322733
p1202
aVMN0000569685
p1203
aVMN0000127063
p1204
aVMN0000622805
p1205
aVMN0000865016
p1206
aVMN0000361393
p1207
aVMN0000101946
p1208
aVMN0000208076
p1209
aVMN0000467203
p1210
atp1211
Rp1212
sVMN0000184091
p1213
g2
((lp1214
VMN0000796734
p1215
aVMN0000130689
p1216
aVMN0000270491
p1217
aVMN0000066915
p1218
aVMN0000530745
p1219
aVMN0000204386
p1220
atp1221
Rp1222
sVMN0000796763
p1223
g2
((lp1224
VMN0000295276
p1225
aVMN0000328014
p1226
atp1227
Rp1228
sVMN0000898828
p1229
g2
((lp1230
VMN0000418981
p1231
ag523
atp1232
Rp1233
sVMN0000162487
p1234
g2
((lp1235
g651
aVMN0000096613
p1236
aVMN0000158309
p1237
ag1213
aVMN0000816890
p1238
ag242
aVMN0000132449
p1239
aVMN0000014651
p1240
aVMN0000136640
p1241
atp1242
Rp1243
sVMN0000047789
p1244
g2
((lp1245
VMN0000325459
p1246
aVMN0000894465
p1247
ag20
aVMN0000224186
p1248
aVMN0000612716
p1249
atp1250
Rp1251
sVMN0000480086
p1252
g2
((lp1253
VMN0000806829
p1254
aVMN0000131650
p1255
atp1256
Rp1257
sVMN0000290502
p1258
g2
((lp1259
VMN0000038469
p1260
aVMN0000358408
p1261
aVMN0000227988
p1262
aVMN0000134729
p1263
aVMN0000790820
p1264
ag254
aVMN0000806829
p1265
ag82
atp1266
Rp1267
sVMN0000345355
p1268
g2
((lp1269
VMN0000219203
p1270
aVMN0000096613
p1271
aVMN0000158309
p1272
aVMN0000270491
p1273
aVMN0000136640
p1274
ag1213
aVMN0000894465
p1275
aVMN0000745964
p1276
aVMN0000224186
p1277
ag178
aVMN0000066915
p1278
ag20
aVMN0000182900
p1279
atp1280
Rp1281
sVMN0000263271
p1282
g2
((lp1283
g426
aVMN0000037730
p1284
atp1285
Rp1286
sVMN0000186978
p1287
g2
((lp1288
VMN0000072003
p1289
atp1290
Rp1291
sVMN0000031380
p1292
g2
((lp1293
VMN0000208774
p1294
aVMN0000011754
p1295
aVMN0000237205
p1296
aVMN0000894847
p1297
ag61
aVMN0000467203
p1298
atp1299
Rp1300
sVMN0000162269
p1301
g2
((lp1302
g651
aVMN0000024944
p1303
ag168
aVMN0000796734
p1304
aVMN0000927555
p1305
aVMN0000132449
p1306
aVMN0000014651
p1307
aVMN0000136640
p1308
atp1309
Rp1310
sVMN0000931015
p1311
g2
((lp1312
VMN0000167517
p1313
ag393
aVMN0000987621
p1314
aVMN0000072041
p1315
aVMN0000894465
p1316
aVMN0000066915
p1317
ag20
atp1318
Rp1319
sVMN0000187478
p1320
g2
((lp1321
VMN0000066915
p1322
aVMN0000119651
p1323
ag611
atp1324
Rp1325
sVMN0000802302
p1326
g2
((lp1327
VMN0000772526
p1328
aVMN0000594665
p1329
aVMN0000622805
p1330
aVMN0000927555
p1331
aVMN0000378624
p1332
ag972
aVMN0000806542
p1333
atp1334
Rp1335
sg191
g2
((lp1336
VMN0000066915
p1337
aVMN0000100160
p1338
aVMN0000411761
p1339
atp1340
Rp1341
sVMN0000898275
p1342
g2
((lp1343
VMN0000158309
p1344
aVMN0000131650
p1345
atp1346
Rp1347
sVMN0000478982
p1348
g2
((lp1349
VMN0000738402
p1350
aVMN0000129775
p1351
aVMN0000622805
p1352
ag87
ag453
aVMN0000128099
p1353
atp1354
Rp1355
sVMN0000208076
p1356
g2
((lp1357
g1164
ag111
aVMN0000316834
p1358
aVMN0000233228
p1359
aVMN0000594665
p1360
aVMN0000101946
p1361
aVMN0000046861
p1362
ag277
aVMN0000927555
p1363
aVMN0000246885
p1364
aVMN0000149044
p1365
aVMN0000378624
p1366
atp1367
Rp1368
sVMN0000801971
p1369
g2
((lp1370
VMN0000029884
p1371
aVMN0000066915
p1372
atp1373
Rp1374
sVMN0000826762
p1375
g2
((lp1376
VMN0000220590
p1377
aVMN0000933772
p1378
aVMN0000920939
p1379
aVMN0000238322
p1380
aVMN0000478982
p1381
aVMN0000332257
p1382
aVMN0000193601
p1383
aVMN0000128099
p1384
atp1385
Rp1386
sVMN0000208774
p1387
g2
((lp1388
g823
aVMN0000802302
p1389
aVMN0000927555
p1390
aVMN0000270491
p1391
aVMN0000361393
p1392
aVMN0000894847
p1393
aVMN0000597309
p1394
aVMN0000622805
p1395
aVMN0000092942
p1396
aVMN0000467203
p1397
atp1398
Rp1399
sVMN0000305468
p1400
g2
((lp1401
VMN0000536275
p1402
aVMN0000604852
p1403
aVMN0000158309
p1404
aVMN0000084209
p1405
aVMN0000391933
p1406
aVMN0000671953
p1407
atp1408
Rp1409
sVMN0000865016
p1410
g2
((lp1411
VMN0000071812
p1412
aVMN0000308871
p1413
aVMN0000467203
p1414
atp1415
Rp1416
sVMN0000894847
p1417
g2
((lp1418
VMN0000418981
p1419
ag111
aVMN0000477875
p1420
ag823
aVMN0000577235
p1421
aVMN0000569685
p1422
aVMN0000927555
p1423
atp1424
Rp1425
sVMN0000920939
p1426
g2
((lp1427
g112
ag22
aVMN0000144458
p1428
ag276
atp1429
Rp1430
sVMN0000020812
p1431
g2
((lp1432
VMN0000604852
p1433
aVMN0000222436
p1434
aVMN0000084209
p1435
ag772
ag593
aVMN0000069534
p1436
ag404
ag390
atp1437
Rp1438
sVMN0000667669
p1439
g2
((lp1440
VMN0000041874
p1441
aVMN0000090124
p1442
atp1443
Rp1444
sg61
g2
((lp1445
VMN0000071812
p1446
aVMN0000013393
p1447
aVMN0000477875
p1448
aVMN0000567624
p1449
aVMN0000092942
p1450
atp1451
Rp1452
sVMN0000585896
p1453
g2
((lp1454
VMN0000167517
p1455
ag20
aVMN0000612716
p1456
aVMN0000075747
p1457
ag1277
aVMN0000058549
p1458
ag1322
aVMN0000325459
p1459
aVMN0000898479
p1460
atp1461
Rp1462
sVMN0000804703
p1463
g2
((lp1464
VMN0000685647
p1465
ag355
atp1466
Rp1467
sVMN0000748222
p1468
g2
((lp1469
VMN0000114342
p1470
aVMN0000075747
p1471
aVMN0000066915
p1472
atp1473
Rp1474
sVMN0000822910
p1475
g2
((lp1476
VMN0000290502
p1477
aVMN0000790820
p1478
aVMN0000883318
p1479
atp1480
Rp1481
sVMN0000147635
p1482
g2
((lp1483
VMN0000325401
p1484
aVMN0000066915
p1485
aVMN0000174557
p1486
aVMN0000159214
p1487
aVMN0000594665
p1488
atp1489
Rp1490
sVMN0000284667
p1491
g2
((lp1492
VMN0000361393
p1493
atp1494
Rp1495
sVMN0000074195
p1496
g2
((lp1497
g1164
aVMN0000927555
p1498
aVMN0000411761
p1499
atp1500
Rp1501
sVMN0000139089
p1502
g2
((lp1503
VMN0000575051
p1504
aVMN0000325459
p1505
aVMN0000390532
p1506
aVMN0000041874
p1507
aVMN0000612716
p1508
atp1509
Rp1510
sVMN0000546214
p1511
g2
((lp1512
VMN0000420381
p1513
aVMN0000883318
p1514
aVMN0000502371
p1515
aVMN0000237205
p1516
aVMN0000361393
p1517
aVMN0000785101
p1518
aVMN0000137390
p1519
ag1450
aVMN0000010458
p1520
atp1521
Rp1522
sVMN0000134600
p1523
g2
((lp1524
g111
aVMN0000316834
p1525
ag108
aVMN0000144458
p1526
aVMN0000920939
p1527
aVMN0000013393
p1528
aVMN0000200074
p1529
aVMN0000101946
p1530
ag1392
aVMN0000622805
p1531
aVMN0000279337
p1532
aVMN0000208076
p1533
aVMN0000149044
p1534
aVMN0000089710
p1535
ag1359
atp1536
Rp1537
sVMN0000751019
p1538
g2
((lp1539
VMN0000046861
p1540
ag1322
ag490
ag523
atp1541
Rp1542
sVMN0000498987
p1543
g2
((lp1544
VMN0000208774
p1545
aVMN0000477875
p1546
aVMN0000237205
p1547
ag276
aVMN0000361393
p1548
ag61
ag633
aVMN0000467203
p1549
atp1550
Rp1551
sVMN0000659517
p1552
g2
((lp1553
VMN0000316834
p1554
ag732
aVMN0000022928
p1555
aVMN0000012472
p1556
aVMN0000072041
p1557
aVMN0000894465
p1558
aVMN0000772567
p1559
aVMN0000577627
p1560
ag1070
atp1561
Rp1562
sVMN0000944084
p1563
g2
((lp1564
g1107
aVMN0000816890
p1565
atp1566
Rp1567
sVMN0000524050
p1568
g2
((lp1569
VMN0000066915
p1570
ag460
aVMN0000232564
p1571
aVMN0000159214
p1572
atp1573
Rp1574
sVMN0000669303
p1575
g2
((lp1576
VMN0000894465
p1577
atp1578
Rp1579
sVMN0000058549
p1580
g2
((lp1581
g476
aVMN0000232564
p1582
ag523
ag1085
aVMN0000894465
p1583
aVMN0000543055
p1584
ag1322
ag1070
atp1585
Rp1586
sVMN0000136640
p1587
g2
((lp1588
VMN0000014651
p1589
atp1590
Rp1591
sVMN0000674662
p1592
g2
((lp1593
VMN0000418981
p1594
aVMN0000548338
p1595
ag490
aVMN0000046861
p1596
aVMN0000894465
p1597
aVMN0000066915
p1598
aVMN0000174557
p1599
atp1600
Rp1601
sVMN0000664459
p1602
g2
((lp1603
VMN0000322733
p1604
aVMN0000220590
p1605
aVMN0000294891
p1606
atp1607
Rp1608
sVMN0000049367
p1609
g2
((lp1610
VMN0000128099
p1611
atp1612
Rp1613
sVMN0000279337
p1614
g2
((lp1615
g1164
ag823
aVMN0000074195
p1616
ag1134
aVMN0000572579
p1617
aVMN0000597309
p1618
aVMN0000622805
p1619
ag972
aVMN0000208076
p1620
aVMN0000149044
p1621
atp1622
Rp1623
sVMN0000626939
p1624
g2
((lp1625
VMN0000029808
p1626
atp1627
Rp1628
sg276
g2
((lp1629
VMN0000043714
p1630
aVMN0000071812
p1631
aVMN0000477875
p1632
aVMN0000203639
p1633
aVMN0000041874
p1634
atp1635
Rp1636
sVMN0000845662
p1637
g2
((lp1638
VMN0000622805
p1639
aVMN0000772526
p1640
ag48
aVMN0000376204
p1641
ag608
ag1134
ag1125
ag611
aVMN0000927555
p1642
ag1617
aVMN0000279337
p1643
ag972
aVMN0000113753
p1644
ag1535
aVMN0000182415
p1645
ag1375
aVMN0000270491
p1646
atp1647
Rp1648
sVMN0000520545
p1649
g2
((lp1650
VMN0000069534
p1651
aVMN0000137390
p1652
atp1653
Rp1654
sVMN0000420381
p1655
g2
((lp1656
VMN0000129775
p1657
ag1392
aVMN0000478982
p1658
ag453
aVMN0000081316
p1659
aVMN0000128099
p1660
atp1661
Rp1662
sg628
g2
((lp1663
VMN0000043714
p1664
aVMN0000100160
p1665
aVMN0000087985
p1666
aVMN0000138699
p1667
aVMN0000304401
p1668
atp1669
Rp1670
sVMN0000220194
p1671
g2
((lp1672
VMN0000129775
p1673
aVMN0000766893
p1674
aVMN0000072003
p1675
atp1676
Rp1677
sVMN0000298764
p1678
g2
((lp1679
VMN0000545074
p1680
ag1575
aVMN0000237205
p1681
atp1682
Rp1683
sVMN0000046823
p1684
g2
((lp1685
VMN0000892827
p1686
atp1687
Rp1688
sg111
g2
((lp1689
VMN0000316834
p1690
aVMN0000144458
p1691
aVMN0000232564
p1692
aVMN0000101946
p1693
aVMN0000082013
p1694
aVMN0000927555
p1695
aVMN0000622805
p1696
aVMN0000128099
p1697
aVMN0000174557
p1698
ag1359
atp1699
Rp1700
sVMN0000344609
p1701
g2
((lp1702
g122
aVMN0000678339
p1703
aVMN0000134729
p1704
atp1705
Rp1706
sVMN0000835585
p1707
g2
((lp1708
VMN0000084209
p1709
ag393
aVMN0000604852
p1710
aVMN0000671953
p1711
atp1712
Rp1713
sVMN0000661795
p1714
g2
((lp1715
VMN0000193601
p1716
aVMN0000224257
p1717
aVMN0000358408
p1718
aVMN0000921895
p1719
atp1720
Rp1721
sVMN0000029600
p1722
g2
((lp1723
VMN0000058549
p1724
aVMN0000038469
p1725
aVMN0000070800
p1726
aVMN0000883318
p1727
aVMN0000768321
p1728
atp1729
Rp1730
sVMN0000635466
p1731
g2
((lp1732
VMN0000420381
p1733
aVMN0000029086
p1734
aVMN0000502371
p1735
aVMN0000921895
p1736
ag1262
atp1737
Rp1738
sVMN0000203639
p1739
g2
((lp1740
g476
aVMN0000424296
p1741
aVMN0000200882
p1742
ag523
atp1743
Rp1744
sVMN0000618713
p1745
g2
((lp1746
g393
atp1747
Rp1748
sVMN0000070800
p1749
g2
((lp1750
VMN0000894465
p1751
aVMN0000577627
p1752
aVMN0000114342
p1753
ag523
aVMN0000075747
p1754
atp1755
Rp1756
sVMN0000376613
p1757
g2
((lp1758
VMN0000359119
p1759
aVMN0000238322
p1760
atp1761
Rp1762
sVMN0000758444
p1763
g2
((lp1764
VMN0000423267
p1765
aVMN0000100160
p1766
aVMN0000075747
p1767
aVMN0000128440
p1768
aVMN0000790732
p1769
aVMN0000678339
p1770
ag1089
ag920
aVMN0000577627
p1771
atp1772
Rp1773
sVMN0000317865
p1774
g2
((lp1775
VMN0000856640
p1776
ag106
ag375
aVMN0000237205
p1777
aVMN0000008828
p1778
ag1292
ag61
aVMN0000294891
p1779
aVMN0000765595
p1780
ag787
aVMN0000262255
p1781
aVMN0000467203
p1782
atp1783
Rp1784
sVMN0000605375
p1785
g2
((lp1786
g1213
aVMN0000144847
p1787
aVMN0000944084
p1788
atp1789
Rp1790
sVMN0000936425
p1791
g2
((lp1792
VMN0000316834
p1793
aVMN0000144458
p1794
ag1114
aVMN0000100160
p1795
aVMN0000622805
p1796
ag1465
aVMN0000087985
p1797
aVMN0000066915
p1798
aVMN0000577627
p1799
aVMN0000174557
p1800
atp1801
Rp1802
sVMN0000894962
p1803
g2
((lp1804
VMN0000184811
p1805
ag76
aVMN0000260212
p1806
aVMN0000041874
p1807
ag447
atp1808
Rp1809
sVMN0000496487
p1810
g2
((lp1811
VMN0000337119
p1812
atp1813
Rp1814
sVMN0000414889
p1815
g2
((lp1816
VMN0000325459
p1817
atp1818
Rp1819
sVMN0000024944
p1820
g2
((lp1821
g304
aVMN0000502163
p1822
aVMN0000270491
p1823
aVMN0000147635
p1824
aVMN0000213212
p1825
aVMN0000132449
p1826
aVMN0000174557
p1827
aVMN0000696015
p1828
atp1829
Rp1830
sVMN0000776093
p1831
g2
((lp1832
VMN0000163229
p1833
aVMN0000237205
p1834
aVMN0000043714
p1835
aVMN0000473554
p1836
aVMN0000260212
p1837
aVMN0000334193
p1838
ag1520
atp1839
Rp1840
sVMN0000754251
p1841
g2
((lp1842
VMN0000058549
p1843
aVMN0000066915
p1844
ag1482
aVMN0000270491
p1845
aVMN0000131650
p1846
atp1847
Rp1848
sg1085
g2
((lp1849
VMN0000824022
p1850
atp1851
Rp1852
sg1434
g2
((lp1853
VMN0000041874
p1854
aVMN0000604852
p1855
aVMN0000138699
p1856
aVMN0000084209
p1857
aVMN0000005953
p1858
aVMN0000105354
p1859
aVMN0000114342
p1860
aVMN0000100160
p1861
aVMN0000830538
p1862
atp1863
Rp1864
sVMN0000005307
p1865
g2
((lp1866
VMN0000208774
p1867
aVMN0000316834
p1868
aVMN0000376204
p1869
ag1026
ag1616
aVMN0000290072
p1870
aVMN0000622805
p1871
ag277
aVMN0000361393
p1872
aVMN0000224257
p1873
aVMN0000164053
p1874
aVMN0000101946
p1875
aVMN0000279337
p1876
aVMN0000411761
p1877
aVMN0000113753
p1878
aVMN0000134600
p1879
aVMN0000927555
p1880
aVMN0000866491
p1881
atp1882
Rp1883
sg242
g2
((lp1884
VMN0000066915
p1885
aVMN0000477875
p1886
aVMN0000174557
p1887
aVMN0000204386
p1888
aVMN0000130689
p1889
atp1890
Rp1891
sg1520
g2
((lp1892
VMN0000325401
p1893
aVMN0000934069
p1894
aVMN0000159214
p1895
atp1896
Rp1897
sVMN0000184811
p1898
g2
((lp1899
VMN0000842802
p1900
ag977
aVMN0000334193
p1901
atp1902
Rp1903
sVMN0000516202
p1904
g2
((lp1905
VMN0000180228
p1906
atp1907
Rp1908
sVMN0000341672
p1909
g2
((lp1910
g1726
aVMN0000163229
p1911
ag1728
aVMN0000237205
p1912
ag1768
aVMN0000790732
p1913
aVMN0000361393
p1914
aVMN0000131650
p1915
aVMN0000496487
p1916
ag82
atp1917
Rp1918
sVMN0000158309
p1919
g2
((lp1920
VMN0000671953
p1921
ag242
aVMN0000894465
p1922
aVMN0000987621
p1923
ag523
atp1924
Rp1925
sVMN0000402872
p1926
g2
((lp1927
VMN0000128099
p1928
aVMN0000169677
p1929
atp1930
Rp1931
sVMN0000023925
p1932
g2
((lp1933
VMN0000204386
p1934
atp1935
Rp1936
sVMN0000270162
p1937
g2
((lp1938
VMN0000614598
p1939
aVMN0000322733
p1940
aVMN0000306258
p1941
aVMN0000921895
p1942
atp1943
Rp1944
sg55
g2
((lp1945
VMN0000260038
p1946
aVMN0000308871
p1947
atp1948
Rp1949
sVMN0000000441
p1950
g2
((lp1951
VMN0000806829
p1952
aVMN0000038469
p1953
ag678
aVMN0000883318
p1954
aVMN0000134729
p1955
atp1956
Rp1957
sVMN0000545074
p1958
g2
((lp1959
VMN0000151979
p1960
aVMN0000316834
p1961
aVMN0000796734
p1962
aVMN0000524050
p1963
ag523
ag1392
ag460
aVMN0000645474
p1964
aVMN0000467203
p1965
atp1966
Rp1967
sVMN0000167361
p1968
g2
((lp1969
g1186
ag1410
aVMN0000262255
p1970
atp1971
Rp1972
sVMN0000101946
p1973
g2
((lp1974
VMN0000198162
p1975
aVMN0000329468
p1976
aVMN0000128099
p1977
aVMN0000316834
p1978
atp1979
Rp1980
sVMN0000463803
p1981
g2
((lp1982
g324
atp1983
Rp1984
sVMN0000628467
p1985
g2
((lp1986
g106
ag1831
ag1026
ag619
ag1027
ag670
aVMN0000237205
p1987
ag52
aVMN0000473554
p1988
ag1292
ag60
aVMN0000765595
p1989
aVMN0000298764
p1990
aVMN0000262255
p1991
aVMN0000467203
p1992
atp1993
Rp1994
sVMN0000563349
p1995
g2
((lp1996
VMN0000774588
p1997
atp1998
Rp1999
sVMN0000475431
p2000
g2
((lp2001
VMN0000816890
p2002
ag523
aVMN0000852007
p2003
atp2004
Rp2005
sVMN0000149515
p2006
g2
((lp2007
VMN0000824022
p2008
ag986
aVMN0000046861
p2009
aVMN0000894465
p2010
ag69
aVMN0000128099
p2011
ag1070
aVMN0000066915
p2012
atp2013
Rp2014
sVMN0000136075
p2015
g2
((lp2016
VMN0000548338
p2017
ag11
atp2018
Rp2019
sVMN0000773642
p2020
g2
((lp2021
VMN0000128099
p2022
aVMN0000921965
p2023
aVMN0000180228
p2024
aVMN0000677781
p2025
atp2026
Rp2027
sVMN0000604852
p2028
g2
((lp2029
VMN0000577627
p2030
ag1068
aVMN0000805661
p2031
ag1085
aVMN0000128099
p2032
atp2033
Rp2034
sVMN0000183311
p2035
g2
((lp2036
VMN0000180228
p2037
atp2038
Rp2039
sVMN0000817011
p2040
g2
((lp2041
VMN0000066915
p2042
aVMN0000129775
p2043
atp2044
Rp2045
sVMN0000829523
p2046
g2
((lp2047
VMN0000183311
p2048
atp2049
Rp2050
sVMN0000473554
p2051
g2
((lp2052
VMN0000246885
p2053
aVMN0000325401
p2054
aVMN0000934069
p2055
ag415
ag431
ag247
atp2056
Rp2057
sVMN0000267814
p2058
g2
((lp2059
VMN0000043714
p2060
aVMN0000071812
p2061
aVMN0000128099
p2062
aVMN0000144458
p2063
atp2064
Rp2065
sVMN0000164053
p2066
g2
((lp2067
g106
aVMN0000376204
p2068
ag823
ag1389
ag1134
aVMN0000892827
p2069
aVMN0000262255
p2070
atp2071
Rp2072
sVMN0000772567
p2073
g2
((lp2074
VMN0000114342
p2075
aVMN0000894465
p2076
ag1070
aVMN0000311674
p2077
atp2078
Rp2079
sVMN0000131650
p2080
g2
((lp2081
g1926
ag977
aVMN0000129775
p2082
aVMN0000128099
p2083
atp2084
Rp2085
sg1528
g2
((lp2086
VMN0000128099
p2087
aVMN0000766893
p2088
aVMN0000316834
p2089
aVMN0000677781
p2090
atp2091
Rp2092
sVMN0000046814
p2093
g2
((lp2094
VMN0000583959
p2095
aVMN0000510805
p2096
ag721
aVMN0000081619
p2097
atp2098
Rp2099
sVMN0000933772
p2100
g2
((lp2101
VMN0000113300
p2102
ag1716
ag324
aVMN0000929862
p2103
atp2104
Rp2105
sVMN0000091549
p2106
g2
((lp2107
VMN0000137390
p2108
aVMN0000790820
p2109
ag539
ag1950
atp2110
Rp2111
sVMN0000963005
p2112
g2
((lp2113
VMN0000621639
p2114
aVMN0000094752
p2115
ag324
aVMN0000622805
p2116
ag364
atp2117
Rp2118
sg535
g2
((lp2119
VMN0000569685
p2120
aVMN0000128099
p2121
aVMN0000766893
p2122
aVMN0000144458
p2123
aVMN0000622805
p2124
atp2125
Rp2126
sVMN0000297702
p2127
g2
((lp2128
VMN0000659517
p2129
aVMN0000304401
p2130
aVMN0000820232
p2131
aVMN0000005953
p2132
aVMN0000577627
p2133
aVMN0000830538
p2134
atp2135
Rp2136
sVMN0000002330
p2137
g2
((lp2138
VMN0000041874
p2139
atp2140
Rp2141
sg22
g2
((lp2142
VMN0000569685
p2143
aVMN0000128099
p2144
aVMN0000082013
p2145
atp2146
Rp2147
sVMN0000832833
p2148
g2
((lp2149
g247
atp2150
Rp2151
sVMN0000490004
p2152
g2
((lp2153
g503
aVMN0000151979
p2154
ag1114
aVMN0000749734
p2155
aVMN0000005953
p2156
aVMN0000894465
p2157
aVMN0000577627
p2158
atp2159
Rp2160
sVMN0000757085
p2161
g2
((lp2162
VMN0000041874
p2163
aVMN0000087985
p2164
ag17
aVMN0000159214
p2165
ag847
atp2166
Rp2167
sVMN0000081619
p2168
g2
((lp2169
VMN0000167517
p2170
aVMN0000796734
p2171
ag1788
aVMN0000351227
p2172
aVMN0000094205
p2173
aVMN0000605375
p2174
aVMN0000187478
p2175
ag666
aVMN0000182900
p2176
atp2177
Rp2178
sg1086
g2
((lp2179
VMN0000317093
p2180
atp2181
Rp2182
sVMN0000685647
p2183
g2
((lp2184
VMN0000066915
p2185
aVMN0000041874
p2186
aVMN0000100160
p2187
ag232
ag732
atp2188
Rp2189
sVMN0000608945
p2190
g2
((lp2191
g106
ag2068
ag1389
aVMN0000007689
p2192
aVMN0000498987
p2193
aVMN0000262255
p2194
atp2195
Rp2196
sVMN0000665860
p2197
g2
((lp2198
g1626
aVMN0000084209
p2199
aVMN0000490004
p2200
aVMN0000604852
p2201
aVMN0000114342
p2202
atp2203
Rp2204
sVMN0000479149
p2205
g2
((lp2206
VMN0000806829
p2207
aVMN0000842802
p2208
aVMN0000137390
p2209
atp2210
Rp2211
sVMN0000194063
p2212
g2
((lp2213
g651
aVMN0000605375
p2214
ag721
aVMN0000136640
p2215
atp2216
Rp2217
sVMN0000373634
p2218
g2
((lp2219
VMN0000193601
p2220
ag366
ag364
aVMN0000478982
p2221
atp2222
Rp2223
sVMN0000926237
p2224
g2
((lp2225
g160
aVMN0000219203
p2226
ag1728
aVMN0000612716
p2227
aVMN0000037730
p2228
aVMN0000949630
p2229
aVMN0000262794
p2230
aVMN0000075747
p2231
aVMN0000361393
p2232
aVMN0000806829
p2233
aVMN0000184043
p2234
ag875
atp2235
Rp2236
sVMN0000359119
p2237
g2
((lp2238
VMN0000929862
p2239
ag364
aVMN0000358408
p2240
atp2241
Rp2242
sVMN0000219428
p2243
g2
((lp2244
VMN0000072041
p2245
atp2246
Rp2247
sVMN0000029884
p2248
g2
((lp2249
VMN0000824022
p2250
ag523
atp2251
Rp2252
sVMN0000184043
p2253
g2
((lp2254
g497
aVMN0000084209
p2255
ag17
ag1767
atp2256
Rp2257
sg1535
g2
((lp2258
VMN0000317093
p2259
aVMN0000329468
p2260
atp2261
Rp2262
sVMN0000085915
p2263
g2
((lp2264
g490
ag171
aVMN0000796734
p2265
ag277
aVMN0000046861
p2266
aVMN0000071812
p2267
aVMN0000265456
p2268
aVMN0000029884
p2269
aVMN0000066915
p2270
ag274
atp2271
Rp2272
sVMN0000137390
p2273
g2
((lp2274
VMN0000748222
p2275
aVMN0000075747
p2276
aVMN0000100160
p2277
atp2278
Rp2279
sVMN0000171637
p2280
g2
((lp2281
VMN0000094205
p2282
atp2283
Rp2284
sVMN0000129775
p2285
g2
((lp2286
VMN0000569685
p2287
aVMN0000128099
p2288
aVMN0000138699
p2289
aVMN0000082013
p2290
atp2291
Rp2292
sVMN0000322733
p2293
g2
((lp2294
VMN0000208076
p2295
aVMN0000361393
p2296
atp2297
Rp2298
sVMN0000200074
p2299
g2
((lp2300
VMN0000659517
p2301
aVMN0000316834
p2302
aVMN0000144458
p2303
ag1582
aVMN0000622805
p2304
ag1392
aVMN0000894465
p2305
aVMN0000187478
p2306
aVMN0000058549
p2307
atp2308
Rp2309
sVMN0000026952
p2310
g2
((lp2311
VMN0000182360
p2312
aVMN0000316834
p2313
aVMN0000622805
p2314
aVMN0000577235
p2315
atp2316
Rp2317
sVMN0000149044
p2318
g2
((lp2319
VMN0000477875
p2320
ag1359
ag1086
ag1975
aVMN0000378624
p2321
aVMN0000071812
p2322
atp2323
Rp2324
sVMN0000737886
p2325
g2
((lp2326
g1455
ag57
aVMN0000775323
p2327
aVMN0000351227
p2328
aVMN0000765595
p2329
aVMN0000258882
p2330
aVMN0000467203
p2331
atp2332
Rp2333
sVMN0000361014
p2334
g2
((lp2335
g1757
ag324
ag909
aVMN0000373634
p2336
ag2293
ag1717
aVMN0000478982
p2337
ag1375
atp2338
Rp2339
sVMN0000010412
p2340
g2
((lp2341
VMN0000036106
p2342
ag1528
ag484
ag64
aVMN0000745964
p2343
aVMN0000128099
p2344
aVMN0000066915
p2345
atp2346
Rp2347
sVMN0000138407
p2348
g2
((lp2349
VMN0000569685
p2350
aVMN0000316834
p2351
aVMN0000329468
p2352
atp2353
Rp2354
sVMN0000029086
p2355
g2
((lp2356
VMN0000149044
p2357
aVMN0000138407
p2358
ag2285
aVMN0000738402
p2359
aVMN0000072003
p2360
atp2361
Rp2362
sVMN0000159214
p2363
g2
((lp2364
VMN0000418981
p2365
ag262
aVMN0000594665
p2366
aVMN0000927555
p2367
ag971
aVMN0000806542
p2368
aVMN0000930722
p2369
atp2370
Rp2371
sg611
g2
((lp2372
VMN0000317093
p2373
aVMN0000128099
p2374
atp2375
Rp2376
sVMN0000040743
p2377
g2
((lp2378
VMN0000184043
p2379
aVMN0000604852
p2380
aVMN0000577627
p2381
aVMN0000490004
p2382
aVMN0000075747
p2383
atp2384
Rp2385
sVMN0000774145
p2386
g2
((lp2387
VMN0000208774
p2388
aVMN0000031380
p2389
aVMN0000572579
p2390
aVMN0000279337
p2391
aVMN0000594665
p2392
atp2393
Rp2394
sg484
g2
((lp2395
VMN0000046861
p2396
aVMN0000066915
p2397
aVMN0000751019
p2398
aVMN0000543055
p2399
atp2400
Rp2401
sVMN0000805661
p2402
g2
((lp2403
VMN0000423267
p2404
aVMN0000894465
p2405
ag1070
aVMN0000182900
p2406
atp2407
Rp2408
sVMN0000645474
p2409
g2
((lp2410
VMN0000894465
p2411
aVMN0000100160
p2412
aVMN0000799053
p2413
aVMN0000153526
p2414
atp2415
Rp2416
sVMN0000049774
p2417
g2
((lp2418
g1186
aVMN0000467203
p2419
atp2420
Rp2421
sg1377
g2
((lp2422
VMN0000358408
p2423
atp2424
Rp2425
sg1741
g2
((lp2426
VMN0000852007
p2427
aVMN0000180228
p2428
atp2429
Rp2430
sVMN0000075747
p2431
g2
((lp2432
VMN0000295276
p2433
aVMN0000490004
p2434
aVMN0000749734
p2435
ag523
aVMN0000066915
p2436
aVMN0000577627
p2437
atp2438
Rp2439
sVMN0000224186
p2440
g2
((lp2441
VMN0000583959
p2442
aVMN0000624215
p2443
aVMN0000751019
p2444
aVMN0000072041
p2445
aVMN0000894465
p2446
ag1322
ag20
aVMN0000766893
p2447
atp2448
Rp2449
sg678
g2
((lp2450
VMN0000806829
p2451
aVMN0000134729
p2452
aVMN0000391933
p2453
atp2454
Rp2455
sg228
g2
((lp2456
VMN0000806542
p2457
aVMN0000046861
p2458
aVMN0000128099
p2459
aVMN0000894465
p2460
atp2461
Rp2462
sVMN0000153443
p2463
g2
((lp2464
VMN0000892827
p2465
ag366
ag1717
aVMN0000373634
p2466
atp2467
Rp2468
sVMN0000690254
p2469
g2
((lp2470
VMN0000894465
p2471
aVMN0000577627
p2472
aVMN0000187478
p2473
atp2474
Rp2475
sVMN0000194246
p2476
g2
((lp2477
g847
ag1468
ag1039
aVMN0000334193
p2478
aVMN0000137390
p2479
ag225
atp2480
Rp2481
sVMN0000246885
p2482
g2
((lp2483
g1164
atp2484
Rp2485
sVMN0000749734
p2486
g2
((lp2487
VMN0000100160
p2488
aVMN0000894465
p2489
aVMN0000751019
p2490
aVMN0000577627
p2491
aVMN0000677781
p2492
atp2493
Rp2494
sVMN0000773442
p2495
g2
((lp2496
VMN0000963005
p2497
ag366
aVMN0000306258
p2498
aVMN0000029086
p2499
atp2500
Rp2501
sg277
g2
((lp2502
g1419
aVMN0000927555
p2503
atp2504
Rp2505
sVMN0000678339
p2506
g2
((lp2507
VMN0000163229
p2508
ag1114
ag1085
ag484
ag899
aVMN0000075747
p2509
ag628
aVMN0000066915
p2510
aVMN0000064303
p2511
atp2512
Rp2513
sg1195
g2
((lp2514
VMN0000037730
p2515
atp2516
Rp2517
sVMN0000577627
p2518
g2
((lp2519
VMN0000041874
p2520
aVMN0000921965
p2521
ag1085
aVMN0000894465
p2522
ag69
aVMN0000128099
p2523
atp2524
Rp2525
sVMN0000337119
p2526
g2
((lp2527
VMN0000316834
p2528
aVMN0000477875
p2529
aVMN0000796734
p2530
ag823
aVMN0000071812
p2531
aVMN0000543055
p2532
ag1089
atp2533
Rp2534
sVMN0000740499
p2535
g2
((lp2536
VMN0000094752
p2537
atp2538
Rp2539
sVMN0000537548
p2540
g2
((lp2541
g366
ag324
aVMN0000200679
p2542
atp2543
Rp2544
sVMN0000949630
p2545
g2
((lp2546
g204
aVMN0000325459
p2547
ag2434
ag17
aVMN0000612716
p2548
atp2549
Rp2550
sVMN0000178799
p2551
g2
((lp2552
VMN0000604852
p2553
ag678
aVMN0000134729
p2554
atp2555
Rp2556
sVMN0000745964
p2557
g2
((lp2558
VMN0000894465
p2559
aVMN0000094205
p2560
atp2561
Rp2562
sVMN0000806542
p2563
g2
((lp2564
VMN0000260038
p2565
atp2566
Rp2567
sg274
g2
((lp2568
VMN0000824022
p2569
aVMN0000180228
p2570
atp2571
Rp2572
sVMN0000204386
p2573
g2
((lp2574
VMN0000174557
p2575
aVMN0000066915
p2576
aVMN0000087985
p2577
aVMN0000100160
p2578
atp2579
Rp2580
sVMN0000576718
p2581
g2
((lp2582
VMN0000316834
p2583
aVMN0000144458
p2584
aVMN0000545074
p2585
aVMN0000129775
p2586
aVMN0000622805
p2587
ag624
ag1392
aVMN0000206241
p2588
aVMN0000467203
p2589
atp2590
Rp2591
sg985
g2
((lp2592
VMN0000128099
p2593
atp2594
Rp2595
sVMN0000796734
p2596
g2
((lp2597
g490
aVMN0000674662
p2598
aVMN0000575051
p2599
aVMN0000041874
p2600
aVMN0000100160
p2601
ag523
ag277
aVMN0000894465
p2602
aVMN0000087985
p2603
aVMN0000159214
p2604
aVMN0000066915
p2605
ag460
ag274
atp2606
Rp2607
sVMN0000575051
p2608
g2
((lp2609
VMN0000852007
p2610
aVMN0000041874
p2611
ag421
aVMN0000180228
p2612
aVMN0000169677
p2613
atp2614
Rp2615
sg1183
g2
((lp2616
VMN0000071812
p2617
atp2618
Rp2619
sVMN0000212614
p2620
g2
((lp2621
VMN0000622805
p2622
atp2623
Rp2624
sVMN0000021128
p2625
g2
((lp2626
g2293
atp2627
Rp2628
sVMN0000239827
p2629
g2
((lp2630
g1095
aVMN0000130689
p2631
aVMN0000961234
p2632
aVMN0000010412
p2633
aVMN0000949630
p2634
aVMN0000270491
p2635
aVMN0000383889
p2636
aVMN0000926237
p2637
ag566
aVMN0000066915
p2638
ag2573
atp2639
Rp2640
sVMN0000748994
p2641
g2
((lp2642
VMN0000892827
p2643
aVMN0000921895
p2644
aVMN0000072003
p2645
atp2646
Rp2647
sVMN0000255576
p2648
g2
((lp2649
VMN0000835585
p2650
atp2651
Rp2652
sVMN0000390532
p2653
g2
((lp2654
VMN0000678339
p2655
ag628
aVMN0000138699
p2656
aVMN0000131650
p2657
atp2658
Rp2659
sVMN0000124492
p2660
g2
((lp2661
VMN0000038469
p2662
aVMN0000354733
p2663
aVMN0000358408
p2664
aVMN0000104714
p2665
aVMN0000232564
p2666
aVMN0000238322
p2667
aVMN0000816890
p2668
ag1392
ag2657
aVMN0000066915
p2669
aVMN0000325459
p2670
aVMN0000883318
p2671
aVMN0000128099
p2672
atp2673
Rp2674
sVMN0000467382
p2675
g2
((lp2676
VMN0000041874
p2677
aVMN0000790732
p2678
ag2655
ag899
aVMN0000058549
p2679
aVMN0000066915
p2680
aVMN0000064303
p2681
atp2682
Rp2683
sVMN0000784814
p2684
g2
((lp2685
g426
aVMN0000842802
p2686
aVMN0000325459
p2687
ag875
atp2688
Rp2689
sVMN0000163229
p2690
g2
((lp2691
VMN0000043714
p2692
aVMN0000087985
p2693
ag39
aVMN0000041874
p2694
ag232
atp2695
Rp2696
sVMN0000260384
p2697
g2
((lp2698
VMN0000085915
p2699
ag1582
aVMN0000182900
p2700
atp2701
Rp2702
sg653
g2
((lp2703
VMN0000014651
p2704
aVMN0000136640
p2705
atp2706
Rp2707
sVMN0000391933
p2708
g2
((lp2709
g2129
ag732
aVMN0000304401
p2710
aVMN0000772567
p2711
aVMN0000187478
p2712
aVMN0000805661
p2713
atp2714
Rp2715
sVMN0000193601
p2716
g2
((lp2717
VMN0000220590
p2718
aVMN0000358408
p2719
ag364
ag366
aVMN0000738402
p2720
aVMN0000072003
p2721
atp2722
Rp2723
sVMN0000012180
p2724
g2
((lp2725
VMN0000944084
p2726
atp2727
Rp2728
sVMN0000671953
p2729
g2
((lp2730
VMN0000659517
p2731
aVMN0000022928
p2732
aVMN0000270491
p2733
aVMN0000894465
p2734
ag2030
aVMN0000182900
p2735
atp2736
Rp2737
sVMN0000303061
p2738
g2
((lp2739
g1776
ag2069
atp2740
Rp2741
sVMN0000921895
p2742
g2
((lp2743
VMN0000094752
p2744
ag364
aVMN0000072003
p2745
atp2746
Rp2747
sVMN0000107090
p2748
g2
((lp2749
VMN0000418981
p2750
aVMN0000325401
p2751
aVMN0000477875
p2752
ag181
aVMN0000180228
p2753
ag247
aVMN0000014651
p2754
atp2755
Rp2756
sg1262
g2
((lp2757
VMN0000038469
p2758
aVMN0000358408
p2759
aVMN0000072003
p2760
atp2761
Rp2762
sVMN0000069986
p2763
g2
((lp2764
VMN0000903609
p2765
aVMN0000816890
p2766
ag276
atp2767
Rp2768
sVMN0000182415
p2769
g2
((lp2770
VMN0000741718
p2771
aVMN0000933772
p2772
aVMN0000290072
p2773
aVMN0000238322
p2774
aVMN0000478982
p2775
aVMN0000411761
p2776
aVMN0000193601
p2777
ag1375
aVMN0000359119
p2778
atp2779
Rp2780
sVMN0000238322
p2781
g2
((lp2782
g324
aVMN0000129775
p2783
aVMN0000622805
p2784
ag453
aVMN0000402872
p2785
aVMN0000128099
p2786
aVMN0000738402
p2787
atp2788
Rp2789
sVMN0000069534
p2790
g2
((lp2791
g2129
aVMN0000141838
p2792
ag1314
ag393
aVMN0000079960
p2793
aVMN0000604852
p2794
aVMN0000224186
p2795
ag170
aVMN0000084209
p2796
aVMN0000005953
p2797
ag772
aVMN0000894465
p2798
ag20
ag404
atp2799
Rp2800
sVMN0000080780
p2801
g2
((lp2802
g1277
ag191
aVMN0000066915
p2803
ag1369
ag1455
ag270
ag1213
aVMN0000204386
p2804
aVMN0000144847
p2805
aVMN0000182900
p2806
aVMN0000671953
p2807
aVMN0000130689
p2808
aVMN0000754251
p2809
aVMN0000096613
p2810
aVMN0000894465
p2811
aVMN0000270491
p2812
aVMN0000345355
p2813
ag566
ag242
ag274
aVMN0000830538
p2814
ag160
aVMN0000796734
p2815
aVMN0000103484
p2816
ag1272
aVMN0000757085
p2817
ag2473
ag856
atp2818
Rp2819
sVMN0000812877
p2820
g2
((lp2821
VMN0000047789
p2822
aVMN0000325459
p2823
aVMN0000204386
p2824
atp2825
Rp2826
sVMN0000334644
p2827
g2
((lp2828
VMN0000094205
p2829
atp2830
Rp2831
sVMN0000251595
p2832
g2
((lp2833
g2129
aVMN0000805661
p2834
ag902
ag1085
atp2835
Rp2836
sVMN0000332257
p2837
g2
((lp2838
VMN0000193601
p2839
aVMN0000129775
p2840
aVMN0000359119
p2841
ag1643
atp2842
Rp2843
sVMN0000282752
p2844
g2
((lp2845
g217
atp2846
Rp2847
sVMN0000858375
p2848
g2
((lp2849
VMN0000069153
p2850
ag1646
aVMN0000096613
p2851
ag1482
aVMN0000066915
p2852
aVMN0000204386
p2853
atp2854
Rp2855
sVMN0000745241
p2856
g2
((lp2857
VMN0000894465
p2858
aVMN0000577627
p2859
ag902
aVMN0000824022
p2860
atp2861
Rp2862
sVMN0000201760
p2863
g2
((lp2864
g111
atp2865
Rp2866
sVMN0000079960
p2867
g2
((lp2868
VMN0000659517
p2869
aVMN0000163229
p2870
aVMN0000796734
p2871
aVMN0000041874
p2872
aVMN0000685647
p2873
aVMN0000604852
p2874
ag2030
atp2875
Rp2876
sVMN0000270497
p2877
g2
((lp2878
VMN0000104714
p2879
atp2880
Rp2881
sVMN0000936206
p2882
g2
((lp2883
VMN0000144847
p2884
aVMN0000610880
p2885
atp2886
Rp2887
sVMN0000599732
p2888
g2
((lp2889
g1382
ag2221
ag2667
atp2890
Rp2891
sVMN0000270491
p2892
g2
((lp2893
VMN0000069153
p2894
ag1322
atp2895
Rp2896
sVMN0000081316
p2897
g2
((lp2898
g910
aVMN0000678167
p2899
aVMN0000921895
p2900
aVMN0000072003
p2901
atp2902
Rp2903
sVMN0000113753
p2904
g2
((lp2905
g111
aVMN0000316834
p2906
aVMN0000376204
p2907
aVMN0000594665
p2908
ag1134
aVMN0000622805
p2909
aVMN0000238322
p2910
ag1377
aVMN0000478982
p2911
ag1382
aVMN0000806542
p2912
atp2913
Rp2914
sVMN0000792530
p2915
g2
((lp2916
VMN0000796734
p2917
ag1582
ag1646
aVMN0000754251
p2918
aVMN0000842802
p2919
ag1482
ag242
aVMN0000114342
p2920
ag274
aVMN0000830538
p2921
atp2922
Rp2923
sVMN0000147785
p2924
g2
((lp2925
VMN0000037730
p2926
ag2634
ag799
ag1195
aVMN0000184043
p2927
aVMN0000383889
p2928
atp2929
Rp2930
sVMN0000418981
p2931
g2
((lp2932
g1086
aVMN0000048622
p2933
atp2934
Rp2935
sVMN0000289599
p2936
g2
((lp2937
VMN0000038469
p2938
ag1262
ag1263
aVMN0000290502
p2939
ag678
aVMN0000472925
p2940
aVMN0000806829
p2941
ag76
aVMN0000883318
p2942
atp2943
Rp2944
sVMN0000610880
p2945
g2
((lp2946
g2214
aVMN0000944084
p2947
aVMN0000094205
p2948
atp2949
Rp2950
sVMN0000467203
p2951
g2
((lp2952
VMN0000477875
p2953
aVMN0000316834
p2954
ag490
aVMN0000796734
p2955
ag823
aVMN0000043714
p2956
aVMN0000622805
p2957
ag1086
ag277
aVMN0000894465
p2958
ag1089
aVMN0000128099
p2959
ag383
aVMN0000378624
p2960
atp2961
Rp2962
sVMN0000105129
p2963
g2
((lp2964
VMN0000037730
p2965
aVMN0000805661
p2966
aVMN0000022928
p2967
ag1626
aVMN0000020050
p2968
aVMN0000758453
p2969
aVMN0000894465
p2970
aVMN0000745964
p2971
aVMN0000577627
p2972
atp2973
Rp2974
sVMN0000328014
p2975
g2
((lp2976
VMN0000569685
p2977
aVMN0000128099
p2978
aVMN0000766893
p2979
atp2980
Rp2981
sVMN0000622805
p2982
g2
((lp2983
g1086
aVMN0000128099
p2984
aVMN0000066915
p2985
atp2986
Rp2987
sVMN0000094813
p2988
g2
((lp2989
VMN0000892827
p2990
aVMN0000373634
p2991
atp2992
Rp2993
sVMN0000071812
p2994
g2
((lp2995
g1086
aVMN0000317093
p2996
atp2997
Rp2998
sVMN0000040124
p2999
g2
((lp3000
g1195
aVMN0000243008
p3001
ag1502
atp3002
Rp3003
sVMN0000898479
p3004
g2
((lp3005
g20
aVMN0000041874
p3006
ag1085
aVMN0000075747
p3007
aVMN0000898828
p3008
aVMN0000894465
p3009
ag17
ag497
ag2030
atp3010
Rp3011
sVMN0000072003
p3012
g2
((lp3013
VMN0000128099
p3014
aVMN0000929862
p3015
aVMN0000129775
p3016
ag324
aVMN0000738402
p3017
atp3018
Rp3019
sVMN0000151979
p3020
g2
((lp3021
g503
aVMN0000575051
p3022
ag756
aVMN0000087985
p3023
aVMN0000153526
p3024
aVMN0000064303
p3025
atp3026
Rp3027
sVMN0000743623
p3028
g2
((lp3029
VMN0000219203
p3030
atp3031
Rp3032
sVMN0000325459
p3033
g2
((lp3034
g1322
ag1114
ag2657
atp3035
Rp3036
sg1027
g2
((lp3037
VMN0000208774
p3038
aVMN0000316834
p3039
aVMN0000376204
p3040
ag1026
aVMN0000622805
p3041
aVMN0000294891
p3042
ag1659
aVMN0000766893
p3043
aVMN0000262255
p3044
atp3045
Rp3046
sVMN0000502371
p3047
g2
((lp3048
g1377
ag1606
aVMN0000802302
p3049
aVMN0000848688
p3050
atp3051
Rp3052
sVMN0000898188
p3053
g2
((lp3054
VMN0000622805
p3055
atp3056
Rp3057
sVMN0000818200
p3058
g2
((lp3059
VMN0000921895
p3060
atp3061
Rp3062
sVMN0000077732
p3063
g2
((lp3064
VMN0000852007
p3065
atp3066
Rp3067
sVMN0000308871
p3068
g2
((lp3069
VMN0000317093
p3070
atp3071
Rp3072
sVMN0000084209
p3073
g2
((lp3074
g2129
ag503
ag2031
ag2486
aVMN0000100160
p3075
ag2156
aVMN0000894465
p3076
ag2030
atp3077
Rp3078
sg971
g2
((lp3079
VMN0000772526
p3080
aVMN0000927555
p3081
atp3082
Rp3083
sVMN0000022928
p3084
g2
((lp3085
VMN0000894465
p3086
ag2030
aVMN0000751019
p3087
aVMN0000100160
p3088
atp3089
Rp3090
sVMN0000463435
p3091
g2
((lp3092
VMN0000583959
p3093
ag1565
aVMN0000066915
p3094
atp3095
Rp3096
sVMN0000678167
p3097
g2
((lp3098
VMN0000359119
p3099
aVMN0000100196
p3100
atp3101
Rp3102
sVMN0000029808
p3103
g2
((lp3104
VMN0000079960
p3105
aVMN0000604852
p3106
aVMN0000894465
p3107
aVMN0000391933
p3108
ag404
ag390
aVMN0000260206
p3109
atp3110
Rp3111
sVMN0000987621
p3112
g2
((lp3113
g2129
aVMN0000894465
p3114
ag2031
aVMN0000577627
p3115
atp3116
Rp3117
sg2069
g2
((lp3118
VMN0000193601
p3119
aVMN0000094752
p3120
aVMN0000100196
p3121
atp3122
Rp3123
sVMN0000383889
p3124
g2
((lp3125
VMN0000037730
p3126
ag1726
ag1728
ag679
aVMN0000262794
p3127
ag1277
ag217
aVMN0000610339
p3128
ag539
ag2670
ag875
atp3129
Rp3130
sVMN0000097173
p3131
g2
((lp3132
VMN0000339624
p3133
ag242
aVMN0000796734
p3134
atp3135
Rp3136
sVMN0000376204
p3137
g2
((lp3138
g106
aVMN0000316834
p3139
ag823
ag1389
ag1134
aVMN0000572579
p3140
aVMN0000927555
p3141
ag633
aVMN0000279337
p3142
aVMN0000411761
p3143
atp3144
Rp3145
sVMN0000459616
p3146
g2
((lp3147
VMN0000569685
p3148
aVMN0000045313
p3149
aVMN0000622805
p3150
ag1086
aVMN0000071812
p3151
aVMN0000149515
p3152
atp3153
Rp3154
sVMN0000225930
p3155
g2
((lp3156
g847
aVMN0000478603
p3157
aVMN0000754251
p3158
aVMN0000237205
p3159
aVMN0000894465
p3160
ag1646
ag920
aVMN0000182900
p3161
atp3162
Rp3163
sVMN0000132449
p3164
g2
((lp3165
VMN0000934069
p3166
aVMN0000816890
p3167
aVMN0000159214
p3168
aVMN0000065397
p3169
aVMN0000014651
p3170
ag1587
atp3171
Rp3172
sg3050
g2
((lp3173
VMN0000104714
p3174
aVMN0000220590
p3175
aVMN0000929862
p3176
atp3177
Rp3178
sVMN0000000534
p3179
g2
((lp3180
VMN0000208774
p3181
ag55
aVMN0000776093
p3182
aVMN0000237205
p3183
ag52
ag1292
aVMN0000294891
p3184
aVMN0000765595
p3185
aVMN0000298764
p3186
aVMN0000262255
p3187
aVMN0000467203
p3188
atp3189
Rp3190
sVMN0000035076
p3191
g2
((lp3192
g817
ag1619
ag1392
ag2058
aVMN0000929862
p3193
aVMN0000149044
p3194
aVMN0000128099
p3195
atp3196
Rp3197
sVMN0000143781
p3198
g2
((lp3199
VMN0000894465
p3200
aVMN0000751019
p3201
ag2227
atp3202
Rp3203
sVMN0000038469
p3204
g2
((lp3205
g324
ag2434
ag364
aVMN0000245760
p3206
ag453
ag1926
aVMN0000128099
p3207
ag2787
atp3208
Rp3209
sVMN0000612716
p3210
g2
((lp3211
g476
ag1085
aVMN0000894465
p3212
ag1565
aVMN0000898828
p3213
ag39
aVMN0000087985
p3214
ag1322
ag1070
atp3215
Rp3216
sVMN0000237205
p3217
g2
((lp3218
VMN0000316834
p3219
ag619
ag1392
aVMN0000936190
p3220
ag270
aVMN0000092942
p3221
atp3222
Rp3223
sVMN0000011707
p3224
g2
((lp3225
g1086
ag1322
ag894
atp3226
Rp3227
sVMN0000096613
p3228
g2
((lp3229
g2563
ag1322
aVMN0000894465
p3230
aVMN0000204386
p3231
aVMN0000130689
p3232
atp3233
Rp3234
sg1880
g2
((lp3235
VMN0000260038
p3236
aVMN0000317093
p3237
aVMN0000411761
p3238
atp3239
Rp3240
sVMN0000894465
p3241
g2
((lp3242
g1640
ag490
ag986
ag1
aVMN0000328014
p3243
ag523
ag2563
aVMN0000066915
p3244
aVMN0000128099
p3245
atp3246
Rp3247
sVMN0000144847
p3248
g2
((lp3249
VMN0000041874
p3250
aVMN0000204386
p3251
atp3252
Rp3253
sVMN0000175579
p3254
g2
((lp3255
VMN0000184043
p3256
ag678
ag1263
atp3257
Rp3258
sVMN0000196976
p3259
g2
((lp3260
g662
aVMN0000227088
p3261
ag698
ag747
ag666
aVMN0000690254
p3262
aVMN0000014651
p3263
aVMN0000136640
p3264
atp3265
Rp3266
sVMN0000354733
p3267
g2
((lp3268
VMN0000316834
p3269
ag1068
aVMN0000100160
p3270
aVMN0000066915
p3271
aVMN0000188342
p3272
atp3273
Rp3274
sVMN0000200882
p3275
g2
((lp3276
VMN0000246885
p3277
ag523
atp3278
Rp3279
sVMN0000932665
p3280
g2
((lp3281
VMN0000492331
p3282
aVMN0000103484
p3283
ag1272
aVMN0000237205
p3284
ag1039
ag582
ag539
aVMN0000754251
p3285
aVMN0000792530
p3286
atp3287
Rp3288
sVMN0000119651
p3289
g2
((lp3290
VMN0000094205
p3291
atp3292
Rp3293
sVMN0000820232
p3294
g2
((lp3295
VMN0000171637
p3296
aVMN0000804703
p3297
aVMN0000094205
p3298
atp3299
Rp3300
sVMN0000303626
p3301
g2
((lp3302
g1465
aVMN0000850692
p3303
aVMN0000745964
p3304
aVMN0000304401
p3305
aVMN0000199995
p3306
atp3307
Rp3308
sVMN0000260212
p3309
g2
((lp3310
VMN0000583959
p3311
ag76
ag977
aVMN0000159214
p3312
aVMN0000334193
p3313
atp3314
Rp3315
sVMN0000163213
p3316
g2
((lp3317
VMN0000134600
p3318
aVMN0000290072
p3319
aVMN0000594665
p3320
atp3321
Rp3322
sVMN0000242211
p3323
g2
((lp3324
VMN0000659517
p3325
aVMN0000037730
p3326
ag1626
aVMN0000134729
p3327
atp3328
Rp3329
sVMN0000128099
p3330
g2
((lp3331
g1086
aVMN0000824022
p3332
aVMN0000059101
p3333
atp3334
Rp3335
sVMN0000092942
p3336
g2
((lp3337
VMN0000316834
p3338
aVMN0000477875
p3339
aVMN0000144458
p3340
ag112
ag2285
ag1361
ag1183
ag277
aVMN0000622805
p3341
aVMN0000128099
p3342
aVMN0000766893
p3343
atp3344
Rp3345
sVMN0000785101
p3346
g2
((lp3347
VMN0000128440
p3348
aVMN0000477875
p3349
ag225
atp3350
Rp3351
sVMN0000037730
p3352
g2
((lp3353
g2030
aVMN0000084209
p3354
aVMN0000604852
p3355
aVMN0000894465
p3356
aVMN0000114342
p3357
ag2670
ag82
atp3358
Rp3359
sVMN0000316834
p3360
g2
((lp3361
g1086
aVMN0000317093
p3362
atp3363
Rp3364
sVMN0000224345
p3365
g2
((lp3366
g52
atp3367
Rp3368
sVMN0000007689
p3369
g2
((lp3370
VMN0000208774
p3371
ag55
ag817
ag823
ag1389
aVMN0000865016
p3372
aVMN0000361393
p3373
ag633
ag1606
atp3374
Rp3375
sVMN0000227088
p3376
g2
((lp3377
g651
aVMN0000583959
p3378
aVMN0000132449
p3379
aVMN0000066915
p3380
aVMN0000858375
p3381
atp3382
Rp3383
sVMN0000262794
p3384
g2
((lp3385
VMN0000037730
p3386
ag20
aVMN0000796734
p3387
ag2227
ag1277
ag1213
aVMN0000072041
p3388
aVMN0000745964
p3389
aVMN0000622805
p3390
aVMN0000208076
p3391
ag2822
ag2670
ag875
atp3392
Rp3393
sVMN0000543055
p3394
g2
((lp3395
g1086
aVMN0000591104
p3396
aVMN0000824022
p3397
atp3398
Rp3399
sVMN0000074853
p3400
g2
((lp3401
g977
atp3402
Rp3403
sVMN0000334770
p3404
g2
((lp3405
g3206
atp3406
Rp3407
sVMN0000765595
p3408
g2
((lp3409
g685
ag57
ag340
aVMN0000351227
p3410
aVMN0000237205
p3411
aVMN0000008828
p3412
ag1410
ag2589
atp3413
Rp3414
sVMN0000213212
p3415
g2
((lp3416
VMN0000069153
p3417
aVMN0000066915
p3418
ag1646
atp3419
Rp3420
sg1366
g2
((lp3421
VMN0000046861
p3422
aVMN0000322027
p3423
atp3424
Rp3425
sVMN0000665908
p3426
g2
((lp3427
VMN0000038469
p3428
ag1195
aVMN0000075747
p3429
ag917
aVMN0000137390
p3430
atp3431
Rp3432
sVMN0000182900
p3433
g2
((lp3434
VMN0000043714
p3435
aVMN0000894465
p3436
ag1114
aVMN0000180228
p3437
aVMN0000198480
p3438
atp3439
Rp3440
sVMN0000262255
p3441
g2
((lp3442
g106
aVMN0000594665
p3443
ag1389
ag1616
ag1617
ag277
ag1880
ag228
ag3284
ag1620
ag2589
atp3444
Rp3445
sVMN0000741718
p3446
g2
((lp3447
g324
aVMN0000738402
p3448
ag1619
ag2667
ag1392
ag2589
atp3449
Rp3450
sVMN0000130689
p3451
g2
((lp3452
g1322
ag1646
atp3453
Rp3454
sVMN0000138699
p3455
g2
((lp3456
VMN0000894465
p3457
atp3458
Rp3459
sVMN0000072041
p3460
g2
((lp3461
VMN0000316834
p3462
aVMN0000824022
p3463
aVMN0000569685
p3464
aVMN0000622805
p3465
ag1068
ag523
ag3342
ag1070
aVMN0000066915
p3466
atp3467
Rp3468
sVMN0000065397
p3469
g2
((lp3470
g698
ag3170
aVMN0000094205
p3471
atp3472
Rp3473
sVMN0000064303
p3474
g2
((lp3475
g1089
aVMN0000423267
p3476
aVMN0000577627
p3477
aVMN0000087985
p3478
aVMN0000100160
p3479
atp3480
Rp3481
sVMN0000738402
p3482
g2
((lp3483
g977
ag2285
aVMN0000128099
p3484
atp3485
Rp3486
sVMN0000768321
p3487
g2
((lp3488
VMN0000075747
p3489
ag1314
aVMN0000747757
p3490
aVMN0000894465
p3491
aVMN0000131650
p3492
ag497
aVMN0000114342
p3493
atp3494
Rp3495
sVMN0000045313
p3496
g2
((lp3497
g1086
aVMN0000543055
p3498
atp3499
Rp3500
sVMN0000048903
p3501
g2
((lp3502
g375
atp3503
Rp3504
sVMN0000280061
p3505
g2
((lp3506
VMN0000123754
p3507
atp3508
Rp3509
sVMN0000038805
p3510
g2
((lp3511
VMN0000208774
p3512
aVMN0000376204
p3513
ag1389
ag1527
aVMN0000361393
p3514
aVMN0000200074
p3515
ag1134
ag1619
aVMN0000927555
p3516
aVMN0000182415
p3517
aVMN0000279337
p3518
aVMN0000113753
p3519
aVMN0000134600
p3520
atp3521
Rp3522
s.