(dp0
VMN0000484145
p1
S'The Partridge Family'
p2
sVMN0000900303
p3
S'2 In A Room'
p4
sVMN0000096964
p5
S'Boz Scaggs'
p6
sVMN0000498961
p7
S"'Til Tuesday"
p8
sVMN0001928494
p9
S'Sweet Dreams'
p10
sVMN0000530745
p11
S'Bruce Springsteen'
p12
sVMN0000670226
p13
S'The Killers'
p14
sVMN0000231342
p15
S'Deee-Lite'
p16
sVMN0000868174
p17
S'Rascal Flatts'
p18
sVMN0000295276
p19
S'Jimmy Cliff'
p20
sVMN0000816844
p21
S'Hinder'
p22
sVMN0000794846
p23
S'Eddie Rabbitt'
p24
sVMN0000757070
p25
S'Steve Perry'
p26
sVMN0000387973
p27
S'Raekwon'
p28
sVMN0000661318
p29
S'Giggles'
p30
sVMN0000603980
p31
S'Tiny Tim'
p32
sVMN0000500646
p33
S'Motherlode'
p34
sVMN0000377891
p35
S'Nazareth'
p36
sVMN0000023010
p37
S'Terror Squad'
p38
sVMN0000838327
p39
S'Savage Garden'
p40
sVMN0000922471
p41
S'Sean Kingston Featuring Elan & Juelz Santana'
p42
sVMN0000136871
p43
S'The Doobie Brothers'
p44
sVMN0000051736
p45
S'The Manhattans'
p46
sVMN0000750456
p47
S'Paul Revere & The Raiders'
p48
sVMN0000012472
p49
S'Traffic'
p50
sVMN0000354581
p51
S'Men Of Vizion'
p52
sVMN0000570046
p53
S'Marc Almond'
p54
sVMN0000117272
p55
S'Connie Stevens'
p56
sVMN0001930721
p57
S'The Winstons'
p58
sVMN0000796281
p59
S'Five For Fighting'
p60
sVMN0000137474
p61
S'Laura Nyro'
p62
sVMN0000127451
p63
S'Jackie DeShannon'
p64
sVMN0000578031
p65
S'The Statler Brothers'
p66
sVMN0000755776
p67
S'Simon Stokes'
p68
sVMN0000201716
p69
S'Ty Herndon'
p70
sVMN0000776371
p71
S'Color Me Badd'
p72
sVMN0000234647
p73
S'Deborah Cox'
p74
sVMN0000016235
p75
S'Tony Orlando'
p76
sVMN0000792507
p77
S'Frank Sinatra'
p78
sVMN0000502806
p79
S'The Rivingtons'
p80
sVMN0000766893
p81
S'The Isley Brothers'
p82
sVMN0000533117
p83
S'Ice Cube Featuring George Clinton'
p84
sVMN0000578730
p85
S'Spiral Starecase'
p86
sVMN0000317020
p87
S"Quad City DJ's"
p88
sVMN0000180617
p89
S'Carolyn Dawn Johnson'
p90
sVMN0000188432
p91
S'David Sanborn'
p92
sVMN0000624504
p93
S'The Box Tops'
p94
sVMN0000039637
p95
S'Survivor'
p96
sVMN0000749175
p97
S'Skeeter Davis'
p98
sVMN0000105354
p99
S'Cheap Trick'
p100
sVMN0000122754
p101
S'Cyndi Lauper'
p102
sVMN0000678408
p103
S'Herbie Mann'
p104
sVMN0000102835
p105
S'Chocolate Milk'
p106
sVMN0000073666
p107
S'Baby Washington'
p108
sVMN0000192143
p109
S'The Gregg Allman Band'
p110
sVMN0000632986
p111
S'Jordan Pruitt'
p112
sVMN0000850692
p113
S'Jethro Tull'
p114
sVMN0000125749
p115
S'Barbara Mason'
p116
sVMN0000766094
p117
S'Commodores'
p118
sVMN0000988692
p119
S'Grapefruit'
p120
sVMN0000266129
p121
S'Jennifer Hudson'
p122
sVMN0000173925
p123
S'Eddie Holman'
p124
sVMN0000571797
p125
S'Daryl Braithwaite'
p126
sVMN0000794449
p127
S'Frankie Valli'
p128
sVMN0000624215
p129
S'The Brothers Johnson'
p130
sVMN0000087985
p131
S'The Hollies'
p132
sVMN0000450947
p133
S'Unk'
p134
sVMN0000125561
p135
S'Cinderella'
p136
sVMN0000104714
p137
S'Kraftwerk'
p138
sVMN0000090803
p139
S'King Curtis'
p140
sVMN0000621639
p141
S'Tone-Loc'
p142
sVMN0000170879
p143
S'Fall Out Boy'
p144
sVMN0000359026
p145
S'Ricky Martin Featuring Fat Joe & Amerie'
p146
sVMN0000201022
p147
S'Lenny Welch'
p148
sVMN0000087965
p149
S'Kevon Edmonds'
p150
sVMN0000010155
p151
S'Paper Lace'
p152
sVMN0000019241
p153
S'Patty Loveless'
p154
sVMN0000039917
p155
S'The Beatnuts Featuring Yellaklaw'
p156
sVMN0000616296
p157
S'Ashlee Simpson'
p158
sVMN0000118544
p159
S'The Drifters'
p160
sVMN0000281376
p161
S'Lords Of The Underground'
p162
sVMN0000507975
p163
S'Al Hirt'
p164
sVMN0000832341
p165
S'Robert Goulet'
p166
sVMN0000096744
p167
S'Chris Rea'
p168
sVMN0000425543
p169
S'Mista Grimm'
p170
sVMN0000888484
p171
S'Michelle Branch'
p172
sVMN0000208997
p173
S'Rita Coolidge'
p174
sVMN0000193963
p175
S'Warrant'
p176
sVMN0000025335
p177
S'Trina'
p178
sVMN0000153103
p179
S'Donald Fagen'
p180
sVMN0000655746
p181
S'Ghostface Killah'
p182
sVMN0000746666
p183
S'Sister Sledge'
p184
sVMN0000577235
p185
S'The Staple Singers'
p186
sVMN0000162820
p187
S'Gene Chandler'
p188
sVMN0000676313
p189
S'Hi-Five'
p190
sVMN0000085806
p191
S'Billy Thorpe'
p192
sVMN0000005953
p193
S'Alice Cooper'
p194
sVMN0000667622
p195
S'Heatwave'
p196
sVMN0000033666
p197
S'Supertramp'
p198
sVMN0000166291
p199
S'Eagle-Eye Cherry'
p200
sVMN0000068896
p201
S'B2K'
p202
sVMN0000614598
p203
S'Mystikal'
p204
sVMN0000691616
p205
S'Ryan Cabrera'
p206
sVMN0000852688
p207
S'Jimmy Eat World'
p208
sVMN0000087179
p209
S'The Knack'
p210
sVMN0000572579
p211
S'Anita Baker'
p212
sVMN0000033481
p213
S'Andy Griggs'
p214
sVMN0000382734
p215
S'Matt Monro'
p216
sVMN0000098342
p217
S'JC Chasez'
p218
sVMN0000172770
p219
S'Carl Butler'
p220
sVMN0000338887
p221
S'Jerry Vale'
p222
sVMN0000093872
p223
S'Koffee Brown'
p224
sVMN0000079796
p225
S'Billy Falcon'
p226
sVMN0000325126
p227
S'Phajja'
p228
sVMN0000018977
p229
S'Barry Manilow'
p230
sVMN0000419102
p231
S'The Shins'
p232
sVMN0000391003
p233
S'Norman Greenbaum'
p234
sVMN0000790732
p235
S'Squeeze'
p236
sVMN0000937584
p237
S'Charlie Ryan'
p238
sVMN0000746915
p239
S'Paul Carrack'
p240
sVMN0000083095
p241
S'Kirk Franklin'
p242
sVMN0000227544
p243
S'Walter Egan'
p244
sVMN0000816387
p245
S'Leon Russell'
p246
sVMN0000190632
p247
S'Dottie West'
p248
sVMN0000156886
p249
S'Spyro Gyra'
p250
sVMN0000113300
p251
S'Kool Moe Dee'
p252
sVMN0000049026
p253
S'Switchfoot'
p254
sVMN0000864209
p255
S'Neil Diamond'
p256
sVMN0000816701
p257
S'Deniece Williams'
p258
sVMN0000352992
p259
S'Jimmy Dean'
p260
sVMN0000184091
p261
S'Don Henley'
p262
sVMN0000796763
p263
S'Eddy Grant'
p264
sVMN0000120005
p265
S'Corina'
p266
sVMN0000200968
p267
S'Gene Simmons'
p268
sVMN0000165818
p269
S'Charley Pride'
p270
sVMN0000319347
p271
S'R. Kelly'
p272
sVMN0000681956
p273
S'Xscape'
p274
sVMN0000067631
p275
S'The Chemical Brothers'
p276
sVMN0000833802
p277
S'Sarah Dash'
p278
sVMN0001346105
p279
S'Jimmy Velvet'
p280
sVMN0000091983
p281
S'The Black Eyed Peas'
p282
sVMN0000284882
p283
S'Josie Cotton'
p284
sVMN0000031380
p285
S'Paula Abdul'
p286
sVMN0000089482
p287
S'Jimmy Ruffin'
p288
sVMN0000290590
p289
S'Samantha Fox'
p290
sVMN0000137401
p291
S'The Cyrkle'
p292
sVMN0000565388
p293
S'The Swinging Blue Jeans'
p294
sVMN0000103391
p295
S'Kris Jensen'
p296
sVMN0000884251
p297
S'O-Town'
p298
sVMN0000208774
p299
S'Janet Jackson'
p300
sVMN0000176332
p301
S'Right Said Fred'
p302
sVMN0000606283
p303
S'Al Jarreau'
p304
sVMN0000477834
p305
S'The New Seekers'
p306
sVMN0000564631
p307
S'The Sugarhill Gang'
p308
sVMN0000585896
p309
S'The Wallflowers'
p310
sVMN0000500889
p311
S'Minnie Riperton'
p312
sVMN0000478932
p313
S'504 Boyz'
p314
sVMN0000814387
p315
S'John Legend'
p316
sVMN0000689891
p317
S'Young MC'
p318
sVMN0000233147
p319
S'Howie Day'
p320
sVMN0000074195
p321
S'Natalie Cole'
p322
sVMN0000745915
p323
S'Paul Anka'
p324
sVMN0000780346
p325
S'Coolio'
p326
sVMN0000034382
p327
S'Paul Young'
p328
sVMN0000524050
p329
S'Bryan Ferry'
p330
sVMN0000092189
p331
S'Inoj'
p332
sVMN0000036849
p333
S'Sonny James'
p334
sVMN0000177060
p335
S'Janis Joplin'
p336
sVMN0000775494
p337
S'Cherish'
p338
sVMN0000132305
p339
S'Clarence Reid'
p340
sVMN0000173563
p341
S'Freak Nasty'
p342
sVMN0000325366
p343
S'R.B. Greaves'
p344
sVMN0000327765
p345
S'John Barry'
p346
sVMN0000552576
p347
S'Gino Soccio'
p348
sVMN0000019297
p349
S'America'
p350
sVMN0000180449
p351
S'Freddie Jackson'
p352
sVMN0000821675
p353
S'Jon Bon Jovi'
p354
sVMN0000845662
p355
S'Jill Scott'
p356
sVMN0000420381
p357
S'OutKast'
p358
sVMN0000244048
p359
S'Sammie'
p360
sVMN0000857597
p361
S'E-40 Featuring Keak Da Sneak'
p362
sVMN0000383853
p363
S'Neal McCoy'
p364
sVMN0000212614
p365
S'Deodato'
p366
sVMN0000658950
p367
S'DJ Quik'
p368
sVMN0000743175
p369
S'Serj Tankian'
p370
sVMN0000651972
p371
S'H-Town'
p372
sVMN0000226556
p373
S'Dead Or Alive'
p374
sVMN0002344193
p375
S'Michael Holm'
p376
sVMN0000326964
p377
S'Jeremy Jordan'
p378
sVMN0000187907
p379
S'Aventura Featuring Don Omar'
p380
sVMN0000366164
p381
S'Rick James'
p382
sVMN0000022255
p383
S'Paul Evans'
p384
sVMN0000022257
p385
S'Patty Smyth'
p386
sVMN0000605375
p387
S'Alan Jackson'
p388
sVMN0000936425
p389
S'Todd Rundgren'
p390
sVMN0000496487
p391
S'Adam Ant'
p392
sVMN0000805208
p393
S'Joe Simon'
p394
sVMN0000061172
p395
S'The Cars'
p396
sVMN0000024944
p397
S'Amy Grant'
p398
sVMN0000005307
p399
S'Alicia Keys'
p400
sVMN0000936190
p401
S'Stevie Nicks'
p402
sVMN0000143216
p403
S'James Otto'
p404
sVMN0000516202
p405
S'Brian Hyland'
p406
sVMN0000495201
p407
S'Mims'
p408
sVMN0000147200
p409
S'The Dells'
p410
sVMN0000402872
p411
S'The Meters'
p412
sVMN0000807041
p413
S'Joey Scarbury'
p414
sVMN0000123754
p415
S'Christopher Cross'
p416
sVMN0000545074
p417
S'George Michael'
p418
sVMN0000084458
p419
S"Cam'Ron Featuring Juelz Santana"
p420
sVMN0000275335
p421
S'Josh Groban'
p422
sVMN0000747506
p423
S'Patti Page'
p424
sVMN0000768584
p425
S'Billy Swan'
p426
sVMN0000146242
p427
S'Le Click'
p428
sVMN0000165117
p429
S'Tamia'
p430
sVMN0000068934
p431
S'Kenny G'
p432
sVMN0000566602
p433
S'Head East'
p434
sVMN0000257181
p435
S'Peggy Scott-Adams'
p436
sVMN0000002330
p437
S'Sergio Mendes'
p438
sVMN0000026825
p439
S'Paula Cole'
p440
sVMN0000685647
p441
S'Yes'
p442
sVMN0000136075
p443
S'The Crusaders'
p444
sVMN0000653626
p445
S'DJ Company'
p446
sVMN0000081316
p447
S'Bone Thugs-N-Harmony'
p448
sVMN0000184043
p449
S'Foo Fighters'
p450
sVMN0000089710
p451
S'Billy Paul'
p452
sVMN0000180030
p453
S'For Real'
p454
sVMN0000354722
p455
S'Rick Astley'
p456
sVMN0000137390
p457
S'The Cure'
p458
sVMN0000234004
p459
S'Jeannie Seely'
p460
sVMN0000118189
p461
S'Clay Walker'
p462
sVMN0000143781
p463
S'The Del Fuegos'
p464
sVMN0000490304
p465
S'Thee Midniters'
p466
sVMN0000149044
p467
S'Barry White'
p468
sVMN0000051118
p469
S'The Marathons'
p470
sVMN0000361014
p471
S'Brandy Featuring Kanye West'
p472
sVMN0000502398
p473
S'Archie Bell & The Drells'
p474
sVMN0000191006
p475
S'Gary Wright'
p476
sVMN0000632233
p477
S'Eric Church'
p478
sVMN0000560719
p479
S'High School Musical 2 Cast'
p480
sVMN0000128495
p481
S'Counting Crows Featuring Vanessa Carlton'
p482
sVMN0000617104
p483
S'Tommy Shane Steiner'
p484
sVMN0000745100
p485
S'Pajama Party'
p486
sVMN0000497236
p487
S'Adina Howard'
p488
sVMN0000834314
p489
S'Jude Cole'
p490
sVMN0000171889
p491
S'Elephant Man'
p492
sVMN0000142545
p493
S'JoBoxers'
p494
sVMN0000006320
p495
S'Toto'
p496
sVMN0000154967
p497
S'Shades Of Blue'
p498
sVMN0000075747
p499
S'The Clash'
p500
sVMN0000597309
p501
S'Tina Turner'
p502
sVMN0000376422
p503
S'Queens Of The Stone Age'
p504
sVMN0000149558
p505
S'The Elgins'
p506
sVMN0000351733
p507
S'Nine Inch Nails'
p508
sVMN0000749734
p509
S'Slade'
p510
sVMN0000423267
p511
S'Small Faces'
p512
sVMN0000678339
p513
S'XTC'
p514
sVMN0000128143
p515
S'Trey Songz'
p516
sVMN0000172772
p517
S'Ed Ames'
p518
sVMN0000370484
p519
S'Martika'
p520
sVMN0000554963
p521
S'Harry Chapin'
p522
sVMN0000026227
p523
S'Smokie'
p524
sVMN0000814606
p525
S'Wanda Jackson'
p526
sVMN0000745964
p527
S'The Allman Brothers Band'
p528
sVMN0000619750
p529
S'Tommy Shaw'
p530
sVMN0000204386
p531
S'James Taylor'
p532
sVMN0000575051
p533
S"Herman's Hermits"
p534
sVMN0000247250
p535
S'When In Rome'
p536
sVMN0000331910
p537
S'Barry Ryan'
p538
sVMN0000838195
p539
S'Percy Sledge'
p540
sVMN0000167878
p541
S'Frankie J'
p542
sVMN0001759424
p543
S'The Glass Bottle'
p544
sVMN0000106514
p545
S'Boots Randolph'
p546
sVMN0000021128
p547
S'Trillville'
p548
sVMN0000953998
p549
S'Mantovani'
p550
sVMN0000239827
p551
S'John Mayer'
p552
sVMN0000748994
p553
S'Trick Daddy Featuring Ludacris'
p554
sVMN0000255576
p555
S'Honeymoon Suite'
p556
sVMN0000479687
p557
S'Midge Ure'
p558
sVMN0000390532
p559
S'Oingo Boingo'
p560
sVMN0000124492
p561
S'Beck'
p562
sVMN0000924318
p563
S'Monchy & Alexandra'
p564
sVMN0000763798
p565
S'Bobby Comstock'
p566
sVMN0000809527
p567
S'The Lost Boyz'
p568
sVMN0000314505
p569
S'Vanessa Williams'
p570
sVMN0000087305
p571
S'Kid Frost'
p572
sVMN0000813392
p573
S'Dean Martin'
p574
sVMN0000391933
p575
S'Rainbow'
p576
sVMN0000170454
p577
S'Carla Thomas'
p578
sVMN0000753963
p579
S'The Association'
p580
sVMN0000181376
p581
S'UB40'
p582
sVMN0000303061
p583
S'Junior M.A.F.I.A.'
p584
sVMN0000138332
p585
S'The Crystals'
p586
sVMN0000811598
p587
S'David Ruffin'
p588
sVMN0000080780
p589
S'Sheryl Crow'
p590
sVMN0000759187
p591
S'Blaque'
p592
sVMN0000251595
p593
S'Whitesnake'
p594
sVMN0000258882
p595
S'Jon Secada'
p596
sVMN0000325459
p597
S'R.E.M.'
p598
sVMN0000014651
p599
S'Patsy Cline'
p600
sVMN0000551115
p601
S'J. Holiday'
p602
sVMN0000013384
p603
S'Tanya Tucker'
p604
sVMN0000147785
p605
S'Eve 6'
p606
sVMN0000418981
p607
S'The Shirelles'
p608
sVMN0000562663
p609
S'Harpers Bizarre'
p610
sVMN0000484880
p611
S'Sugarland'
p612
sVMN0000809702
p613
S'David Hudson'
p614
sVMN0000414251
p615
S'Otis Redding'
p616
sVMN0000084446
p617
S'India.Arie'
p618
sVMN0000806507
p619
S'Tyrone Davis'
p620
sVMN0000664093
p621
S'Hamilton Bohannon'
p622
sVMN0000157314
p623
S'Tag Team'
p624
sVMN0000094813
p625
S'Black Rob'
p626
sVMN0000238069
p627
S'Robin S.'
p628
sVMN0000040124
p629
S'The Ataris'
p630
sVMN0000898479
p631
S'The Smithereens'
p632
sVMN0000072003
p633
S'Ice-T'
p634
sVMN0000058361
p635
S'Betty Everett'
p636
sVMN0000898188
p637
S'Mint Condition'
p638
sVMN0000046120
p639
S'The Amboy Dukes'
p640
sVMN0000084209
p641
S'Kiss'
p642
sVMN0000052900
p643
S"The Lovin' Spoonful"
p644
sVMN0000112360
p645
S'Kon Kan'
p646
sVMN0000549192
p647
S"Ghost Town DJ's"
p648
sVMN0000463435
p649
S'Michael Nesmith'
p650
sVMN0000029808
p651
S'Tesla'
p652
sVMN0000987621
p653
S'Foreigner'
p654
sVMN0000498484
p655
S'The Rembrandts'
p656
sVMN0000892827
p657
S'The Notorious B.I.G.'
p658
sVMN0000892823
p659
S'Mick Jagger'
p660
sVMN0000725395
p661
S'Fergie'
p662
sVMN0000301404
p663
S'Rick Derringer'
p664
sVMN0000674332
p665
S'Herb Alpert'
p666
sVMN0000508449
p667
S"Alan O'Day"
p668
sVMN0000796700
p669
S'Carole Bayer Sager'
p670
sVMN0000148477
p671
S'Clarence Carter'
p672
sVMN0000508443
p673
S'Air Supply'
p674
sVMN0000926108
p675
S'Montgomery Gentry'
p676
sVMN0000286115
p677
S'Lorrie Morgan'
p678
sVMN0000342004
p679
S'Phil Vassar'
p680
sVMN0000600264
p681
S'Mr. Big'
p682
sVMN0000466759
p683
S'Michael W. Smith'
p684
sVMN0000206241
p685
S'Eurythmics'
p686
sVMN0000038469
p687
S'Beastie Boys'
p688
sVMN0000840050
p689
S'Jefferson Starship'
p690
sVMN0000800614
p691
S'2nd II None'
p692
sVMN0000868456
p693
S'Melba Montgomery'
p694
sVMN0000812241
p695
S'Wade Hayes'
p696
sVMN0000038466
p697
S'Andy Williams'
p698
sVMN0000011707
p699
S'Steely Dan'
p700
sVMN0000090169
p701
S'King Floyd'
p702
sVMN0000808546
p703
S'Joe Public'
p704
sVMN0000093632
p705
S'Robert Palmer'
p706
sVMN0000049062
p707
S'Simple Plan'
p708
sVMN0000234384
p709
S"Lil' Romeo"
p710
sVMN0000354733
p711
S'Los Lobos'
p712
sVMN0000932665
p713
S'Alanis Morissette'
p714
sVMN0000291687
p715
S'Robert Tepper'
p716
sVMN0000260212
p717
S'Pet Shop Boys'
p718
sVMN0000242211
p719
S'Saliva'
p720
sVMN0000411689
p721
S'Ray Peterson'
p722
sVMN0000092942
p723
S'Chic'
p724
sVMN0000037730
p725
S'Pearl Jam'
p726
sVMN0000078044
p727
S'Bill Withers'
p728
sVMN0000007689
p729
S'TLC'
p730
sVMN0000317417
p731
S'Quicksilver Messenger Service'
p732
sVMN0000169677
p733
S'Ernie K-Doe'
p734
sVMN0000543055
p735
S'Georgie Fame'
p736
sVMN0000568709
p737
S'Darren Hayes'
p738
sVMN0000422891
p739
S'Nivea'
p740
sVMN0000387720
p741
S'Michael Bolton'
p742
sVMN0000537548
p743
S'Busta Rhymes'
p744
sVMN0000673486
p745
S'Marc Anthony'
p746
sVMN0000314050
p747
S'Narada Michael Walden'
p748
sVMN0000378624
p749
S'Quincy Jones Featuring Ray Charles '
p750
sVMN0000069986
p751
S'Kenny Rogers'
p752
sVMN0000037931
p753
S'The Alarm'
p754
sVMN0000089042
p755
S'Coko'
p756
sVMN0000006334
p757
S'Tony Bennett'
p758
sVMN0000563390
p759
S'Colbie Caillat'
p760
sVMN0000848688
p761
S'J.J. Fad'
p762
sVMN0000012180
p763
S'Trace Adkins'
p764
sVMN0000738402
p765
S'Grandmaster Flash'
p766
sVMN0000768321
p767
S'INXS'
p768
sVMN0000822837
p769
S'Dickie Goodman'
p770
sVMN0000768328
p771
S'Kellie Coffey'
p772
sVMN0000007448
p773
S'The Delfonics'
p774
sVMN0000270064
p775
S'Lil Rob'
p776
sVMN0002453941
p777
S'Portrait'
p778
sVMN0000196544
p779
S'Della Reese'
p780
sVMN0000344609
p781
S'Jesus Jones'
p782
sVMN0000478833
p783
S'The Outhere Brothers'
p784
sVMN0000051909
p785
S'Carpenters'
p786
sVMN0000590524
p787
S'Young-Holt Unlimited'
p788
sVMN0000299668
p789
S'KC & The Sunshine Band'
p790
sVMN0000739041
p791
S'Fountains Of Wayne'
p792
sVMN0000768926
p793
S'Bill Quateman'
p794
sVMN0000008828
p795
S'Spice Girls'
p796
sVMN0000677781
p797
S'Wilson Pickett'
p798
sVMN0000239921
p799
S'Depeche Mode'
p800
sVMN0000744573
p801
S'TKA'
p802
sVMN0000913490
p803
S'Cheyenne Kimball'
p804
sVMN0000866491
p805
S'Maxwell'
p806
sVMN0000511235
p807
S'Alana Davis'
p808
sVMN0000633358
p809
S'Danity Kane'
p810
sVMN0000036641
p811
S"Paul Wall Featuring Lil' KeKe"
p812
sVMN0000209142
p813
S'George Harrison'
p814
sVMN0000567153
p815
S'Daughtry'
p816
sVMN0000114342
p817
S'The Doors'
p818
sVMN0000610880
p819
S'Brad Paisley'
p820
sVMN0000141838
p821
S'Eddie Money'
p822
sVMN0000824022
p823
S'Little Richard'
p824
sVMN0000186185
p825
S'Celine Dion'
p826
sVMN0000103484
p827
S'Indigo Girls'
p828
sVMN0000078532
p829
S'Inner Circle'
p830
sVMN0000226312
p831
S'Lil Suzy'
p832
sVMN0000475209
p833
S'The Strangeloves'
p834
sVMN0000340152
p835
S'Ratt'
p836
sVMN0000930722
p837
S'Timi Yuro'
p838
sVMN0000765011
p839
S'Ian Whitcomb'
p840
sVMN0000033580
p841
S'Super Cat'
p842
sVMN0000147468
p843
S'Clay Aiken'
p844
sVMN0000614830
p845
S'Metro Station'
p846
sVMN0000481057
p847
S'Orchestral Manoeuvres In The Dark'
p848
sVMN0000342834
p849
S'Mel Carter'
p850
sVMN0000315336
p851
S'Perry Como'
p852
sVMN0000130028
p853
S'Freddie Mercury'
p854
sVMN0000119469
p855
S'Corey Hart'
p856
sVMN0000222748
p857
S'Vixen'
p858
sVMN0000152228
p859
S'Club Nouveau'
p860
sVMN0000228444
p861
S'Lee Ritenour'
p862
sVMN0000195368
p863
S'Dorothy Norwood'
p864
sVMN0000013393
p865
S'Tower Of Power'
p866
sVMN0000784122
p867
S'Cupid'
p868
sVMN0000609396
p869
S'Tom Jones'
p870
sVMN0000328014
p871
S'Peter Tosh'
p872
sVMN0000664883
p873
S'Gloria Lynne'
p874
sVMN0000600075
p875
S'Adam Wade'
p876
sVMN0000043714
p877
S'Bee Gees'
p878
sVMN0000610339
p879
S'Toad The Wet Sprocket'
p880
sVMN0000806991
p881
S'Vikki Carr'
p882
sVMN0000334193
p883
S'New Order'
p884
sVMN0000295756
p885
S'Santana'
p886
sVMN0000346336
p887
S'Pink Floyd'
p888
sVMN0000383056
p889
S'The Click Five'
p890
sVMN0000131681
p891
S'Pat Boone'
p892
sVMN0003116716
p893
S'Eye To Eye'
p894
sVMN0000179021
p895
S'Don Fardon'
p896
sVMN0000090389
p897
S'Idris Muhammad'
p898
sVMN0000249554
p899
S'Scott Mckenzie'
p900
sVMN0000756380
p901
S'Blues Magoos'
p902
sVMN0000232564
p903
S'John Lennon'
p904
sVMN0000249559
p905
S'Deryl Dodd'
p906
sVMN0000495861
p907
S'Mindy McCready'
p908
sVMN0000147315
p909
S'Cypress Hill'
p910
sVMN0000625203
p911
S'Britny Fox'
p912
sVMN0000945196
p913
S'Gerry Rafferty'
p914
sVMN0000894962
p915
S'The Postal Service'
p916
sVMN0000393789
p917
S'Restless Heart Featuring Warren Hill'
p918
sVMN0000923033
p919
S'Styx'
p920
sVMN0000567624
p921
S'The Stylistics'
p922
sVMN0002907557
p923
S'The Raindrops'
p924
sVMN0000124881
p925
S'Craig Morgan'
p926
sVMN0000936009
p927
S'Heather Headley'
p928
sVMN0000411761
p929
S'Nina Simone'
p930
sVMN0000825883
p931
S'Dierks Bentley'
p932
sVMN0000791483
p933
S'Dwight Yoakam'
p934
sVMN0000760977
p935
S'The Five Stairsteps'
p936
sVMN0000080494
p937
S'Billy Gilman'
p938
sVMN0000135059
p939
S'Classics IV'
p940
sVMN0000283405
p941
S'Mark Chesnutt'
p942
sVMN0000017387
p943
S'Sixpence None The Richer'
p944
sVMN0000210830
p945
S'Jamie Foxx Featuring Twista'
p946
sVMN0000961234
p947
S'Dave Matthews Band'
p948
sVMN0000812920
p949
S'Dee Dee Sharp'
p950
sVMN0000543595
p951
S'Candlebox'
p952
sVMN0000102050
p953
S'The Kingston Trio'
p954
sVMN0000077223
p955
S'Bad Boys Blue'
p956
sVMN0000123132
p957
S'Barbara Lewis'
p958
sVMN0000897205
p959
S'Miki Howard'
p960
sVMN0000640042
p961
S'Bruce Willis'
p962
sVMN0002855999
p963
S'Freddy King'
p964
sVMN0000955647
p965
S'Mason Williams'
p966
sVMN0000771638
p967
S'Bonnie Guitar'
p968
sVMN0000137430
p969
S'The Cover Girls'
p970
sVMN0000260206
p971
S'Van Halen'
p972
sVMN0000011821
p973
S'American Idol Finalists'
p974
sVMN0000409670
p975
S'Melanie'
p976
sVMN0000053190
p977
S'The Castells'
p978
sVMN0000243008
p979
S'Weezer'
p980
sVMN0000662692
p981
S'Glenn Medeiros'
p982
sVMN0000154765
p983
S'Sha Na Na'
p984
sVMN0000574102
p985
S'Dashboard Confessional'
p986
sVMN0000350139
p987
S"Plain White T's"
p988
sVMN0000198426
p989
S'Changing Faces'
p990
sVMN0000921965
p991
S'The Ventures'
p992
sVMN0000089058
p993
S'Billy Ocean'
p994
sVMN0000149973
p995
S'Barbara Lynn'
p996
sVMN0000478603
p997
S'The Monkees'
p998
sVMN0000781172
p999
S'Jimmy Smith'
p1000
sVMN0000100160
p1001
S'The Kinks'
p1002
sVMN0000925066
p1003
S'Montell Jordan'
p1004
sVMN0000182897
p1005
S'Carrie Lucas'
p1006
sVMN0000226869
p1007
S'John Paul Young'
p1008
sVMN0000869487
p1009
S'Ray Conniff'
p1010
sVMN0000861687
p1011
S'Nelly Furtado'
p1012
sVMN0000021744
p1013
S'Stephen Stills'
p1014
sVMN0000567570
p1015
S'Thompson Twins'
p1016
sVMN0000169795
p1017
S'Fiona Apple'
p1018
sVMN0000758630
p1019
S'Better Than Ezra'
p1020
sVMN0000267505
p1021
S'Jennifer Warnes'
p1022
sVMN0000000674
p1023
S'P.J. Proby'
p1024
sVMN0000219203
p1025
S'U2'
p1026
sVMN0000330575
p1027
S'Neil Sedaka'
p1028
sVMN0000481827
p1029
S'The Tractors'
p1030
sVMN0000045972
p1031
S'Swing Out Sister'
p1032
sVMN0000891911
p1033
S'Midnight Star'
p1034
sVMN0000166033
p1035
S'Elvis Crespo'
p1036
sVMN0000074520
p1037
S'The Hives'
p1038
sVMN0000343947
p1039
S'Real Life'
p1040
sVMN0000020984
p1041
S'Shelley Fabares'
p1042
sVMN0001772529
p1043
S'Pockets'
p1044
sVMN0000188342
p1045
S'Freddy Fender'
p1046
sVMN0000814974
p1047
S'Del Reeves'
p1048
sVMN0000041874
p1049
S'The Beach Boys'
p1050
sVMN0000677575
p1051
S'Blaine Larsen'
p1052
sVMN0000696015
p1053
S'Phoebe Snow'
p1054
sVMN0000070715
p1055
S'Bobby Darin'
p1056
sVMN0000258955
p1057
S'Juvenile'
p1058
sVMN0000792839
p1059
S'Shanice'
p1060
sVMN0000837886
p1061
S'Lit'
p1062
sVMN0000874289
p1063
S'Menudo'
p1064
sVMN0000162487
p1065
S'Dixie Chicks'
p1066
sVMN0000289058
p1067
S'Saigon Kick'
p1068
sVMN0000930642
p1069
S'Morris Day'
p1070
sVMN0000480086
p1071
S'Modest Mouse'
p1072
sVMN0000671746
p1073
S'Major Lance'
p1074
sVMN0000355616
p1075
S'Poison'
p1076
sVMN0000192436
p1077
S'Chairmen Of The Board'
p1078
sVMN0000186978
p1079
S'Mack 10'
p1080
sVMN0000170381
p1081
S'Europe'
p1082
sVMN0000162269
p1083
S'Faith Hill'
p1084
sVMN0000224369
p1085
S'John Miles'
p1086
sVMN0000890799
p1087
S'The McCoys'
p1088
sVMN0000898275
p1089
S'Missing Persons'
p1090
sVMN0000366681
p1091
S'Paramore'
p1092
sVMN0000649435
p1093
S'Gerald Levert'
p1094
sVMN0000801971
p1095
S'Bob Geldof'
p1096
sVMN0000927650
p1097
S'Tiffany'
p1098
sVMN0000490852
p1099
S'Our Lady Peace'
p1100
sVMN0000784759
p1101
S'Joanie Sommers'
p1102
sVMN0000033206
p1103
S'Andrea Martin'
p1104
sVMN0000364572
p1105
S'Kathy Troccoli'
p1106
sVMN0000154927
p1107
S'Tony Terry'
p1108
sVMN0000032401
p1109
S'Triumph'
p1110
sVMN0000227675
p1111
S'Walter Jackson'
p1112
sVMN0000291043
p1113
S'Journey'
p1114
sVMN0000028772
p1115
S'The 5th Dimension'
p1116
sVMN0000312890
p1117
S'Justin Timberlake'
p1118
sVMN0000477068
p1119
S'4 The Cause'
p1120
sVMN0000548338
p1121
S'Cannonball Adderley'
p1122
sVMN0000565727
p1123
S'Darrell Banks'
p1124
sVMN0000944349
p1125
S'Cameo'
p1126
sVMN0000264350
p1127
S'Sean Paul'
p1128
sVMN0000667794
p1129
S'Gordon Lightfoot'
p1130
sVMN0000294923
p1131
S'Judy Collins'
p1132
sVMN0000147635
p1133
S'Carly Simon'
p1134
sVMN0000937703
p1135
S'The Brothers Four'
p1136
sVMN0000628467
p1137
S'Britney Spears'
p1138
sVMN0000048622
p1139
S'The Marcels'
p1140
sVMN0000317093
p1141
S'Nat King Cole'
p1142
sVMN0000868616
p1143
S'Nickelback'
p1144
sVMN0000252495
p1145
S'Wayne Newton'
p1146
sVMN0000500612
p1147
S'Adam Sandler'
p1148
sVMN0000569256
p1149
S'The Tams'
p1150
sVMN0000475431
p1151
S'Stray Cats'
p1152
sVMN0000287407
p1153
S'Jessica Simpson'
p1154
sVMN0000831448
p1155
S'Romeo Void'
p1156
sVMN0000044764
p1157
S'Blondie'
p1158
sVMN0000058549
p1159
S'Elvis Costello'
p1160
sVMN0000136640
p1161
S'The KLF Featuring Tammy Wynette'
p1162
sVMN0000585690
p1163
S'Yankee Grey'
p1164
sVMN0000674662
p1165
S'Manfred Mann'
p1166
sVMN0000664459
p1167
S'Da Brat'
p1168
sVMN0000799100
p1169
S'Great White'
p1170
sVMN0000279337
p1171
S'Sade'
p1172
sVMN0000903609
p1173
S'Jim Reeves'
p1174
sVMN0000520545
p1175
S'My Chemical Romance'
p1176
sVMN0000375239
p1177
S'Marty Wilde'
p1178
sVMN0000297894
p1179
S'Poco'
p1180
sVMN0000201983
p1181
S'Westlife'
p1182
sVMN0000242543
p1183
S'West Street Mob'
p1184
sVMN0000768010
p1185
S'The Ides Of March'
p1186
sVMN0000938878
p1187
S'Brownsville Station'
p1188
sVMN0000178775
p1189
S'Figures On A Beach'
p1190
sVMN0000661795
p1191
S'DMX'
p1192
sVMN0000221059
p1193
S'Jason Mraz'
p1194
sVMN0000029600
p1195
S'Smash Mouth'
p1196
sVMN0000203639
p1197
S'Johnny Rivers'
p1198
sVMN0000382880
p1199
S'Red Rockers'
p1200
sVMN0000477875
p1201
S'The Supremes'
p1202
sVMN0000758444
p1203
S'Blur'
p1204
sVMN0000270667
p1205
S'Live'
p1206
sVMN0000797452
p1207
S'Stage Dolls'
p1208
sVMN0000815236
p1209
S'Delbert McClinton'
p1210
sVMN0000143951
p1211
S'Faron Young'
p1212
sVMN0000776093
p1213
S'Kylie Minogue'
p1214
sVMN0000754251
p1215
S'Suzanne Vega'
p1216
sVMN0000100116
p1217
S'Charlie Wilson'
p1218
sVMN0000495288
p1219
S'The Rentals'
p1220
sVMN0000222436
p1221
S'David Lee Roth'
p1222
sVMN0000065231
p1223
S'Keith Martin'
p1224
sVMN0000010458
p1225
S'Alison Moyet'
p1226
sVMN0000475650
p1227
S'The Outfield'
p1228
sVMN0000158309
p1229
S'Pat Benatar'
p1230
sVMN0000156950
p1231
S'Chad Brock'
p1232
sVMN0000201297
p1233
S'Foghat'
p1234
sVMN0000175286
p1235
S'Dolly Parton'
p1236
sVMN0000030928
p1237
S'Tevin Campbell'
p1238
sVMN0000000441
p1239
S'P.O.D.'
p1240
sVMN0000920939
p1241
S'The Undisputed Truth'
p1242
sVMN0000953430
p1243
S'Haysi Fantayzee'
p1244
sVMN0000284667
p1245
S'Robbie Nevil'
p1246
sVMN0000503242
p1247
S'Miranda Lambert'
p1248
sVMN0000599389
p1249
S"Mother's Finest"
p1250
sVMN0000215513
p1251
S'Ciara'
p1252
sVMN0000221235
p1253
S'David Laflamme'
p1254
sVMN0000115554
p1255
S'LSG'
p1256
sVMN0000473554
p1257
S'Olivia Newton-John'
p1258
sVMN0000772567
p1259
S'Iron Butterfly'
p1260
sVMN0001176481
p1261
S'The Alan Parsons Project'
p1262
sVMN0000804289
p1263
S'Lynn Anderson'
p1264
sVMN0000046814
p1265
S'Blake Shelton'
p1266
sVMN0000762929
p1267
S'B.G. The Prince Of Rap'
p1268
sVMN0000607028
p1269
S'Arthur Lyman'
p1270
sVMN0000920338
p1271
S'702'
p1272
sVMN0000132856
p1273
S'Crystal Waters'
p1274
sVMN0000085915
p1275
S'Billy Joel'
p1276
sVMN0000091549
p1277
S'Chevelle'
p1278
sVMN0000322027
p1279
S'Nelson Riddle'
p1280
sVMN0000604489
p1281
S'Timmy T'
p1282
sVMN0000659299
p1283
S'Gary Allan'
p1284
sVMN0000772745
p1285
S'Incubus'
p1286
sVMN0000152023
p1287
S'Everclear'
p1288
sVMN0000021008
p1289
S'Trick Pony'
p1290
sVMN0000005501
p1291
S'System Of A Down'
p1292
sVMN0000033560
p1293
S'Suzi Quatro'
p1294
sVMN0000373634
p1295
S'Nas'
p1296
sVMN0000359119
p1297
S'KRS-One'
p1298
sVMN0000619536
p1299
S'Pretty Ricky'
p1300
sVMN0000471156
p1301
S'Mickey Gilley'
p1302
sVMN0000390477
p1303
S'New Kids On The Block'
p1304
sVMN0000069153
p1305
S'Joan Baez'
p1306
sVMN0000591104
p1307
S'Mongo Santamaria'
p1308
sVMN0000022928
p1309
S'Steppenwolf'
p1310
sVMN0000472440
p1311
S'The Olympics'
p1312
sVMN0000322733
p1313
S'Jermaine Dupri Featuring Nate Dogg'
p1314
sVMN0000611797
p1315
S'Lady Sovereign'
p1316
sVMN0000393106
p1317
S'The Newbeats'
p1318
sVMN0000858710
p1319
S'Marty Robbins'
p1320
sVMN0000737886
p1321
S'Enrique Iglesias'
p1322
sVMN0000625731
p1323
S'Seether'
p1324
sVMN0000483563
p1325
S'The Verve Pipe'
p1326
sVMN0000852656
p1327
S'RuPaul'
p1328
sVMN0000574597
p1329
S'ABC'
p1330
sVMN0000061226
p1331
S'Babyface'
p1332
sVMN0000077283
p1333
S'Geto Boys Featuring Flaj'
p1334
sVMN0000312782
p1335
S'Keith Carradine'
p1336
sVMN0000194018
p1337
S'Del Shannon'
p1338
sVMN0000059156
p1339
S'B.B. King'
p1340
sVMN0000490860
p1341
S'Three Days Grace'
p1342
sVMN0000068551
p1343
S'Kenny Chesney'
p1344
sVMN0000046727
p1345
S'Edwin Starr'
p1346
sVMN0000061045
p1347
S'Bobby Caldwell'
p1348
sVMN0000805661
p1349
S'Humble Pie'
p1350
sVMN0000765075
p1351
S'The Honeycombs'
p1352
sVMN0000195729
p1353
S'Champaign'
p1354
sVMN0000220590
p1355
S'MC Lyte'
p1356
sVMN0000144847
p1357
S'Eagles'
p1358
sVMN0000689326
p1359
S'Will To Power'
p1360
sVMN0000087697
p1361
S'Kem'
p1362
sVMN0000153443
p1363
S'Fabolous'
p1364
sVMN0000146755
p1365
S'Cutting Crew'
p1366
sVMN0000164156
p1367
S'Tammy Cochran'
p1368
sVMN0000932922
p1369
S'Brass Construction'
p1370
sVMN0000185669
p1371
S'Mac Davis'
p1372
sVMN0000577627
p1373
S'The Who'
p1374
sVMN0000251361
p1375
S'Dexys Midnight Runners'
p1376
sVMN0000117064
p1377
S'Connie Francis'
p1378
sVMN0000746302
p1379
S'Train'
p1380
sVMN0000550120
p1381
S'High School Musical Cast'
p1382
sVMN0000210323
p1383
S'Joe Tex'
p1384
sVMN0000796734
p1385
S'Elton John'
p1386
sVMN0000796736
p1387
S'Elvin Bishop'
p1388
sVMN0000847006
p1389
S'D4L'
p1390
sVMN0000944241
p1391
S'George Hamilton IV'
p1392
sVMN0000120521
p1393
S'Chuck Berry'
p1394
sVMN0000077264
p1395
S'Bad English'
p1396
sVMN0000664849
p1397
S'Gloria Gaynor'
p1398
sVMN0000112789
p1399
S'Korn Featuring Amy Lee'
p1400
sVMN0000524837
p1401
S'Mrs. Miller'
p1402
sVMN0000882956
p1403
S'Merry Clayton'
p1404
sVMN0000467382
p1405
S'Michael Penn'
p1406
sVMN0000163229
p1407
S'Electric Light Orchestra'
p1408
sVMN0000181817
p1409
S'Caron Wheeler'
p1410
sVMN0000921895
p1411
S'2Pac'
p1412
sVMN0001572321
p1413
S'Tourists'
p1414
sVMN0000182415
p1415
S'Fugees'
p1416
sVMN0000351227
p1417
S'Richard Marx'
p1418
sVMN0000812877
p1419
S'Deep Blue Something'
p1420
sVMN0000858827
p1421
S'Queen'
p1422
sVMN0000031685
p1423
S'Paul Simon'
p1424
sVMN0000758943
p1425
S'Big Brother & The Holding Company'
p1426
sVMN0000057827
p1427
S'The Main Ingredient'
p1428
sVMN0000154544
p1429
S'Green Day'
p1430
sVMN0000665957
p1431
S'Harold Melvin & The Blue Notes'
p1432
sVMN0000770059
p1433
S'Born Jamericans'
p1434
sVMN0000270497
p1435
S'Peter Schilling'
p1436
sVMN0000599732
p1437
S'Arrested Development'
p1438
sVMN0000270491
p1439
S'Joni Mitchell'
p1440
sVMN0000884962
p1441
S'Regina Belle'
p1442
sVMN0000782163
p1443
S'Jaheim'
p1444
sVMN0000367188
p1445
S'Rihanna'
p1446
sVMN0000068155
p1447
S'The Chantels'
p1448
sVMN0000581859
p1449
S'The Vogues'
p1450
sVMN0000011597
p1451
S'The American Breed'
p1452
sVMN0000123268
p1453
S'Webbie'
p1454
sVMN0000122023
p1455
S'Cilla Black'
p1456
sVMN0000178345
p1457
S'Jane Child'
p1458
sVMN0000946137
p1459
S'Canned Heat'
p1460
sVMN0000846634
p1461
S'Ne-Yo'
p1462
sVMN0000815575
p1463
S'Lena Horne'
p1464
sVMN0000811897
p1465
S'John Michael Montgomery'
p1466
sVMN0000604924
p1467
S'Arthur Conley'
p1468
sVMN0000818200
p1469
S'Westside Connection'
p1470
sVMN0000407986
p1471
S'Melissa Manchester'
p1472
sVMN0000129817
p1473
S'Shabba Ranks'
p1474
sVMN0000590285
p1475
S'Billy Preston'
p1476
sVMN0000041857
p1477
S'Souls Of Mischief'
p1478
sVMN0000405968
p1479
S'The Real Thing'
p1480
sVMN0000774807
p1481
S'Cold Blood'
p1482
sVMN0000359613
p1483
S'Rick Springfield'
p1484
sVMN0000205180
p1485
S'Dr. John'
p1486
sVMN0002479562
p1487
S'Whistle'
p1488
sVMN0000383889
p1489
S'matchbox twenty'
p1490
sVMN0000349555
p1491
S'Jimmy Holiday'
p1492
sVMN0000376204
p1493
S'Mary J. Blige'
p1494
sVMN0000571394
p1495
S'A Few Good Men'
p1496
sVMN0000192382
p1497
S'Deep Purple'
p1498
sVMN0000738674
p1499
S'Donna Fargo'
p1500
sVMN0000132449
p1501
S'Crystal Gayle'
p1502
sVMN0000064303
p1503
S'Badfinger'
p1504
sVMN0000479772
p1505
S'The Motels'
p1506
sVMN0000293896
p1507
S'Rod Stewart'
p1508
sVMN0000096613
p1509
S'Bonnie Raitt'
p1510
sVMN0000196976
p1511
S'Gretchen Wilson'
p1512
sVMN0003389510
p1513
S'Marc Nelson'
p1514
sVMN0000168173
p1515
S'Maria Mena'
p1516
sVMN0000144458
p1517
S'Curtis Mayfield'
p1518
sVMN0000119651
p1519
S'J.J. Cale'
p1520
sVMN0000303626
p1521
S'Kansas'
p1522
sVMN0000604852
p1523
S'Aerosmith'
p1524
sVMN0000073806
p1525
S'The Highwaymen'
p1526
sVMN0000316834
p1527
S'Marvin Gaye'
p1528
sVMN0000224345
p1529
S'Vitamin C'
p1530
sVMN0000262794
p1531
S'Hootie & The Blowfish'
p1532
sVMN0000001418
p1533
S'T.I.'
p1534
sVMN0000139655
p1535
S'Laura Branigan'
p1536
sVMN0000210143
p1537
S'Lou Bega'
p1538
sVMN0000156484
p1539
S'Sponge'
p1540
sVMN0000495508
p1541
S'Troy Shondell'
p1542
sVMN0000018513
p1543
S'Paul Hardcastle'
p1544
sVMN0000765595
p1545
S'Backstreet Boys'
p1546
sVMN0000853629
p1547
S'Ruff Endz'
p1548
sVMN0000133719
p1549
S'Fatboy Slim'
p1550
sVMN0000202344
p1551
S'Vicki Sue Robinson'
p1552
sVMN0001317177
p1553
S'Drafi'
p1554
sVMN0000072041
p1555
S'Bob Seger'
p1556
sVMN0000228099
p1557
S'Howard Jones'
p1558
sVMN0003014650
p1559
S'The Regents'
p1560
sVMN0000329468
p1561
S'Jerry Butler'
p1562
sVMN0000633078
p1563
S'Bruce Hornsby'
p1564
sVMN0000127063
p1565
S'Bell Biv Devoe'
p1566
sVMN0000106882
p1567
S'Lamont Dozier'
p1568
sVMN0000038805
p1569
S'Angie Stone'
p1570
sVMN0000274637
p1571
S'Mario'
p1572
sVMN0000135152
p1573
S'Jodeci'
p1574
sVMN0000472925
p1575
S'The Offspring'
p1576
sVMN0000596126
p1577
S'Mott The Hoople'
p1578
sVMN0000260038
p1579
S'Dinah Washington'
p1580
sVMN0000076658
p1581
S'Jimmy McGriff'
p1582
sVMN0000665835
p1583
S'Goose Creek Symphony'
p1584
sVMN0000151431
p1585
S'Roger Miller'
p1586
sVMN0000035338
p1587
S'Peabo Bryson'
p1588
sVMN0000121357
p1589
S'J.D. Souther'
p1590
sVMN0000540010
p1591
S'Capleton'
p1592
sVMN0000799053
p1593
S'Donovan'
p1594
sVMN0000012128
p1595
S'All-4-One'
p1596
sVMN0000166785
p1597
S'Dan Fogelberg'
p1598
sVMN0000306258
p1599
S'Ludacris'
p1600
sVMN0000489303
p1601
S'The Yardbirds'
p1602
sVMN0000069702
p1603
S'Choirboys'
p1604
sVMN0000175049
p1605
S'Firehouse'
p1606
sVMN0000449578
p1607
S'Miami Sound Machine'
p1608
sVMN0001002843
p1609
S'Keith Anderson'
p1610
sVMN0000796690
p1611
S'Don Covay'
p1612
sVMN0000064509
p1613
S'Bobby Womack'
p1614
sVMN0000284263
p1615
S'Lorne Greene'
p1616
sVMN0000662067
p1617
S'Gravediggaz'
p1618
sVMN0000011052
p1619
S'Tracy Byrd'
p1620
sVMN0000068097
p1621
S'Bob Lind'
p1622
sVMN0000584923
p1623
S'Dave Edmunds'
p1624
sVMN0000554804
p1625
S'The Wreckers'
p1626
sVMN0000774588
p1627
S'Kris Kristofferson'
p1628
sVMN0000695401
p1629
S'Yvonne Fair'
p1630
sVMN0000167517
p1631
S'Dire Straits'
p1632
sVMN0000358408
p1633
S'Run-D.M.C.'
p1634
sVMN0000814898
p1635
S'Lee Dorsey'
p1636
sVMN0000925635
p1637
S'Sunshine Anderson'
p1638
sVMN0000181321
p1639
S'Graham Parker'
p1640
sVMN0000094752
p1641
S'LL Cool J'
p1642
sVMN0000864973
p1643
S'NewSong'
p1644
sVMN0000662797
p1645
S'Ginuwine'
p1646
sVMN0000630603
p1647
S'The Browns'
p1648
sVMN0000266063
p1649
S'Chris Brown Featuring Jay Biz'
p1650
sVMN0000840907
p1651
S'Jennifer Rush'
p1652
sVMN0000172582
p1653
S'Franz Ferdinand'
p1654
sVMN0000108256
p1655
S'Cheryl Lynn'
p1656
sVMN0000021050
p1657
S'Paul Lekakis'
p1658
sVMN0000372322
p1659
S'Natalie Merchant'
p1660
sVMN0000820434
p1661
S'Whitney Houston'
p1662
sVMN0000808304
p1663
S'Lou Gramm'
p1664
sVMN0000178750
p1665
S'Stacy Lattisaw'
p1666
sVMN0000155116
p1667
S'Spyder Turner'
p1668
sVMN0000106540
p1669
S'Kris Kross'
p1670
sVMN0000169818
p1671
S'Carl Thomas'
p1672
sVMN0000861252
p1673
S'Carrie Underwood'
p1674
sVMN0000576979
p1675
S'The Wombles'
p1676
sVMN0000840348
p1677
S'Velvet Revolver'
p1678
sVMN0000634180
p1679
S'Brownstone'
p1680
sVMN0000950805
p1681
S'Glass Tiger'
p1682
sVMN0000339624
p1683
S'Meat Loaf'
p1684
sVMN0000833539
p1685
S'Mark Morrison'
p1686
sVMN0000221894
p1687
S'MFSB'
p1688
sVMN0000988627
p1689
S'Fuel'
p1690
sVMN0000118664
p1691
S'Basia'
p1692
sVMN0000504815
p1693
S'Art Garfunkel'
p1694
sVMN0000744442
p1695
S'Alicia Bridges'
p1696
sVMN0000477410
p1697
S'The Orlons'
p1698
sVMN0000788126
p1699
S'Clay Davidson'
p1700
sVMN0000115140
p1701
S'Commander Cody And His Lost Planet Airmen'
p1702
sVMN0000325401
p1703
S'Petula Clark'
p1704
sVMN0000465822
p1705
S'Michael Peterson'
p1706
sVMN0000311674
p1707
S'Vanilla Fudge'
p1708
sVMN0000038321
p1709
S'Snow Patrol'
p1710
sVMN0000816890
p1711
S'Johnny Cash'
p1712
sVMN0000134729
p1713
S'Faith No More'
p1714
sVMN0000156161
p1715
S'Funkdoobiest'
p1716
sVMN0000801762
p1717
S'Floyd Cramer'
p1718
sVMN0000178536
p1719
S'Edgar Winter'
p1720
sVMN0000594665
p1721
S'Diana Ross'
p1722
sVMN0000935330
p1723
S'Toni Braxton'
p1724
sVMN0000762496
p1725
S'Folk Implosion'
p1726
sVMN0000026367
p1727
S'Skid Row'
p1728
sVMN0000531986
p1729
S'David Bowie'
p1730
sVMN0000312522
p1731
S'Van McCoy'
p1732
sVMN0000228715
p1733
S'Looking Glass'
p1734
sVMN0000732709
p1735
S'Taylor Hicks'
p1736
sVMN0000747967
p1737
S'Shelby Flint'
p1738
sVMN0000859868
p1739
S'Quiet Riot'
p1740
sVMN0000226714
p1741
S'Dem Franchize Boyz'
p1742
sVMN0000838524
p1743
S'Savoy Brown'
p1744
sVMN0000662438
p1745
S'Donnie Brooks'
p1746
sVMN0000400322
p1747
S'The Neon Philharmonic'
p1748
sVMN0000274822
p1749
S'Lonnie Mack'
p1750
sVMN0000160690
p1751
S'En Vogue'
p1752
sVMN0000059537
p1753
S'Blue Cheer'
p1754
sVMN0000098081
p1755
S'Engelbert Humperdinck'
p1756
sVMN0000165624
p1757
S'Change'
p1758
sVMN0000806645
p1759
S'Dr. Hook'
p1760
sVMN0000171117
p1761
S'Eddie Lovette'
p1762
sVMN0000246611
p1763
S'Judas Priest'
p1764
sVMN0000142106
p1765
S'Lauren Wood'
p1766
sVMN0000044751
p1767
S'Steve Wariner'
p1768
sVMN0000583959
p1769
S'Willie Nelson'
p1770
sVMN0000943827
p1771
S'Cake'
p1772
sVMN0000217792
p1773
S'Ringo Starr'
p1774
sVMN0000066915
p1775
S'Bob Dylan'
p1776
sVMN0000856640
p1777
S"Lil' Kim Featuring Puff Daddy"
p1778
sVMN0000626774
p1779
S'BulletBoys'
p1780
sVMN0000164594
p1781
S'Ben E. King'
p1782
sVMN0000503913
p1783
S'Mountain'
p1784
sVMN0000368522
p1785
S'Nancy Martinez'
p1786
sVMN0000149605
p1787
S'Clipse'
p1788
sVMN0000569685
p1789
S'The Temptations'
p1790
sVMN0000065590
p1791
S'The Flaming Lips'
p1792
sVMN0000345355
p1793
S'Melissa Etheridge'
p1794
sVMN0000137494
p1795
S'Fats Domino'
p1796
sVMN0000116178
p1797
S'Culture Club'
p1798
sVMN0000145920
p1799
S'The Ebonys'
p1800
sVMN0000792370
p1801
S'Clint Black'
p1802
sVMN0000013825
p1803
S'Splender'
p1804
sVMN0000919853
p1805
S'The Tokens'
p1806
sVMN0000403184
p1807
S'The Osmonds'
p1808
sVMN0000405655
p1809
S'Michael Stanley Band'
p1810
sVMN0000585249
p1811
S'Annie Lennox'
p1812
sVMN0000198480
p1813
S'Cat Stevens'
p1814
sVMN0000413000
p1815
S'The Notorious B.I.G. Featuring Diddy'
p1816
sVMN0000265456
p1817
S'Dion'
p1818
sVMN0000478982
p1819
S'A Tribe Called Quest'
p1820
sVMN0000208076
p1821
S'Luther Vandross'
p1822
sVMN0000493122
p1823
S'The Rascals'
p1824
sVMN0000826762
p1825
S'Digable Planets'
p1826
sVMN0000256349
p1827
S'Peggy Lee'
p1828
sVMN0000305468
p1829
S'Lita Ford'
p1830
sVMN0000865016
p1831
S'New Edition'
p1832
sVMN0000109025
p1833
S'Larry Groce'
p1834
sVMN0000894847
p1835
S'The Pointer Sisters'
p1836
sVMN0000678009
p1837
S'Henry Mancini'
p1838
sVMN0000075473
p1839
S'The Honeydrippers'
p1840
sVMN0000639304
p1841
S'Groove Theory'
p1842
sVMN0000020812
p1843
S'Slaughter'
p1844
sVMN0000350685
p1845
S'Twista Featuring Pitbull'
p1846
sVMN0000790833
p1847
S'Shalamar'
p1848
sVMN0000827367
p1849
S'Long John Baldry'
p1850
sVMN0000590575
p1851
S'YoungBloodZ Featuring Lil Jon'
p1852
sVMN0000358055
p1853
S'Kandi'
p1854
sVMN0000804703
p1855
S'GTR'
p1856
sVMN0000748222
p1857
S'Siouxsie and The Banshees'
p1858
sVMN0000945798
p1859
S'Candyman'
p1860
sVMN0000822910
p1861
S'Hoobastank'
p1862
sVMN0000057663
p1863
S'Blessid Union Of Souls'
p1864
sVMN0000254827
p1865
S'Diamond Rio'
p1866
sVMN0000851745
p1867
S'Jewel Akens'
p1868
sVMN0001009627
p1869
S'Rob Thomas'
p1870
sVMN0000584041
p1871
S'Ying Yang Twins'
p1872
sVMN0000546214
p1873
S'Pharrell Featuring Gwen Stefani'
p1874
sVMN0000638960
p1875
S'Buddy Greco'
p1876
sVMN0000148066
p1877
S'D.C. LaRue'
p1878
sVMN0000134600
p1879
S"D'Angelo"
p1880
sVMN0000751019
p1881
S'The Animals'
p1882
sVMN0000093215
p1883
S'Black Moon'
p1884
sVMN0000739702
p1885
S'Frozen Ghost'
p1886
sVMN0000019133
p1887
S'Ambrosia'
p1888
sVMN0000669303
p1889
S'Golden Earring'
p1890
sVMN0000570400
p1891
S'The Tuesdays'
p1892
sVMN0000162197
p1893
S'Ben Folds'
p1894
sVMN0000072999
p1895
S'The Happenings'
p1896
sVMN0000061582
p1897
S'Bobby Freeman'
p1898
sVMN0000196993
p1899
S'England Dan & John Ford Coley'
p1900
sVMN0000752470
p1901
S'The Ad Libs'
p1902
sVMN0000722133
p1903
S'Boys Like Girls'
p1904
sVMN0000218994
p1905
S'John Anderson'
p1906
sVMN0000502163
p1907
S'10cc'
p1908
sVMN0000413753
p1909
S'The Persuaders'
p1910
sVMN0000298764
p1911
S'Roxette'
p1912
sVMN0000046823
p1913
S'Benzino'
p1914
sVMN0000410219
p1915
S'Merle Haggard'
p1916
sVMN0000502371
p1917
S'Ciara Featuring Missy Elliott'
p1918
sVMN0000159805
p1919
S'Beats International'
p1920
sVMN0000762731
p1921
S'The Chi-Lites'
p1922
sVMN0000158407
p1923
S'Beau Coup'
p1924
sVMN0000835585
p1925
S'Loverboy'
p1926
sVMN0000957296
p1927
S'Herbie Hancock'
p1928
sVMN0000186597
p1929
S'Don Johnson'
p1930
sVMN0000962339
p1931
S'Dave Mason'
p1932
sVMN0000062002
p1933
S'Bachman-Turner Overdrive'
p1934
sVMN0000096679
p1935
S'Blackfoot'
p1936
sVMN0000317865
p1937
S'Jennifer Lopez Featuring Big Pun '
p1938
sVMN0000170214
p1939
S'Ferrante & Teicher'
p1940
sVMN0000170211
p1941
S'Eddie Kendricks'
p1942
sVMN0000468938
p1943
S'Bow Wow Featuring Omarion'
p1944
sVMN0000869649
p1945
S'No Mercy'
p1946
sVMN0000258000
p1947
S'T-Pain'
p1948
sVMN0000949780
p1949
S'Hanson'
p1950
sVMN0000220946
p1951
S'David Houston'
p1952
sVMN0000956093
p1953
S'Henry Lee Summer'
p1954
sVMN0000495366
p1955
S'The S.O.S. Band'
p1956
sVMN0000375782
p1957
S'N2Deep'
p1958
sVMN0000369133
p1959
S'Niteflyte'
p1960
sVMN0000886961
p1961
S'Relient K'
p1962
sVMN0000014784
p1963
S'Amanda Marshall'
p1964
sVMN0000042768
p1965
S'Benny Spellman'
p1966
sVMN0000251358
p1967
S'Leschea'
p1968
sVMN0000227527
p1969
S'Flatt & Scruggs'
p1970
sVMN0000167361
p1971
S'Dru Hill'
p1972
sVMN0000225413
p1973
S"Livin' Joy"
p1974
sVMN0000139089
p1975
S'Barenaked Ladies'
p1976
sVMN0000548196
p1977
S'Haddaway'
p1978
sVMN0000965206
p1979
S'Garnet Mimms'
p1980
sVMN0000048507
p1981
S'Sweet Sensation'
p1982
sVMN0000664817
p1983
S'Gloria Estefan'
p1984
sVMN0000773642
p1985
S'The Kingsmen'
p1986
sVMN0000875049
p1987
S'Rayvon'
p1988
sVMN0000817011
p1989
S'Was (Not Was)'
p1990
sVMN0000491288
p1991
S'Mike Post'
p1992
sVMN0000164053
p1993
S'Faith Evans'
p1994
sVMN0000136971
p1995
S'Tamiko Jones'
p1996
sVMN0000131650
p1997
S'Talking Heads'
p1998
sVMN0000012491
p1999
S'Taylor Dayne'
p2000
sVMN0000933772
p2001
S'Brand Nubian'
p2002
sVMN0000621869
p2003
S'Bobby Pinson'
p2004
sVMN0000675710
p2005
S'Marc Cohn'
p2006
sVMN0000945900
p2007
S'George McCrae'
p2008
sVMN0000200679
p2009
S'Twista'
p2010
sVMN0000213212
p2011
S'Janis Ian'
p2012
sVMN0000941579
p2013
S'Buck Owens'
p2014
sVMN0000670057
p2015
S'Dan Hartman'
p2016
sVMN0000768737
p2017
S'Icehouse'
p2018
sVMN0000933883
p2019
S'Al Stewart'
p2020
sVMN0000490004
p2021
S'The Ramones'
p2022
sVMN0000757085
p2023
S'Bangles'
p2024
sVMN0000592098
p2025
S'Sam Brown'
p2026
sVMN0000189644
p2027
S'Doris Day'
p2028
sVMN0000811622
p2029
S'John Denver'
p2030
sVMN0000210991
p2031
S"Destiny's Child"
p2032
sVMN0000926237
p2033
S'Third Eye Blind'
p2034
sVMN0000349180
p2035
S'Jimmy Barnes'
p2036
sVMN0000656081
p2037
S'Elliott Yamin'
p2038
sVMN0000256974
p2039
S'Wild Cherry'
p2040
sVMN0000090276
p2041
S'King Harvest'
p2042
sVMN0000171637
p2043
S'Duane Eddy'
p2044
sVMN0000181914
p2045
S'Ellen Foley'
p2046
sVMN0000129775
p2047
S'Parliament'
p2048
sVMN0000200074
p2049
S'Lenny Kravitz'
p2050
sVMN0000469519
p2051
S'Ashley Tisdale'
p2052
sVMN0000142531
p2053
S'James Darren'
p2054
sVMN0000820636
p2055
S'Diana DeGarmo'
p2056
sVMN0000029086
p2057
S'Snoop Dogg Featuring Xzibit '
p2058
sVMN0000159214
p2059
S'Dusty Springfield'
p2060
sVMN0000412538
p2061
S'Nine Days'
p2062
sVMN0000665364
p2063
S'Goanna'
p2064
sVMN0000057907
p2065
S'Betty Boo'
p2066
sVMN0000774145
p2067
S'Kimberley Locke'
p2068
sVMN0000085397
p2069
S'Kelis'
p2070
sVMN0000241498
p2071
S'Sam Salter'
p2072
sVMN0000127220
p2073
S'Jackie Moore'
p2074
sVMN0000379125
p2075
S'Neil Young'
p2076
sVMN0000175939
p2077
S'David Geddes'
p2078
sVMN0000787940
p2079
S'Levert'
p2080
sVMN0000655346
p2081
S'Gwen Guthrie'
p2082
sVMN0000020809
p2083
S'Shep & The Limelites'
p2084
sVMN0000790820
p2085
S'Tool'
p2086
sVMN0000648765
p2087
S'George LaMond'
p2088
sVMN0000690254
p2089
S'ZZ Top'
p2090
sVMN0000988005
p2091
S'Fotomaker'
p2092
sVMN0000772526
p2093
S'Irma Thomas'
p2094
sVMN0000240999
p2095
S'Mark Lindsay'
p2096
sVMN0000744265
p2097
S'Tony Joe White'
p2098
sVMN0000188467
p2099
S'John Parr'
p2100
sVMN0000337119
p2101
S'Phil Collins'
p2102
sVMN0000176358
p2103
S'Jamiroquai'
p2104
sVMN0000135306
p2105
S"The Cryan' Shames"
p2106
sVMN0000178799
p2107
S'Staind'
p2108
sVMN0000057124
p2109
S'The Chambers Brothers'
p2110
sVMN0000403794
p2111
S'Michel Polnareff'
p2112
sVMN0000152597
p2113
S'Before Dark'
p2114
sVMN0000086065
p2115
S'Ice Cube Featuring Das EFX'
p2116
sVMN0000576718
p2117
S'Seal'
p2118
sVMN0000082013
p2119
S'The Impressions'
p2120
sVMN0000303050
p2121
S'Rufus Thomas'
p2122
sVMN0000814852
p2123
S'John Sebastian'
p2124
sVMN0000174198
p2125
S'Edwin McCain'
p2126
sVMN0000015318
p2127
S'Travis Tritt'
p2128
sVMN0000778656
p2129
S'Cornelius Brothers & Sister Rose'
p2130
sVMN0000784814
p2131
S'The Cranberries'
p2132
sVMN0000732652
p2133
S'Kellie Pickler'
p2134
sVMN0000837946
p2135
S'Juice Newton'
p2136
sVMN0000101072
p2137
S'The Pussycat Dolls Featuring Timbaland'
p2138
sVMN0000193601
p2139
S'Gang Starr'
p2140
sVMN0000671953
p2141
S'Heart'
p2142
sVMN0000107090
p2143
S'Cher'
p2144
sVMN0000061480
p2145
S'The Guess Who'
p2146
sVMN0000238322
p2147
S'De La Soul'
p2148
sVMN0000241813
p2149
S'Johnny Burnette'
p2150
sVMN0000193025
p2151
S'Gregory Abbott'
p2152
sVMN0000128950
p2153
S'Earl-Jean'
p2154
sVMN0000334644
p2155
S'Jerry Reed'
p2156
sVMN0000852855
p2157
S'Roxy Music'
p2158
sVMN0000533551
p2159
S'Buckcherry'
p2160
sVMN0000219655
p2161
S'Little River Band'
p2162
sVMN0000393031
p2163
S'Ohio Express'
p2164
sVMN0000364878
p2165
S'Marvin Sapp'
p2166
sVMN0000394931
p2167
S'Randy Meisner'
p2168
sVMN0000282752
p2169
S'Robbie Dupree'
p2170
sVMN0000631774
p2171
S'The Byrds'
p2172
sVMN0000858375
p2173
S'Mary Chapin Carpenter'
p2174
sVMN0000082955
p2175
S'The Intruders'
p2176
sVMN0000079960
p2177
S'Boston'
p2178
sVMN0000560079
p2179
S'Godspell'
p2180
sVMN0000936206
p2181
S'Alabama'
p2182
sVMN0000577261
p2183
S'Mitch Miller'
p2184
sVMN0000817315
p2185
S'Weird Al Yankovic'
p2186
sVMN0000814220
p2187
S'Debby Boone'
p2188
sVMN0000296487
p2189
S'Roger Daltrey'
p2190
sVMN0000018419
p2191
S'Patti Drew'
p2192
sVMN0000417598
p2193
S'The Premiers'
p2194
sVMN0000923745
p2195
S'Aaron Carter'
p2196
sVMN0000062729
p2197
S'Bobby Sherman'
p2198
sVMN0000048300
p2199
S'Bar-Kays'
p2200
sVMN0000637022
p2201
S'The Capitols'
p2202
sVMN0000151979
p2203
S'Bay City Rollers'
p2204
sVMN0000778344
p2205
S'LaVern Baker'
p2206
sVMN0000077732
p2207
S'Bobby Vee'
p2208
sVMN0000308871
p2209
S'Little Anthony & The Imperials'
p2210
sVMN0000542976
p2211
S'Candi Staton'
p2212
sVMN0000509367
p2213
S'Al Martino'
p2214
sVMN0000227352
p2215
S'Hugo Montenegro'
p2216
sVMN0000069645
p2217
S'The Fireballs'
p2218
sVMN0000926428
p2219
S'Thomas Dolby'
p2220
sVMN0000798801
p2221
S'Don Ho'
p2222
sVMN0000544965
p2223
S'Daniel Powter'
p2224
sVMN0000664378
p2225
S'Glen Campbell'
p2226
sVMN0000039300
p2227
S'Peter Nero'
p2228
sVMN0000199090
p2229
S'Denise LaSalle'
p2230
sVMN0000163264
p2231
S'Cassidy'
p2232
sVMN0000086729
p2233
S'Bill Pursell'
p2234
sVMN0000035076
p2235
S'Soul II Soul'
p2236
sVMN0000612716
p2237
S'Tom Petty'
p2238
sVMN0000827760
p2239
S'Loose Ends'
p2240
sVMN0000237205
p2241
S'Madonna'
p2242
sVMN0000154297
p2243
S'Anna Nalick'
p2244
sVMN0000200791
p2245
S'Waylon Jennings'
p2246
sVMN0000894465
p2247
S'The Rolling Stones'
p2248
sVMN0000294085
p2249
S'Rodney Crowell'
p2250
sVMN0000297990
p2251
S'The Poppy Family'
p2252
sVMN0000200882
p2253
S'Gene Pitney'
p2254
sVMN0000844707
p2255
S'Ronnie Carroll'
p2256
sVMN0000128099
p2257
S'James Brown'
p2258
sVMN0000085410
p2259
S'Billy Joe Royal'
p2260
sVMN0000674749
p2261
S'The Manhattan Transfer'
p2262
sVMN0000368112
p2263
S'Martina McBride'
p2264
sVMN0000173647
p2265
S'Firefall'
p2266
sVMN0000556320
p2267
S'Glenn Yarbrough'
p2268
sVMN0000559405
p2269
S'Daddy Yankee'
p2270
sVMN0000120010
p2271
S'Jack Johnson'
p2272
sVMN0000252315
p2273
S'Diana King'
p2274
sVMN0000933781
p2275
S'Albert Hammond'
p2276
sVMN0000182900
p2277
S'Fleetwood Mac'
p2278
sVMN0000829523
p2279
S'Londonbeat'
p2280
sVMN0000924176
p2281
S'Aaron Lines'
p2282
sVMN0000065397
p2283
S'Bobbie Gentry'
p2284
sVMN0000686897
p2285
S'Linda Ronstadt'
p2286
sVMN0000233228
p2287
S'Lou Rawls'
p2288
sVMN0000620386
p2289
S'Tommy James'
p2290
sVMN0000045313
p2291
S'Steve Winwood'
p2292
sVMN0000384883
p2293
S'Mary Travers'
p2294
sVMN0000280061
p2295
S'Joshua Kadison'
p2296
sVMN0000830653
p2297
S'Sailcat'
p2298
sVMN0000168958
p2299
S'Eddie Floyd'
p2300
sVMN0001162681
p2301
S'C+C Music Factory'
p2302
sVMN0000245760
p2303
S'Les McCann'
p2304
sVMN0000677241
p2305
S'Lyfe Jennings'
p2306
sVMN0000752673
p2307
S'Steve Forbert'
p2308
sVMN0000216978
p2309
S'U.N.V.'
p2310
sVMN0000053606
p2311
S'Bloodstone'
p2312
sVMN0000475459
p2313
S'The String-A-Longs'
p2314
sVMN0000020050
p2315
S'Ten Years After'
p2316
sVMN0000883318
p2317
S'Red Hot Chili Peppers'
p2318
sVMN0000861351
p2319
S'Fat Joe Featuring Nelly'
p2320
sVMN0000322092
p2321
S'Peter Cetera'
p2322
sVMN0000527463
p2323
S'Bull Moose Jackson'
p2324
sVMN0000553483
p2325
S'Happy Mondays'
p2326
sVMN0000794306
p2327
S'EMF'
p2328
sVMN0000546678
p2329
S'Lonnie Gordon'
p2330
sVMN0000060476
p2331
S'The Friends Of Distinction'
p2332
sVMN0000752789
p2333
S'Smif-N-Wessun'
p2334
sVMN0000304401
p2335
S'Procol Harum'
p2336
sVMN0000789064
p2337
S'Extreme'
p2338
sVMN0000321321
p2339
S'Lulu'
p2340
sVMN0000959876
p2341
S'Wu-Tang Clan'
p2342
sVMN0000381689
p2343
S'Bo Bice'
p2344
sVMN0000784732
p2345
S'Joe Jackson'
p2346
sVMN0000357419
p2347
S'Jimmy Elledge'
p2348
sVMN0000942580
p2349
S'Burton Cummings'
p2350
sVMN0000215058
p2351
S'Jars Of Clay'
p2352
sVMN0000002923
p2353
S"T'Pau"
p2354
sVMN0000199995
p2355
S'Genesis'
p2356
sVMN0000121236
p2357
S'Cartel'
p2358
sVMN0000106916
p2359
S'Chris Cagle'
p2360
sVMN0000747757
p2361
S'Split Enz'
p2362
sVMN0000224257
p2363
S'Jay-Z'
p2364
sVMN0000740499
p2365
S'Grand Puba'
p2366
sVMN0000193320
p2367
S'Def Leppard'
p2368
sVMN0000334740
p2369
S'Ronnie Milsap'
p2370
sVMN0000509156
p2371
S'Mudvayne'
p2372
sVMN0000929862
p2373
S'Afrika Bambaataa'
p2374
sVMN0000488908
p2375
S'Petey Pablo'
p2376
sVMN0000153526
p2377
S'Cliff Richard'
p2378
sVMN0000012307
p2379
S'Tracie Spencer'
p2380
sVMN0000852007
p2381
S'Roy Orbison'
p2382
sVMN0000180228
p2383
S'Elvis Presley'
p2384
sVMN0000246628
p2385
S'Johnny Nash'
p2386
sVMN0000361393
p2387
S'Prince'
p2388
sVMN0000080428
p2389
S'The Lettermen'
p2390
sVMN0000536275
p2391
S'Sweet'
p2392
sVMN0000234844
p2393
S'Debbie Harry'
p2394
sVMN0000317108
p2395
S'Jeffrey Osborne'
p2396
sVMN0000352575
p2397
S'Men At Large'
p2398
sVMN0000414700
p2399
S'Mike Jones'
p2400
sVMN0000165076
p2401
S'Stacey Q'
p2402
sVMN0000165077
p2403
S'Stacie Orrico'
p2404
sVMN0000314346
p2405
S'Little Jimmy Dickens'
p2406
sVMN0000485135
p2407
S'311'
p2408
sVMN0000807361
p2409
S'Tyrese'
p2410
sVMN0000757136
p2411
S'The Blackout Allstars'
p2412
sVMN0000248920
p2413
S'Sara Evans'
p2414
sVMN0000842802
p2415
S'Peter Gabriel'
p2416
sVMN0000610706
p2417
S'Bread'
p2418
sVMN0000294891
p2419
S'Salt-N-Pepa'
p2420
sVMN0000059819
p2421
S'Betty Wright'
p2422
sVMN0000830538
p2423
S'Robert Plant'
p2424
sVMN0000521674
p2425
S'The Brecker Brothers'
p2426
sVMN0000795053
p2427
S'Fantasia'
p2428
sVMN0000027136
p2429
S'Paulina Rubio'
p2430
sVMN0000929043
p2431
S'After The Fire'
p2432
sVMN0000578999
p2433
S'Aaliyah'
p2434
sVMN0000286518
p2435
S'Platinum Blonde'
p2436
sVMN0000986573
p2437
S'The Red Jumpsuit Apparatus'
p2438
sVMN0000754055
p2439
S'Sophie B. Hawkins'
p2440
sVMN0000327735
p2441
S'REO Speedwagon'
p2442
sVMN0000049374
p2443
S'Simple Minds'
p2444
sVMN0000797431
p2445
S'Elastica'
p2446
sVMN0000510805
p2447
S'Toby Keith'
p2448
sVMN0000497426
p2449
S'The Singing Nun'
p2450
sVMN0000129551
p2451
S'Crossfade'
p2452
sVMN0000919805
p2453
S"Lil' Kim Featuring 50 Cent"
p2454
sVMN0000490738
p2455
S'Monica'
p2456
sVMN0000058035
p2457
S'The Chiffons'
p2458
sVMN0002556485
p2459
S'Surface'
p2460
sVMN0000026504
p2461
S'Slum Village Featuring Dwele'
p2462
sVMN0000882782
p2463
S'Noel Harrison'
p2464
sVMN0000050656
p2465
S'B. Bumble & The Stingers'
p2466
sVMN0000190946
p2467
S'Lefty Frizzell'
p2468
sVMN0000409954
p2469
S'Ray Price'
p2470
sVMN0000290390
p2471
S'Los Bravos'
p2472
sVMN0000656130
p2473
S'Chuck Wicks'
p2474
sVMN0000771136
p2475
S'Jimmy Somerville'
p2476
sVMN0001523463
p2477
S'O.M.D.'
p2478
sVMN0000424244
p2479
S'Ozzy Osbourne'
p2480
sVMN0000359559
p2481
S'Karyn White'
p2482
sVMN0000069813
p2483
S'Paula DeAnda Featuring Baby Bash'
p2484
sVMN0000849405
p2485
S'Marques Houston Featuring Joe Budden & Pied Piper'
p2486
sVMN0000343930
p2487
S'The Jesus and Mary Chain'
p2488
sVMN0000866417
p2489
S'Maxi Priest'
p2490
sVMN0000775323
p2491
S'Chris Isaak'
p2492
sVMN0000123360
p2493
S'Chris Walker'
p2494
sVMN0000198162
p2495
S'Johnnie Taylor'
p2496
sVMN0000281254
p2497
S'Lonestar'
p2498
sVMN0000184811
p2499
S'Erasure'
p2500
sVMN0000780258
p2501
S'Christina Aguilera'
p2502
sVMN0000587982
p2503
S'Abra Moore'
p2504
sVMN0000766066
p2505
S'Bobby Vinton'
p2506
sVMN0000046784
p2507
S'Syl Johnson'
p2508
sVMN0000371582
p2509
S'Nappy Roots'
p2510
sVMN0000110161
p2511
S'Chicago'
p2512
sVMN0000169124
p2513
S'Eddie Harris'
p2514
sVMN0000100196
p2515
S'Chubb Rock'
p2516
sVMN0000140608
p2517
S"dog's eye view"
p2518
sVMN0000377035
p2519
S'Mass Production'
p2520
sVMN0000126048
p2521
S'The Fabulous Thunderbirds'
p2522
sVMN0000787960
p2523
S'Joe Diffie'
p2524
sVMN0000359179
p2525
S'Karla Bonoff'
p2526
sVMN0000607448
p2527
S'Al Green'
p2528
sVMN0000806829
p2529
S"Jane's Addiction"
p2530
sVMN0000134761
p2531
S'Pat Green'
p2532
sVMN0000006987
p2533
S'Alias'
p2534
sVMN0000782285
p2535
S'Crucial Conflict'
p2536
sVMN0000873085
p2537
S'Men At Work'
p2538
sVMN0000303506
p2539
S'Usher'
p2540
sVMN0000898828
p2541
S'The Searchers'
p2542
sVMN0000047789
p2543
S'Bodeans'
p2544
sVMN0000179205
p2545
S'Don McLean'
p2546
sVMN0001497537
p2547
S'John Mayer Trio'
p2548
sVMN0000141774
p2549
S'Curtis Stigers'
p2550
sVMN0000263271
p2551
S'Lifehouse'
p2552
sVMN0000177122
p2553
S'Fat Joe'
p2554
sVMN0000018258
p2555
S'Teena Marie'
p2556
sVMN0000621112
p2557
S'Mya'
p2558
sVMN0000099888
p2559
S'The Knickerbockers'
p2560
sVMN0000931015
p2561
S'Tom Cochrane'
p2562
sVMN0000292243
p2563
S'Polly Brown'
p2564
sVMN0000187478
p2565
S'Eric Clapton'
p2566
sVMN0000567862
p2567
S'A Flock Of Seagulls'
p2568
sVMN0000802302
p2569
S'De La Soul Featuring Chaka Khan'
p2570
sVMN0000099246
p2571
S'Concrete Blonde'
p2572
sVMN0000232679
p2573
S'John Kongos'
p2574
sVMN0000174155
p2575
S'Fred Schneider'
p2576
sVMN0000066429
p2577
S'Bobby Bare'
p2578
sVMN0000368367
p2579
S'Nancy Wilson'
p2580
sVMN0000189582
p2581
S'LeToya'
p2582
sVMN0000043444
p2583
S'Steve Martin'
p2584
sVMN0000112462
p2585
S'Cream'
p2586
sVMN0000101946
p2587
S'Isaac Hayes'
p2588
sVMN0000307461
p2589
S'Van Morrison'
p2590
sVMN0000302106
p2591
S'Lisa Stansfield'
p2592
sVMN0000480108
p2593
S'A-Ha'
p2594
sVMN0000075100
p2595
S'Bad Company'
p2596
sVMN0000263019
p2597
S'Jonathan King'
p2598
sVMN0000062412
p2599
S'Avant'
p2600
sVMN0000135032
p2601
S'The Beau Brummels'
p2602
sVMN0000923384
p2603
S'Molly Hatchet'
p2604
sVMN0000289685
p2605
S'Robyn'
p2606
sVMN0000498987
p2607
S'SWV'
p2608
sVMN0000659517
p2609
S'Grand Funk Railroad'
p2610
sVMN0000944084
p2611
S'George Strait'
p2612
sVMN0000758453
p2613
S'Blues Traveler'
p2614
sVMN0000179730
p2615
S'Charlie Rich'
p2616
sVMN0000069534
p2617
S'Bon Jovi'
p2618
sVMN0000031008
p2619
S'Andrew Gold'
p2620
sVMN0000661524
p2621
S'Donna Summer'
p2622
sVMN0000057840
p2623
S'B.J. Thomas'
p2624
sVMN0000049367
p2625
S'The Blackbyrds'
p2626
sVMN0000633313
p2627
S'Katharine McPhee'
p2628
sVMN0000855531
p2629
S'Barbra Streisand'
p2630
sVMN0000017929
p2631
S'Patti Austin'
p2632
sVMN0000220194
p2633
S'MC Eiht'
p2634
sVMN0000182360
p2635
S'Donny Hathaway'
p2636
sVMN0000086927
p2637
S'Kelly Clarkson'
p2638
sVMN0000837486
p2639
S'Utopia'
p2640
sVMN0000568861
p2641
S'The Sweet Inspirations'
p2642
sVMN0000869409
p2643
S'Melba Moore'
p2644
sVMN0000635466
p2645
S'Bubba Sparxxx'
p2646
sVMN0000618713
p2647
S'Aldo Nova'
p2648
sVMN0000070800
p2649
S'Billy Idol'
p2650
sVMN0000376613
p2651
S'Q-Tip'
p2652
sVMN0000406657
p2653
S'Meredith Brooks'
p2654
sVMN0000051828
p2655
S'Cassidy Featuring Swizz Beatz'
p2656
sVMN0000379669
p2657
S'Naughty By Nature'
p2658
sVMN0000662545
p2659
S'Glenn Lewis'
p2660
sVMN0000689606
p2661
S'Christina Milian Featuring Young Jeezy'
p2662
sVMN0000038182
p2663
S'The Bachelors'
p2664
sVMN0000524239
p2665
S'Brook Benton'
p2666
sVMN0000290072
p2667
S'Roberta Flack'
p2668
sVMN0000861757
p2669
S'David Foster'
p2670
sVMN0000023925
p2671
S'Stephen Bishop'
p2672
sVMN0000270162
p2673
S'Lil Scrappy'
p2674
sVMN0000075540
p2675
S'Bobby Goldsboro'
p2676
sVMN0000813463
p2677
S'John Waite'
p2678
sVMN0000073682
p2679
S'Trina Featuring Kelly Rowland'
p2680
sVMN0000771905
p2681
S'Bowling For Soup'
p2682
sVMN0000463803
p2683
S"Ol' Dirty Bastard"
p2684
sVMN0000572106
p2685
S'The Three Degrees'
p2686
sVMN0000412710
p2687
S'Milli Vanilli'
p2688
sVMN0000563349
p2689
S'Dan Seals'
p2690
sVMN0000739742
p2691
S'Jibbs'
p2692
sVMN0000149515
p2693
S'Joe Cocker'
p2694
sVMN0000219287
p2695
S'Jane Olivor'
p2696
sVMN0000988471
p2697
S'Enya'
p2698
sVMN0000197867
p2699
S'The Hullaballoos'
p2700
sVMN0000075308
p2701
S'The Jeff Healey Band'
p2702
sVMN0000267814
p2703
S'Hot Chocolate'
p2704
sVMN0000145180
p2705
S'The Emotions'
p2706
sVMN0000036106
p2707
S'Steve Miller Band'
p2708
sVMN0000841286
p2709
S'Jenny Burton'
p2710
sVMN0000407101
p2711
S'Nicolette Larson'
p2712
sVMN0000774956
p2713
S'Chris Kenner'
p2714
sVMN0000125506
p2715
S'Jagged Edge'
p2716
sVMN0000977198
p2717
S'Vanessa Hudgens'
p2718
sVMN0000757157
p2719
S'Simply Red'
p2720
sVMN0000963005
p2721
S'Will Smith Featuring Tra-Knox'
p2722
sVMN0000390390
p2723
S'Ohio Players'
p2724
sVMN0000297702
p2725
S'Sammy Hagar'
p2726
sVMN0000749970
p2727
S'Ted Nugent'
p2728
sVMN0000169228
p2729
S'Dionne Farris'
p2730
sVMN0000832833
p2731
S'Samantha Mumba'
p2732
sVMN0000424296
p2733
S'The Righteous Brothers'
p2734
sVMN0000081619
p2735
S'Keith Urban'
p2736
sVMN0000046861
p2737
S'Ray Charles'
p2738
sVMN0000608945
p2739
S'Brandy'
p2740
sVMN0000575012
p2741
S'Darlene Love'
p2742
sVMN0000892771
p2743
S"The O'Jays"
p2744
sVMN0000194063
p2745
S'Lee Ann Womack'
p2746
sVMN0000205851
p2747
S'Grin'
p2748
sVMN0000186805
p2749
S'Eric Carmen'
p2750
sVMN0000813731
p2751
S'Debbie Gibson'
p2752
sVMN0000121157
p2753
S'The Contours'
p2754
sVMN0000219428
p2755
S'Uncle Kracker'
p2756
sVMN0003018652
p2757
S'Peter Shelley'
p2758
sVMN0000128440
p2759
S'Duran Duran'
p2760
sVMN0000019083
p2761
S'Paul Davis'
p2762
sVMN0000158540
p2763
S'Gavin DeGraw'
p2764
sVMN0000802464
p2765
S'Freedy Johnston'
p2766
sVMN0000307049
p2767
S'Public Announcement'
p2768
sVMN0000227088
p2769
S'Deana Carter'
p2770
sVMN0000931202
p2771
S'Arthur Alexander'
p2772
sVMN0000138407
p2773
S'The Dramatics'
p2774
sVMN0000193305
p2775
S'Cassie'
p2776
sVMN0000088778
p2777
S'Jimmy Ray'
p2778
sVMN0000651549
p2779
S'Gwen McCrae'
p2780
sVMN0000619388
p2781
S'Alejandro Sanz'
p2782
sVMN0000672656
p2783
S'Crime Mob Featuring Lil Scrappy'
p2784
sVMN0000081832
p2785
S'Kenny Loggins'
p2786
sVMN0000667738
p2787
S'Dan Hill'
p2788
sVMN0000566430
p2789
S'Mobb Deep Featuring Vita & Noyd'
p2790
sVMN0000224186
p2791
S'John Mellencamp'
p2792
sVMN0000743968
p2793
S'Patrice Rushen'
p2794
sVMN0000271029
p2795
S'Esther Phillips'
p2796
sVMN0000194246
p2797
S'Garbage'
p2798
sVMN0000246885
p2799
S'Johnny Mathis'
p2800
sVMN0000013589
p2801
S'Alvin Cash'
p2802
sVMN0000509356
p2803
S'Atlantic Starr'
p2804
sVMN0000773442
p2805
S'Chingy'
p2806
sVMN0000165011
p2807
S'Dionne Warwick'
p2808
sVMN0000807869
p2809
S'Joe Nichols'
p2810
sVMN0000017021
p2811
S'Tenacious D'
p2812
sVMN0000812711
p2813
S'Death Cab For Cutie'
p2814
sVMN0000692251
p2815
S'The Youngbloods'
p2816
sVMN0000949630
p2817
S'Goo Goo Dolls'
p2818
sVMN0000245049
p2819
S'Johnny Cymbal'
p2820
sVMN0000806542
p2821
S'Etta James'
p2822
sVMN0000174557
p2823
S'Carole King'
p2824
sVMN0000895677
p2825
S'Teddy Geiger'
p2826
sVMN0000002273
p2827
S'Allan Sherman'
p2828
sVMN0000597585
p2829
S'Tina Arena'
p2830
sVMN0000777210
p2831
S'Kool & The Gang'
p2832
sVMN0000831733
p2833
S'Lindsay Lohan'
p2834
sVMN0000151549
p2835
S'Belinda Carlisle'
p2836
sVMN0000807949
p2837
S'Underworld'
p2838
sVMN0000640261
p2839
S'Buddy Jewell'
p2840
sVMN0000070929
p2841
S'The Jacksons'
p2842
sVMN0000310941
p2843
S'Puff Johnson'
p2844
sVMN0000830464
p2845
S'Ron Holden'
p2846
sVMN0000260384
p2847
S'Julian Lennon'
p2848
sVMN0000796741
p2849
S'Eddy Arnold'
p2850
sVMN0002901281
p2851
S'Little Junior Parker'
p2852
sVMN0000366407
p2853
S'Nancy Sinatra'
p2854
sVMN0000987777
p2855
S'Donell Jones'
p2856
sVMN0000227988
p2857
S'House Of Pain'
p2858
sVMN0000674150
p2859
S'Helen Reddy'
p2860
sVMN0000628981
p2861
S'The Buckinghams'
p2862
sVMN0001649799
p2863
S'Sonny Charles'
p2864
sVMN0000332257
p2865
S'Neneh Cherry'
p2866
sVMN0000934367
p2867
S'Breaking Benjamin'
p2868
sVMN0000201760
p2869
S'George Benson'
p2870
sVMN0000860561
p2871
S'The Fray'
p2872
sVMN0000050520
p2873
S'Bettye Swann'
p2874
sVMN0000029884
p2875
S'Paul McCartney'
p2876
sVMN0000113753
p2877
S'Lauryn Hill'
p2878
sVMN0000792530
p2879
S'Tori Amos'
p2880
sVMN0000731084
p2881
S'Ann-Margret'
p2882
sVMN0000016227
p2883
S'Tavares'
p2884
sVMN0000289599
p2885
S'Linkin Park'
p2886
sVMN0000749167
p2887
S'Trini Lopez'
p2888
sVMN0000199162
p2889
S'Vicious'
p2890
sVMN0000841870
p2891
S'Jennifer Paige'
p2892
sVMN0000355998
p2893
S'Ruben Studdard'
p2894
sVMN0000391586
p2895
S'James Blunt'
p2896
sVMN0000467203
p2897
S'Michael Jackson'
p2898
sVMN0000146841
p2899
S'Cyndi Thomson'
p2900
sVMN0002313776
p2901
S'Rhinoceros'
p2902
sVMN0000105129
p2903
S'Collective Soul'
p2904
sVMN0000305541
p2905
S'Percy Faith'
p2906
sVMN0000622805
p2907
S'Stevie Wonder'
p2908
sVMN0000266151
p2909
S'Little Texas'
p2910
sVMN0000071812
p2911
S'The Four Tops'
p2912
sVMN0000743623
p2913
S'Spacehog'
p2914
sVMN0000294377
p2915
S'Linda Clifford'
p2916
sVMN0000162415
p2917
S'Dorothy Moore'
p2918
sVMN0000934069
p2919
S'Brenda Lee'
p2920
sVMN0000355208
p2921
S'Porno For Pyros'
p2922
sVMN0000198783
p2923
S'Johnny Horton'
p2924
sVMN0000324854
p2925
S'Jermaine Jackson'
p2926
sVMN0000758317
p2927
S'Bertha Tillman'
p2928
sVMN0000678167
p2929
S'Das EFX'
p2930
sVMN0000133987
p2931
S'Clint Holmes'
p2932
sVMN0000053739
p2933
S'Bette Midler'
p2934
sVMN0000895074
p2935
S'The Romantics'
p2936
sVMN0000814657
p2937
S'Mahalia Jackson'
p2938
sVMN0000785585
p2939
S'Claude Gray'
p2940
sVMN0000774941
p2941
S'Collin Raye'
p2942
sVMN0000459616
p2943
S'Michael McDonald'
p2944
sVMN0000225930
p2945
S'Liz Phair'
p2946
sVMN0000000534
p2947
S'All Saints'
p2948
sVMN0000026952
p2949
S'Smokie Norful'
p2950
sVMN0000150048
p2951
S'Enigma'
p2952
sVMN0000118791
p2953
S'LeAnn Rimes'
p2954
sVMN0000125352
p2955
S'Barbara Fairchild'
p2956
sVMN0000927555
p2957
S'Aretha Franklin'
p2958
sVMN0000224294
p2959
S'John Fogerty'
p2960
sVMN0000846113
p2961
S"Philly's Most Wanted"
p2962
sVMN0000175579
p2963
S'Disturbed'
p2964
sVMN0000767016
p2965
S'Keith Sweat'
p2966
sVMN0002447909
p2967
S'Haircut One Hundred'
p2968
sVMN0000347151
p2969
S'Jewel'
p2970
sVMN0000820232
p2971
S'Dick Dale'
p2972
sVMN0000053428
p2973
S'Blue Magic'
p2974
sVMN0000019323
p2975
S'Tatyana Ali'
p2976
sVMN0000021334
p2977
S'Stephanie Mills'
p2978
sVMN0000785101
p2979
S'Bananarama'
p2980
sVMN0000853492
p2981
S'Marshall Crenshaw'
p2982
sVMN0000246960
p2983
S'Wham!'
p2984
sVMN0000798809
p2985
S'Freddie Scott'
p2986
sVMN0000682056
p2987
S'Xzibit'
p2988
sVMN0000334770
p2989
S'Ramsey Lewis'
p2990
sVMN0001193500
p2991
S'Hughes/Thrall'
p2992
sVMN0000258276
p2993
S'Digital Underground'
p2994
sVMN0000019740
p2995
S'Amerie'
p2996
sVMN0000262255
p2997
S'Mariah Carey'
p2998
sVMN0000741718
p2999
S'P.M. Dawn'
p3000
sVMN0000130689
p3001
S'Jackson Browne'
p3002
sVMN0000138699
p3003
S'Frank Zappa'
p3004
sVMN0000183311
p3005
S'Fine Young Cannibals'
p3006
sVMN0000359966
p3007
S'Rickie Lee Jones'
p3008
sVMN0000153590
p3009
S'Graham Nash'
p3010
sVMN0000816538
p3011
S'Johnny Bristol'
p3012
sVMN0001824897
p3013
S'Kimberly Scott'
p3014
sVMN0000075825
p3015
S'The Coasters'
p3016
sVMN0000757328
p3017
S'The Marketts'
p3018
sVMN0000890724
p3019
S'The Originals'
p3020
sVMN0000110011
p3021
S'Crazy Town'
p3022
s.