(dp0
VMN0000484145
p1
S'The Partridge Family'
p2
sVMN0000855423
p3
S'Kate Bush'
p4
sVMN0000665364
p5
S'Goanna'
p6
sVMN0000028432
p7
S'Sneaker Pimps'
p8
sVMN0000808003
p9
S"Jamie O'Neal"
p10
sVMN0000059350
p11
S'The Fifth Estate'
p12
sVMN0000768349
p13
S'Isyss'
p14
sVMN0000900303
p15
S'2 In A Room'
p16
sVMN0000096964
p17
S'Boz Scaggs'
p18
sVMN0000498961
p19
S"'Til Tuesday"
p20
sVMN0001928494
p21
S'Sweet Dreams'
p22
sVMN0000530745
p23
S'Bruce Springsteen'
p24
sVMN0000775877
p25
S'Coldplay'
p26
sVMN0000451167
p27
S'Asher Roth'
p28
sVMN0000317020
p29
S"Quad City DJ's"
p30
sVMN0000231342
p31
S'Deee-Lite'
p32
sVMN0000286012
p33
S'Mark Dinning'
p34
sVMN0000788508
p35
S'Beenie Man'
p36
sVMN0000868174
p37
S'Rascal Flatts'
p38
sVMN0000274637
p39
S'Mario'
p40
sVMN0000680907
p41
S'William DeVaughn'
p42
sVMN0000278880
p43
S'Philly Cream'
p44
sVMN0000812418
p45
S'Lee Michaels'
p46
sVMN0000062270
p47
S'Bobby Rydell'
p48
sVMN0000112537
p49
S'Creative Source'
p50
sVMN0000794846
p51
S'Eddie Rabbitt'
p52
sVMN0000025899
p53
S'Technotronic Featuring Ya Kid K'
p54
sVMN0000757070
p55
S'Steve Perry'
p56
sVMN0000387973
p57
S'Raekwon'
p58
sVMN0000064000
p59
S'The Flirtations'
p60
sVMN0000297955
p61
S'The Rubinoos'
p62
sVMN0000491565
p63
S'The Power Station'
p64
sVMN0000017748
p65
S'Patti LaBelle'
p66
sVMN0000057907
p67
S'Betty Boo'
p68
sVMN0000661318
p69
S'Giggles'
p70
sVMN0000603980
p71
S'Tiny Tim'
p72
sVMN0000500646
p73
S'Motherlode'
p74
sVMN0000149990
p75
S'The Edsels'
p76
sVMN0000377891
p77
S'Nazareth'
p78
sVMN0000308742
p79
S'Julian Cope'
p80
sVMN0000049180
p81
S'Betty Harris'
p82
sVMN0001177706
p83
S'Stabilizers'
p84
sVMN0000838327
p85
S'Savage Garden'
p86
sVMN0000922471
p87
S'Sean Kingston Featuring Elan & Juelz Santana'
p88
sVMN0000167399
p89
S'Marvin Hamlisch'
p90
sVMN0000079651
p91
S'Bonnie Pointer'
p92
sVMN0000136871
p93
S'The Doobie Brothers'
p94
sVMN0000380106
p95
S'Nektar'
p96
sVMN0000189701
p97
S'Jean Shepard'
p98
sVMN0002315081
p99
S'The Sevilles'
p100
sVMN0000051736
p101
S'The Manhattans'
p102
sVMN0001268371
p103
S'Chris Hodge'
p104
sVMN0000409968
p105
S'Reba McEntire'
p106
sVMN0000681964
p107
S'Wreckx-N-Effect'
p108
sVMN0000750456
p109
S'Paul Revere & The Raiders'
p110
sVMN0000012472
p111
S'Traffic'
p112
sVMN0000011754
p113
S'Sheena Easton'
p114
sVMN0000354581
p115
S'Men Of Vizion'
p116
sVMN0000749571
p117
S'Skillet'
p118
sVMN0000034382
p119
S'Paul Young'
p120
sVMN0000780451
p121
S'Conway Twitty'
p122
sVMN0000559405
p123
S'Daddy Yankee'
p124
sVMN0000117272
p125
S'Connie Stevens'
p126
sVMN0000658950
p127
S'DJ Quik'
p128
sVMN0000796281
p129
S'Five For Fighting'
p130
sVMN0000812568
p131
S'Mable John'
p132
sVMN0000536754
p133
S'Burl Ives'
p134
sVMN0000137474
p135
S'Laura Nyro'
p136
sVMN0000127451
p137
S'Jackie DeShannon'
p138
sVMN0000884745
p139
S'Landon Pigg'
p140
sVMN0000123754
p141
S'Christopher Cross'
p142
sVMN0000755776
p143
S'Simon Stokes'
p144
sVMN0000191069
p145
S'Debbie Dean'
p146
sVMN0000623567
p147
S'Secondhand Serenade'
p148
sVMN0000201716
p149
S'Ty Herndon'
p150
sVMN0000006414
p151
S'Sharon Bryant'
p152
sVMN0000776371
p153
S'Color Me Badd'
p154
sVMN0000262794
p155
S'Hootie & The Blowfish'
p156
sVMN0000234647
p157
S'Deborah Cox'
p158
sVMN0000851184
p159
S'Richard Chamberlain'
p160
sVMN0000016235
p161
S'Tony Orlando'
p162
sVMN0000792507
p163
S'Frank Sinatra'
p164
sVMN0000936983
p165
S'Marty Balin'
p166
sVMN0000502806
p167
S'The Rivingtons'
p168
sVMN0000532487
p169
S'David Cassidy'
p170
sVMN0000060012
p171
S'Autograph'
p172
sVMN0000506362
p173
S'Timex Social Club'
p174
sVMN0000766893
p175
S'The Isley Brothers'
p176
sVMN0000290299
p177
S'Samantha Sang'
p178
sVMN0000533117
p179
S'Ice Cube Featuring George Clinton'
p180
sVMN0000020278
p181
S'Teddy Pendergrass'
p182
sVMN0000175939
p183
S'David Geddes'
p184
sVMN0000341652
p185
S'Roy Clark'
p186
sVMN0000670226
p187
S'The Killers'
p188
sVMN0000180617
p189
S'Carolyn Dawn Johnson'
p190
sVMN0000188432
p191
S'David Sanborn'
p192
sVMN0000624504
p193
S'The Box Tops'
p194
sVMN0000039637
p195
S'Survivor'
p196
sVMN0000405142
p197
S'Ray J'
p198
sVMN0000233467
p199
S'John Rich'
p200
sVMN0000354105
p201
S'Jimi Hendrix'
p202
sVMN0000639056
p203
S'Bush'
p204
sVMN0000198901
p205
S'Webb Pierce'
p206
sVMN0000830617
p207
S'Sagittarius'
p208
sVMN0000105354
p209
S'Cheap Trick'
p210
sVMN0000122754
p211
S'Cyndi Lauper'
p212
sVMN0000100854
p213
S'Jimmy Witherspoon'
p214
sVMN0000678408
p215
S'Herbie Mann'
p216
sVMN0000006321
p217
S'Tanya Blount'
p218
sVMN0000318771
p219
S'Marva Whitney'
p220
sVMN0000102835
p221
S'Chocolate Milk'
p222
sVMN0000073666
p223
S'Baby Washington'
p224
sVMN0000192143
p225
S'The Gregg Allman Band'
p226
sVMN0000755519
p227
S'Soul Asylum'
p228
sVMN0000850692
p229
S'Jethro Tull'
p230
sVMN0000535623
p231
S'George Baker Selection'
p232
sVMN0000652598
p233
S'Guy Mitchell'
p234
sVMN0000766094
p235
S'Commodores'
p236
sVMN0000988692
p237
S'Grapefruit'
p238
sVMN0000266129
p239
S'Jennifer Hudson'
p240
sVMN0000628684
p241
S'The Brand New Heavies'
p242
sVMN0000938487
p243
S'Mr. Vegas'
p244
sVMN0001608941
p245
S'M/A/R/R/S'
p246
sVMN0000571797
p247
S'Daryl Braithwaite'
p248
sVMN0000794449
p249
S'Frankie Valli'
p250
sVMN0001192321
p251
S'Pages'
p252
sVMN0000624215
p253
S'The Brothers Johnson'
p254
sVMN0000104535
p255
S'The Lady Of Rage'
p256
sVMN0000087985
p257
S'The Hollies'
p258
sVMN0000406294
p259
S'Megadeth'
p260
sVMN0000254997
p261
S'We Five'
p262
sVMN0002165952
p263
S'Justin Bieber'
p264
sVMN0001003559
p265
S'Shontelle'
p266
sVMN0000178122
p267
S'Filter'
p268
sVMN0000125561
p269
S'Cinderella'
p270
sVMN0000780192
p271
S'Coo Coo Cal'
p272
sVMN0000557674
p273
S'Hamilton Camp'
p274
sVMN0000015614
p275
S'Shawn Christopher'
p276
sVMN0000125569
p277
S'Chuckii Booker'
p278
sVMN0000331338
p279
S'Ronnie Dove'
p280
sVMN0000090803
p281
S'King Curtis'
p282
sVMN0000621639
p283
S'Tone-Loc'
p284
sVMN0000170879
p285
S'Fall Out Boy'
p286
sVMN0000359026
p287
S'Ricky Martin Featuring Fat Joe & Amerie'
p288
sVMN0000201022
p289
S'Lenny Welch'
p290
sVMN0000087965
p291
S'Kevon Edmonds'
p292
sVMN0000010155
p293
S'Paper Lace'
p294
sVMN0000243137
p295
S'Rocky Burnette'
p296
sVMN0000019241
p297
S'Patty Loveless'
p298
sVMN0000576072
p299
S'A Taste Of Honey'
p300
sVMN0000061633
p301
S'The Blue Diamonds'
p302
sVMN0000139804
p303
S'Joe Henderson'
p304
sVMN0000039917
p305
S'The Beatnuts Featuring Yellaklaw'
p306
sVMN0000750925
p307
S'Shirley Ellis'
p308
sVMN0000616296
p309
S'Ashlee Simpson'
p310
sVMN0000555901
p311
S'RBD'
p312
sVMN0000118544
p313
S'The Drifters'
p314
sVMN0000281376
p315
S'Lords Of The Underground'
p316
sVMN0000225309
p317
S'Dee Dee Warwick'
p318
sVMN0000955569
p319
S'Henson Cargill'
p320
sVMN0000356566
p321
S'Jimmy Durante'
p322
sVMN0000331206
p323
S'Plies'
p324
sVMN0000507975
p325
S'Al Hirt'
p326
sVMN0000832341
p327
S'Robert Goulet'
p328
sVMN0000096744
p329
S'Chris Rea'
p330
sVMN0000425543
p331
S'Mista Grimm'
p332
sVMN0000166785
p333
S'Dan Fogelberg'
p334
sVMN0000533503
p335
S'Flyleaf'
p336
sVMN0000099888
p337
S'The Knickerbockers'
p338
sVMN0000888484
p339
S'Michelle Branch'
p340
sVMN0000208997
p341
S'Rita Coolidge'
p342
sVMN0000956675
p343
S'Darius Rucker'
p344
sVMN0000193963
p345
S'Warrant'
p346
sVMN0000025335
p347
S'Trina'
p348
sVMN0000081927
p349
S'The Human Beinz'
p350
sVMN0000081926
p351
S'Billie Jo Spears'
p352
sVMN0000988005
p353
S'Fotomaker'
p354
sVMN0000278439
p355
S"Lil' Kim"
p356
sVMN0000835419
p357
S'Love Tribe'
p358
sVMN0000153103
p359
S'Donald Fagen'
p360
sVMN0000772526
p361
S'Irma Thomas'
p362
sVMN0000746666
p363
S'Sister Sledge'
p364
sVMN0000187478
p365
S'Eric Clapton'
p366
sVMN0000577235
p367
S'The Staple Singers'
p368
sVMN0000742569
p369
S'Sounds Orchestral'
p370
sVMN0000002867
p371
S'Pat Travers'
p372
sVMN0000162820
p373
S'Gene Chandler'
p374
sVMN0000161808
p375
S'Shania Twain'
p376
sVMN0000338269
p377
S'Pickettywitch'
p378
sVMN0000463268
p379
S'Remy Shand'
p380
sVMN0000676313
p381
S'Hi-Five'
p382
sVMN0000078467
p383
S'The Communards'
p384
sVMN0000762885
p385
S'Avril Lavigne'
p386
sVMN0000846277
p387
S'Ronnie Spector'
p388
sVMN0000085806
p389
S'Billy Thorpe'
p390
sVMN0000323652
p391
S'Ned Miller'
p392
sVMN0000615641
p393
S'N-Trance'
p394
sVMN0001035294
p395
S'Drake'
p396
sVMN0000005953
p397
S'Alice Cooper'
p398
sVMN0000334546
p399
S'Ronnie Dyson'
p400
sVMN0000667622
p401
S'Heatwave'
p402
sVMN0000478118
p403
S'Orion The Hunter'
p404
sVMN0000033666
p405
S'Supertramp'
p406
sVMN0000166291
p407
S'Eagle-Eye Cherry'
p408
sVMN0000049026
p409
S'Switchfoot'
p410
sVMN0000003412
p411
S'James Last'
p412
sVMN0000139026
p413
S'Led Zeppelin'
p414
sVMN0000614598
p415
S'Mystikal'
p416
sVMN0000691616
p417
S'Ryan Cabrera'
p418
sVMN0000852688
p419
S'Jimmy Eat World'
p420
sVMN0000951681
p421
S'Damita Jo'
p422
sVMN0000852997
p423
S'k.d. lang'
p424
sVMN0000789754
p425
S'Dirty Vegas'
p426
sVMN0000822089
p427
S'Jordan Knight'
p428
sVMN0000491220
p429
S'The Ronettes'
p430
sVMN0002931540
p431
S'Odyssey'
p432
sVMN0000572579
p433
S'Anita Baker'
p434
sVMN0000572578
p435
S'Animotion'
p436
sVMN0000032628
p437
S'Shorty Long'
p438
sVMN0000059101
p439
S'Bobby Byrd'
p440
sVMN0001016058
p441
S'Love And Theft'
p442
sVMN0000033481
p443
S'Andy Griggs'
p444
sVMN0000862855
p445
S'KT Tunstall'
p446
sVMN0000382734
p447
S'Matt Monro'
p448
sVMN0000098342
p449
S'JC Chasez'
p450
sVMN0000338887
p451
S'Jerry Vale'
p452
sVMN0000093872
p453
S'Koffee Brown'
p454
sVMN0000079796
p455
S'Billy Falcon'
p456
sVMN0000117064
p457
S'Connie Francis'
p458
sVMN0000806293
p459
S'Joe Stampley'
p460
sVMN0000240587
p461
S'Lenny LeBlanc'
p462
sVMN0000048757
p463
S'Switch'
p464
sVMN0000153630
p465
S'FRENTE!'
p466
sVMN0000240580
p467
S'Johnnie Morisette'
p468
sVMN0000112789
p469
S'Korn Featuring Amy Lee'
p470
sVMN0000419102
p471
S'The Shins'
p472
sVMN0000838557
p473
S'Penny McLean'
p474
sVMN0001217599
p475
S'The Chartbusters'
p476
sVMN0000143590
p477
S'Far Corporation'
p478
sVMN0000582253
p479
S'Aaron Neville'
p480
sVMN0000391003
p481
S'Norman Greenbaum'
p482
sVMN0000088535
p483
S'The Jaynetts'
p484
sVMN0000941716
p485
S'Bunny Sigler'
p486
sVMN0000079654
p487
S'Ketty Lester'
p488
sVMN0003199043
p489
S'Daniel Rodriguez'
p490
sVMN0000937584
p491
S'Charlie Ryan'
p492
sVMN0000614113
p493
S'Murray Head'
p494
sVMN0000746915
p495
S'Paul Carrack'
p496
sVMN0000083095
p497
S'Kirk Franklin'
p498
sVMN0000227544
p499
S'Walter Egan'
p500
sVMN0000033680
p501
S'Tex Ritter'
p502
sVMN0000816387
p503
S'Leon Russell'
p504
sVMN0000807213
p505
S'Jane Wiedlin'
p506
sVMN0001205305
p507
S'Mark Valentino'
p508
sVMN0000113300
p509
S'Kool Moe Dee'
p510
sVMN0000095330
p511
S'Kiki Dee'
p512
sVMN0000919836
p513
S'The Timetones'
p514
sVMN0000123360
p515
S'Chris Walker'
p516
sVMN0000834108
p517
S'Sarah McLachlan'
p518
sVMN0000864209
p519
S'Neil Diamond'
p520
sVMN0000026227
p521
S'Smokie'
p522
sVMN0000816701
p523
S'Deniece Williams'
p524
sVMN0000869305
p525
S'Nicole Renee'
p526
sVMN0000352992
p527
S'Jimmy Dean'
p528
sVMN0000184091
p529
S'Don Henley'
p530
sVMN0000796763
p531
S'Eddy Grant'
p532
sVMN0000120005
p533
S'Corina'
p534
sVMN0000690134
p535
S'Bobby Moore'
p536
sVMN0000142178
p537
S'Frankie Laine'
p538
sVMN0000165818
p539
S'Charley Pride'
p540
sVMN0000190451
p541
S'Gale Garnett'
p542
sVMN0000235672
p543
S'Mai Tai'
p544
sVMN0000617844
p545
S'Albert King'
p546
sVMN0000280061
p547
S'Joshua Kadison'
p548
sVMN0000064454
p549
S'The Average White Band'
p550
sVMN0000319347
p551
S'R. Kelly'
p552
sVMN0000242473
p553
S'Johnny Adams'
p554
sVMN0000681956
p555
S'Xscape'
p556
sVMN0000625731
p557
S'Seether'
p558
sVMN0000142545
p559
S'JoBoxers'
p560
sVMN0000993271
p561
S'Julianne Hough'
p562
sVMN0000067631
p563
S'The Chemical Brothers'
p564
sVMN0000254964
p565
S'Deon Estus'
p566
sVMN0000833802
p567
S'Sarah Dash'
p568
sVMN0000618766
p569
S'Brian McComas'
p570
sVMN0000144629
p571
S'Fever Tree'
p572
sVMN0001346105
p573
S'Jimmy Velvet'
p574
sVMN0000091983
p575
S'The Black Eyed Peas'
p576
sVMN0000196881
p577
S'Madleen Kane'
p578
sVMN0000148830
p579
S'The Diplomats'
p580
sVMN0000608514
p581
S'Ms. Jade'
p582
sVMN0000007316
p583
S'Sharissa'
p584
sVMN0000266952
p585
S'Livingston Taylor'
p586
sVMN0000816890
p587
S'Johnny Cash'
p588
sVMN0000031380
p589
S'Paula Abdul'
p590
sVMN0000110945
p591
S'Chico DeBarge'
p592
sVMN0000089482
p593
S'Jimmy Ruffin'
p594
sVMN0000086826
p595
S'Irene Cara'
p596
sVMN0000290590
p597
S'Samantha Fox'
p598
sVMN0000137401
p599
S'The Cyrkle'
p600
sVMN0000565388
p601
S'The Swinging Blue Jeans'
p602
sVMN0000174155
p603
S'Fred Schneider'
p604
sVMN0000103391
p605
S'Kris Jensen'
p606
sVMN0000588508
p607
S'Ace Frehley'
p608
sVMN0000191070
p609
S'Wang Chung'
p610
sVMN0003451744
p611
S'Georgio'
p612
sVMN0000423095
p613
S'The Skyliners'
p614
sVMN0000987974
p615
S'Cathy Dennis'
p616
sVMN0000493682
p617
S'Kyu Sakamoto'
p618
sVMN0000815386
p619
S'Jeanne Pruett'
p620
sVMN0000224530
p621
S'Wa Wa Nee'
p622
sVMN0000208774
p623
S'Janet Jackson'
p624
sVMN0000233920
p625
S'Debbie Taylor'
p626
sVMN0000176332
p627
S'Right Said Fred'
p628
sVMN0000606283
p629
S'Al Jarreau'
p630
sVMN0000023202
p631
S"Stereo MC's"
p632
sVMN0000477834
p633
S'The New Seekers'
p634
sVMN0000369430
p635
S'Kayak'
p636
sVMN0000050610
p637
S'Big Punisher'
p638
sVMN0000564631
p639
S'The Sugarhill Gang'
p640
sVMN0000086065
p641
S'Ice Cube Featuring Das EFX'
p642
sVMN0000315463
p643
S'Scarface'
p644
sVMN0000069298
p645
S'B.W. Stevenson'
p646
sVMN0000168474
p647
S'Frank Gari'
p648
sVMN0000585896
p649
S'The Wallflowers'
p650
sVMN0000546735
p651
S"Gilbert O'Sullivan"
p652
sVMN0000546738
p653
S'Jazmine Sullivan'
p654
sVMN0000643549
p655
S'Cal Tjader'
p656
sVMN0000500889
p657
S'Minnie Riperton'
p658
sVMN0000177117
p659
S'Faster Pussycat'
p660
sVMN0000523661
p661
S'Stonewall Jackson'
p662
sVMN0000778363
p663
S'Jack Jones'
p664
sVMN0000478932
p665
S'504 Boyz'
p666
sVMN0000590479
p667
S'Thin Lizzy'
p668
sVMN0000814387
p669
S'John Legend'
p670
sVMN0000350610
p671
S'Jim Weatherly'
p672
sVMN0000355885
p673
S'Kardinal Offishall Featuring Akon'
p674
sVMN0001896692
p675
S'Enchantment'
p676
sVMN0000164093
p677
S'Tammi Terrell'
p678
sVMN0000689891
p679
S'Young MC'
p680
sVMN0000107877
p681
S'James Carr'
p682
sVMN0000024527
p683
S'Shirley Brown'
p684
sVMN0000074195
p685
S'Natalie Cole'
p686
sVMN0000133969
p687
S'Joan Armatrading'
p688
sVMN0000745915
p689
S'Paul Anka'
p690
sVMN0002899138
p691
S'Angel'
p692
sVMN0000459183
p693
S'Rehab'
p694
sVMN0000116816
p695
S'Lawrence Welk'
p696
sVMN0000585965
p697
S'Monie Love'
p698
sVMN0000153915
p699
S'Duncan Sheik'
p700
sVMN0000386234
p701
S'Mase'
p702
sVMN0000570046
p703
S'Marc Almond'
p704
sVMN0000524050
p705
S'Bryan Ferry'
p706
sVMN0000015288
p707
S'Patti Smith Group'
p708
sVMN0000589630
p709
S'Afi'
p710
sVMN0000280960
p711
S'Lone Justice'
p712
sVMN0000063739
p713
S'Blue Swede'
p714
sVMN0000036849
p715
S'Sonny James'
p716
sVMN0000177060
p717
S'Janis Joplin'
p718
sVMN0000775494
p719
S'Cherish'
p720
sVMN0000132305
p721
S'Clarence Reid'
p722
sVMN0000218709
p723
S'Jonathan Butler'
p724
sVMN0000173563
p725
S'Freak Nasty'
p726
sVMN0000219655
p727
S'Little River Band'
p728
sVMN0000327765
p729
S'John Barry'
p730
sVMN0000511257
p731
S'The Soup Dragons'
p732
sVMN0000651376
p733
S'Captain Hollywood Project'
p734
sVMN0000552576
p735
S'Gino Soccio'
p736
sVMN0000321377
p737
S'Neal Hefti'
p738
sVMN0000019297
p739
S'America'
p740
sVMN0000180449
p741
S'Freddie Jackson'
p742
sVMN0000789340
p743
S'Belly'
p744
sVMN0002436700
p745
S"Bill Black's Combo"
p746
sVMN0000821675
p747
S'Jon Bon Jovi'
p748
sVMN0000845662
p749
S'Jill Scott'
p750
sVMN0000810861
p751
S'John Eddie'
p752
sVMN0000572313
p753
S'The Valentinos'
p754
sVMN0000420381
p755
S'OutKast'
p756
sVMN0000845468
p757
S'Jerry Jeff Walker'
p758
sVMN0000065000
p759
S'Baltimora'
p760
sVMN0000574033
p761
S'Modern English'
p762
sVMN0000762097
p763
S'Blue October'
p764
sVMN0000383853
p765
S'Neal McCoy'
p766
sVMN0000148380
p767
S'The Dillman Band'
p768
sVMN0000163085
p769
S'Electric Boys'
p770
sVMN0000743175
p771
S'Serj Tankian'
p772
sVMN0000651972
p773
S'H-Town'
p774
sVMN0003445040
p775
S'Jimmy Charles'
p776
sVMN0002009611
p777
S'Lil Mama'
p778
sVMN0000331323
p779
S'10 Years'
p780
sVMN0000019285
p781
S'Trade Martin'
p782
sVMN0000226556
p783
S'Dead Or Alive'
p784
sVMN0000068934
p785
S'Kenny G'
p786
sVMN0002999962
p787
S'Casey Kelly'
p788
sVMN0000171994
p789
S'Joe South'
p790
sVMN0001836821
p791
S'The Hesitations'
p792
sVMN0002344193
p793
S'Michael Holm'
p794
sVMN0001267375
p795
S'Sweeney Todd'
p796
sVMN0000245149
p797
S'Wayne Fontana And The Mindbenders'
p798
sVMN0000194743
p799
S'Grace Slick'
p800
sVMN0000247636
p801
S'Sammy Turner'
p802
sVMN0000187907
p803
S'Aventura Featuring Don Omar'
p804
sVMN0000250191
p805
S'Johnny Thunder'
p806
sVMN0000296460
p807
S'Sammy Masters'
p808
sVMN0000366164
p809
S'Rick James'
p810
sVMN0000022255
p811
S'Paul Evans'
p812
sVMN0000496646
p813
S'Apollo 100'
p814
sVMN0000302106
p815
S'Lisa Stansfield'
p816
sVMN0000759443
p817
S'The Exciters'
p818
sVMN0000605375
p819
S'Alan Jackson'
p820
sVMN0000936425
p821
S'Todd Rundgren'
p822
sVMN0000066370
p823
S'Bob Moore'
p824
sVMN0000943936
p825
S'Buddy Miles'
p826
sVMN0000805208
p827
S'Joe Simon'
p828
sVMN0000061172
p829
S'The Cars'
p830
sVMN0000003426
p831
S'Tank'
p832
sVMN0000024944
p833
S'Amy Grant'
p834
sVMN0000248683
p835
S'Devone'
p836
sVMN0000949780
p837
S'Hanson'
p838
sVMN0000005307
p839
S'Alicia Keys'
p840
sVMN0000128249
p841
S'Eydie Gorme'
p842
sVMN0000936190
p843
S'Stevie Nicks'
p844
sVMN0000143216
p845
S'James Otto'
p846
sVMN0000516202
p847
S'Brian Hyland'
p848
sVMN0000240758
p849
S'Piero Umiliani'
p850
sVMN0000067821
p851
S'The Fortunes'
p852
sVMN0000111042
p853
S'City High'
p854
sVMN0000214175
p855
S'Jordan Hill'
p856
sVMN0000565609
p857
S'The Tee Set'
p858
sVMN0000992075
p859
S'Pleasure P'
p860
sVMN0000495201
p861
S'Mims'
p862
sVMN0000147200
p863
S'The Dells'
p864
sVMN0002086657
p865
S'Young And Restless'
p866
sVMN0001187581
p867
S'The Magnificent Men'
p868
sVMN0000343215
p869
S'Rose Royce'
p870
sVMN0000402872
p871
S'The Meters'
p872
sVMN0000081132
p873
S'Eli Young Band'
p874
sVMN0000855194
p875
S'Pretty Poison'
p876
sVMN0000660507
p877
S'Giorgio Moroder'
p878
sVMN0000545074
p879
S'George Michael'
p880
sVMN0000500241
p881
S'Thriving Ivory'
p882
sVMN0000056833
p883
S'The Equals'
p884
sVMN0000799083
p885
S'Eria Fachin'
p886
sVMN0000101946
p887
S'Isaac Hayes'
p888
sVMN0000275335
p889
S'Josh Groban'
p890
sVMN0000978231
p891
S'Mario Vazquez'
p892
sVMN0000041420
p893
S'Pebbles'
p894
sVMN0000769693
p895
S'The Jive Five'
p896
sVMN0000747506
p897
S'Patti Page'
p898
sVMN0000862343
p899
S'Mat Kearney'
p900
sVMN0000408342
p901
S"The O'Kaysions"
p902
sVMN0000017929
p903
S'Patti Austin'
p904
sVMN0000027767
p905
S'Steve Alaimo'
p906
sVMN0000788569
p907
S'Barbara Mandrell'
p908
sVMN0000243803
p909
S'Rod McKuen'
p910
sVMN0000661963
p911
S'Donnie Iris'
p912
sVMN0000829523
p913
S'Londonbeat'
p914
sVMN0000088035
p915
S'Kelly Price'
p916
sVMN0000165117
p917
S'Tamia'
p918
sVMN0001061368
p919
S'Kristinia DeBarge'
p920
sVMN0000143367
p921
S'The Duprees'
p922
sVMN0000146796
p923
S'The Deele'
p924
sVMN0001930721
p925
S'The Winstons'
p926
sVMN0000937397
p927
S'Brooklyn Bridge'
p928
sVMN0000926021
p929
S'Monifah'
p930
sVMN0003189794
p931
S'The Castaways'
p932
sVMN0000098685
p933
S'Kinsu'
p934
sVMN0000012554
p935
S'Patrick Hernandez'
p936
sVMN0000566602
p937
S'Head East'
p938
sVMN0000257181
p939
S'Peggy Scott-Adams'
p940
sVMN0000333842
p941
S'Phyllis Nelson'
p942
sVMN0000869042
p943
S'Razzy Bailey'
p944
sVMN0000310976
p945
S'Martin Briley'
p946
sVMN0001000615
p947
S'Shwayze'
p948
sVMN0000500664
p949
S'The Seeds'
p950
sVMN0000738156
p951
S'Forest For The Trees'
p952
sVMN0002832524
p953
S'Opus'
p954
sVMN0000002330
p955
S'Sergio Mendes'
p956
sVMN0000934611
p957
S'Bram Tchaikovsky'
p958
sVMN0000026825
p959
S'Paula Cole'
p960
sVMN0000685647
p961
S'Yes'
p962
sVMN0000136075
p963
S'The Crusaders'
p964
sVMN0000665860
p965
S'Godsmack'
p966
sVMN0000190531
p967
S'Frederick Knight'
p968
sVMN0000732652
p969
S'Kellie Pickler'
p970
sVMN0000896919
p971
S'The Rugbys'
p972
sVMN0000339905
p973
S'Jesse Winchester'
p974
sVMN0000653626
p975
S'DJ Company'
p976
sVMN0000469519
p977
S'Ashley Tisdale'
p978
sVMN0000837946
p979
S'Juice Newton'
p980
sVMN0000757704
p981
S'Blahzay Blahzay'
p982
sVMN0000576885
p983
S'Suga Free'
p984
sVMN0000081316
p985
S'Bone Thugs-N-Harmony'
p986
sVMN0000113753
p987
S'Lauryn Hill'
p988
sVMN0000089710
p989
S'Billy Paul'
p990
sVMN0000180030
p991
S'For Real'
p992
sVMN0000040743
p993
S'Audioslave'
p994
sVMN0000748713
p995
S'Slick Rick'
p996
sVMN0000406612
p997
S'The Overlanders'
p998
sVMN0000375685
p999
S'Python Lee Jackson'
p1000
sVMN0000354722
p1001
S'Rick Astley'
p1002
sVMN0000768367
p1003
S'Bobby McFerrin'
p1004
sVMN0000028166
p1005
S'Slim Harpo'
p1006
sVMN0000332262
p1007
S'Philly Devotions'
p1008
sVMN0000234004
p1009
S'Jeannie Seely'
p1010
sVMN0000101072
p1011
S'The Pussycat Dolls Featuring Timbaland'
p1012
sVMN0000813392
p1013
S'Dean Martin'
p1014
sVMN0000143781
p1015
S'The Del Fuegos'
p1016
sVMN0000490304
p1017
S'Thee Midniters'
p1018
sVMN0000149044
p1019
S'Barry White'
p1020
sVMN0000051118
p1021
S'The Marathons'
p1022
sVMN0000361014
p1023
S'Brandy Featuring Kanye West'
p1024
sVMN0000502398
p1025
S'Archie Bell & The Drells'
p1026
sVMN0000585574
p1027
S'Sum 41'
p1028
sVMN0000179941
p1029
S'Edison Lighthouse'
p1030
sVMN0000191006
p1031
S'Gary Wright'
p1032
sVMN0000386536
p1033
S'Mashmakhan'
p1034
sVMN0000260516
p1035
S'Dina Carroll'
p1036
sVMN0000479204
p1037
S'Anita Ward'
p1038
sVMN0000869066
p1039
S'Ralph MacDonald'
p1040
sVMN0000252495
p1041
S'Wayne Newton'
p1042
sVMN0000272965
p1043
S'House Of Lords'
p1044
sVMN0000816844
p1045
S'Hinder'
p1046
sVMN0000560719
p1047
S'High School Musical 2 Cast'
p1048
sVMN0000107294
p1049
S'Biz Markie'
p1050
sVMN0000128495
p1051
S'Counting Crows Featuring Vanessa Carlton'
p1052
sVMN0000617104
p1053
S'Tommy Shane Steiner'
p1054
sVMN0000490549
p1055
S'Anne Murray'
p1056
sVMN0000086969
p1057
S'Billy Stewart'
p1058
sVMN0000745100
p1059
S'Pajama Party'
p1060
sVMN0000497236
p1061
S'Adina Howard'
p1062
sVMN0000771010
p1063
S'The Left Banke'
p1064
sVMN0000834314
p1065
S'Jude Cole'
p1066
sVMN0000171889
p1067
S'Elephant Man'
p1068
sVMN0000089781
p1069
S'J-Kwon'
p1070
sVMN0000627337
p1071
S'Tommy Roe'
p1072
sVMN0000006320
p1073
S'Toto'
p1074
sVMN0000048400
p1075
S'Swirl 360'
p1076
sVMN0000154967
p1077
S'Shades Of Blue'
p1078
sVMN0000355998
p1079
S'Ruben Studdard'
p1080
sVMN0000075747
p1081
S'The Clash'
p1082
sVMN0000597309
p1083
S'Tina Turner'
p1084
sVMN0000376422
p1085
S'Queens Of The Stone Age'
p1086
sVMN0000149558
p1087
S'The Elgins'
p1088
sVMN0000599777
p1089
S'After 7'
p1090
sVMN0000921924
p1091
S'Flo Rida'
p1092
sVMN0002622976
p1093
S'Joe Jonas'
p1094
sVMN0000060104
p1095
S'Blue Haze'
p1096
sVMN0000343852
p1097
S'Jimmie Rodgers'
p1098
sVMN0002563020
p1099
S'The Reflections'
p1100
sVMN0000351733
p1101
S'Nine Inch Nails'
p1102
sVMN0000749734
p1103
S'Slade'
p1104
sVMN0000020630
p1105
S'Sinitta'
p1106
sVMN0000423267
p1107
S'Small Faces'
p1108
sVMN0000678339
p1109
S'XTC'
p1110
sVMN0000172770
p1111
S'Carl Butler'
p1112
sVMN0000172772
p1113
S'Ed Ames'
p1114
sVMN0000485365
p1115
S'Thirty Seconds To Mars'
p1116
sVMN0000370484
p1117
S'Martika'
p1118
sVMN0000253296
p1119
S'Leroy Van Dyke'
p1120
sVMN0000485361
p1121
S'AB Logic'
p1122
sVMN0000554963
p1123
S'Harry Chapin'
p1124
sVMN0000285277
p1125
S'Shawty Lo'
p1126
sVMN0000046283
p1127
S'The Balloon Farm'
p1128
sVMN0000814606
p1129
S'Wanda Jackson'
p1130
sVMN0000921906
p1131
S'Anna King'
p1132
sVMN0000745964
p1133
S'The Allman Brothers Band'
p1134
sVMN0000347741
p1135
S'Rebecca Lynn Howard'
p1136
sVMN0000619750
p1137
S'Tommy Shaw'
p1138
sVMN0000771838
p1139
S'Immature'
p1140
sVMN0000204386
p1141
S'James Taylor'
p1142
sVMN0000087597
p1143
S'Ian Hunter'
p1144
sVMN0000492147
p1145
S'The Royaltones'
p1146
sVMN0000575051
p1147
S"Herman's Hermits"
p1148
sVMN0000247250
p1149
S'When In Rome'
p1150
sVMN0000839504
p1151
S'Juliana Hatfield'
p1152
sVMN0000331910
p1153
S'Barry Ryan'
p1154
sVMN0000167877
p1155
S'Frankie Ford'
p1156
sVMN0000838195
p1157
S'Percy Sledge'
p1158
sVMN0000004047
p1159
S'Ali Thomson'
p1160
sVMN0000820596
p1161
S'Johnny Tillotson'
p1162
sVMN0000167878
p1163
S'Frankie J'
p1164
sVMN0000212614
p1165
S'Deodato'
p1166
sVMN0000106514
p1167
S'Boots Randolph'
p1168
sVMN0000021128
p1169
S'Trillville'
p1170
sVMN0000953998
p1171
S'Mantovani'
p1172
sVMN0000061988
p1173
S'Blue Mink'
p1174
sVMN0000239827
p1175
S'John Mayer'
p1176
sVMN0000748994
p1177
S'Trick Daddy Featuring Ludacris'
p1178
sVMN0000255576
p1179
S'Honeymoon Suite'
p1180
sVMN0000479687
p1181
S'Midge Ure'
p1182
sVMN0000272689
p1183
S'Lil Wayne'
p1184
sVMN0000390532
p1185
S'Oingo Boingo'
p1186
sVMN0000124492
p1187
S'Beck'
p1188
sVMN0000996972
p1189
S'Miranda Cosgrove Featuring Drake Bell'
p1190
sVMN0000924318
p1191
S'Monchy & Alexandra'
p1192
sVMN0000763798
p1193
S'Bobby Comstock'
p1194
sVMN0000572327
p1195
S'Marcy Playground'
p1196
sVMN0000809527
p1197
S'The Lost Boyz'
p1198
sVMN0000148207
p1199
S'The Devotions'
p1200
sVMN0000921762
p1201
S'Sugarloaf'
p1202
sVMN0000314505
p1203
S'Vanessa Williams'
p1204
sVMN0000614823
p1205
S'Brenda Russell'
p1206
sVMN0000404434
p1207
S'The Moody Blues'
p1208
sVMN0000781370
p1209
S'Chumbawamba'
p1210
sVMN0000087305
p1211
S'Kid Frost'
p1212
sVMN0000605965
p1213
S'Atlanta Rhythm Section'
p1214
sVMN0000193161
p1215
S'Jeannie Ortega Featuring Papoose'
p1216
sVMN0000631078
p1217
S'David Ball'
p1218
sVMN0000118189
p1219
S'Clay Walker'
p1220
sVMN0000391933
p1221
S'Rainbow'
p1222
sVMN0000170454
p1223
S'Carla Thomas'
p1224
sVMN0000632986
p1225
S'Jordan Pruitt'
p1226
sVMN0000753963
p1227
S'The Association'
p1228
sVMN0000221844
p1229
S'Rusted Root'
p1230
sVMN0000581443
p1231
S'Aaron Hall'
p1232
sVMN0000101371
p1233
S'Josh Gracin'
p1234
sVMN0000181376
p1235
S'UB40'
p1236
sVMN0000303061
p1237
S'Junior M.A.F.I.A.'
p1238
sVMN0000954322
p1239
S'Daniel Bedingfield'
p1240
sVMN0000138332
p1241
S'The Crystals'
p1242
sVMN0000204921
p1243
S'Tycoon'
p1244
sVMN0000125749
p1245
S'Barbara Mason'
p1246
sVMN0000080780
p1247
S'Sheryl Crow'
p1248
sVMN0001900173
p1249
S'Kano'
p1250
sVMN0002853828
p1251
S'The Heartbeats'
p1252
sVMN0000988627
p1253
S'Fuel'
p1254
sVMN0000625014
p1255
S'Brian Auger'
p1256
sVMN0000067900
p1257
S'The Foundations'
p1258
sVMN0000061769
p1259
S'The Casinos'
p1260
sVMN0000673908
p1261
S'Hi-C'
p1262
sVMN0000514563
p1263
S'Muse'
p1264
sVMN0000018176
p1265
S'Teddy Riley Featuring Guy'
p1266
sVMN0000136640
p1267
S'The KLF Featuring Tammy Wynette'
p1268
sVMN0000177497
p1269
S'Elisa Fiorillo'
p1270
sVMN0000962323
p1271
S'Young Gunz'
p1272
sVMN0000746841
p1273
S'Trooper'
p1274
sVMN0000759187
p1275
S'Blaque'
p1276
sVMN0000251595
p1277
S'Whitesnake'
p1278
sVMN0000258882
p1279
S'Jon Secada'
p1280
sVMN0000325459
p1281
S'R.E.M.'
p1282
sVMN0000014651
p1283
S'Patsy Cline'
p1284
sVMN0000048605
p1285
S'Sons Of Funk'
p1286
sVMN0000551115
p1287
S'J. Holiday'
p1288
sVMN0000013384
p1289
S'Tanya Tucker'
p1290
sVMN0000205385
p1291
S"Eternity's Children"
p1292
sVMN0000758453
p1293
S'Blues Traveler'
p1294
sVMN0002853033
p1295
S'Lale Anderson'
p1296
sVMN0000515560
p1297
S'Breathless'
p1298
sVMN0000231576
p1299
S'Walter Murphy'
p1300
sVMN0000214162
p1301
S'Vince Gill'
p1302
sVMN0000418981
p1303
S'The Shirelles'
p1304
sVMN0000562663
p1305
S'Harpers Bizarre'
p1306
sVMN0001888550
p1307
S'The Flying Machine'
p1308
sVMN0000683795
p1309
S'Yello'
p1310
sVMN0000918933
p1311
S'The T-Bones'
p1312
sVMN0000484397
p1313
S'The Ovations'
p1314
sVMN0000446509
p1315
S'Metallica'
p1316
sVMN0000103033
p1317
S'Chuck Jackson'
p1318
sVMN0000799108
p1319
S'Gary Portnoy'
p1320
sVMN0000890463
p1321
S'Mickey Murray'
p1322
sVMN0000484880
p1323
S'Sugarland'
p1324
sVMN0000809702
p1325
S'David Hudson'
p1326
sVMN0000756518
p1327
S'The Bobbettes'
p1328
sVMN0000610346
p1329
S'Aimee Mann'
p1330
sVMN0000414251
p1331
S'Otis Redding'
p1332
sVMN0000084446
p1333
S'India.Arie'
p1334
sVMN0000101953
p1335
S'Klymaxx'
p1336
sVMN0000806507
p1337
S'Tyrone Davis'
p1338
sVMN0000664093
p1339
S'Hamilton Bohannon'
p1340
sVMN0000157314
p1341
S'Tag Team'
p1342
sVMN0000852405
p1343
S'Rotary Connection'
p1344
sVMN0000094813
p1345
S'Black Rob'
p1346
sVMN0000667971
p1347
S'Hank Jacobs'
p1348
sVMN0000930786
p1349
S'Mr. Cheeks'
p1350
sVMN0000238069
p1351
S'Robin S.'
p1352
sVMN0000040124
p1353
S'The Ataris'
p1354
sVMN0000898479
p1355
S'The Smithereens'
p1356
sVMN0000350934
p1357
S'Jimmy Clanton'
p1358
sVMN0000072003
p1359
S'Ice-T'
p1360
sVMN0000727318
p1361
S'WE the Kings'
p1362
sVMN0000057840
p1363
S'B.J. Thomas'
p1364
sVMN0000721416
p1365
S'Paris Hilton'
p1366
sVMN0000058361
p1367
S'Betty Everett'
p1368
sVMN0000898188
p1369
S'Mint Condition'
p1370
sVMN0000762034
p1371
S'The Floaters'
p1372
sVMN0000640042
p1373
S'Bruce Willis'
p1374
sVMN0000084209
p1375
S'Kiss'
p1376
sVMN0000138335
p1377
S'Dobie Gray'
p1378
sVMN0000052900
p1379
S"The Lovin' Spoonful"
p1380
sVMN0000112360
p1381
S'Kon Kan'
p1382
sVMN0000670697
p1383
S'Dan Reed Network'
p1384
sVMN0000858375
p1385
S'Mary Chapin Carpenter'
p1386
sVMN0000549192
p1387
S"Ghost Town DJ's"
p1388
sVMN0001481922
p1389
S'Buchanan Brothers'
p1390
sVMN0000463435
p1391
S'Michael Nesmith'
p1392
sVMN0000059949
p1393
S'B.T. Express'
p1394
sVMN0000664272
p1395
S'Timbaland Featuring Keri Hilson'
p1396
sVMN0000029808
p1397
S'Tesla'
p1398
sVMN0000203168
p1399
S'Dru Down'
p1400
sVMN0000987621
p1401
S'Foreigner'
p1402
sVMN0000498484
p1403
S'The Rembrandts'
p1404
sVMN0000354609
p1405
S'Kajagoogoo'
p1406
sVMN0000892827
p1407
S'The Notorious B.I.G.'
p1408
sVMN0000576979
p1409
S'The Wombles'
p1410
sVMN0000892823
p1411
S'Mick Jagger'
p1412
sVMN0000725395
p1413
S'Fergie'
p1414
sVMN0000779064
p1415
S'J.J. Barnes'
p1416
sVMN0000094252
p1417
S'Bing Crosby'
p1418
sVMN0000489059
p1419
S'The Pentagons'
p1420
sVMN0000301404
p1421
S'Rick Derringer'
p1422
sVMN0001161529
p1423
S'The Headboys'
p1424
sVMN0000456536
p1425
S'Nonchalant'
p1426
sVMN0000674332
p1427
S'Herb Alpert'
p1428
sVMN0000127044
p1429
S'Count Basie'
p1430
sVMN0000508449
p1431
S"Alan O'Day"
p1432
sVMN0000796700
p1433
S'Carole Bayer Sager'
p1434
sVMN0000148477
p1435
S'Clarence Carter'
p1436
sVMN0001606686
p1437
S'Gorky Park'
p1438
sVMN0000120023
p1439
S'The Conscious Daughters'
p1440
sVMN0000034916
p1441
S"Sniff 'N' The Tears"
p1442
sVMN0000926108
p1443
S'Montgomery Gentry'
p1444
sVMN0000627787
p1445
S'Jamey Johnson'
p1446
sVMN0000855531
p1447
S'Barbra Streisand'
p1448
sVMN0000286115
p1449
S'Lorrie Morgan'
p1450
sVMN0000565013
p1451
S'Hayley Mills'
p1452
sVMN0000342004
p1453
S'Phil Vassar'
p1454
sVMN0000600264
p1455
S'Mr. Big'
p1456
sVMN0000466759
p1457
S'Michael W. Smith'
p1458
sVMN0000206241
p1459
S'Eurythmics'
p1460
sVMN0000038469
p1461
S'Beastie Boys'
p1462
sVMN0000840050
p1463
S'Jefferson Starship'
p1464
sVMN0000925450
p1465
S'Three Dog Night'
p1466
sVMN0000158801
p1467
S'Talib Kweli'
p1468
sVMN0000868456
p1469
S'Melba Montgomery'
p1470
sVMN0001030695
p1471
S'Owl City'
p1472
sVMN0000811598
p1473
S'David Ruffin'
p1474
sVMN0000038466
p1475
S'Andy Williams'
p1476
sVMN0000011707
p1477
S'Steely Dan'
p1478
sVMN0000090169
p1479
S'King Floyd'
p1480
sVMN0000787011
p1481
S'Barry McGuire'
p1482
sVMN0000681154
p1483
S'Yeah Yeah Yeahs'
p1484
sVMN0000567707
p1485
S'The Superbs'
p1486
sVMN0000203765
p1487
S'Wet Wet Wet'
p1488
sVMN0000609000
p1489
S'Al Caiola'
p1490
sVMN0000808546
p1491
S'Joe Public'
p1492
sVMN0000093632
p1493
S'Robert Palmer'
p1494
sVMN0000049062
p1495
S'Simple Plan'
p1496
sVMN0000234384
p1497
S"Lil' Romeo"
p1498
sVMN0002461406
p1499
S'Harold Dorman'
p1500
sVMN0000354733
p1501
S'Los Lobos'
p1502
sVMN0000101776
p1503
S'Jack Nitzsche'
p1504
sVMN0000932665
p1505
S'Alanis Morissette'
p1506
sVMN0000291687
p1507
S'Robert Tepper'
p1508
sVMN0000146324
p1509
S'The Earls'
p1510
sVMN0000029600
p1511
S'Smash Mouth'
p1512
sVMN0000767883
p1513
S'Kevin Denney'
p1514
sVMN0000450947
p1515
S'Unk'
p1516
sVMN0000163213
p1517
S'Tweet'
p1518
sVMN0000242211
p1519
S'Saliva'
p1520
sVMN0000411689
p1521
S'Ray Peterson'
p1522
sVMN0000092942
p1523
S'Chic'
p1524
sVMN0000987951
p1525
S'Ce Ce Peniston'
p1526
sVMN0001846594
p1527
S'Marilyn Sellars'
p1528
sVMN0000078044
p1529
S'Bill Withers'
p1530
sVMN0000191878
p1531
S'The Brass Ring'
p1532
sVMN0000007689
p1533
S'TLC'
p1534
sVMN0000317417
p1535
S'Quicksilver Messenger Service'
p1536
sVMN0001028077
p1537
S'The-Dream'
p1538
sVMN0000169677
p1539
S'Ernie K-Doe'
p1540
sVMN0000543055
p1541
S'Georgie Fame'
p1542
sVMN0000029156
p1543
S'Ted Taylor'
p1544
sVMN0000689884
p1545
S'David Rose'
p1546
sVMN0000568709
p1547
S'Darren Hayes'
p1548
sVMN0000422891
p1549
S'Nivea'
p1550
sVMN0000387720
p1551
S'Michael Bolton'
p1552
sVMN0000537548
p1553
S'Busta Rhymes'
p1554
sVMN0000758262
p1555
S'Bloodrock'
p1556
sVMN0000090011
p1557
S'Ini Kamoze'
p1558
sVMN0000673486
p1559
S'Marc Anthony'
p1560
sVMN0000122891
p1561
S'Barbara George'
p1562
sVMN0000375287
p1563
S'Narvel Felts'
p1564
sVMN0000314050
p1565
S'Narada Michael Walden'
p1566
sVMN0000224826
p1567
S'Wade Flemons'
p1568
sVMN0000147785
p1569
S'Eve 6'
p1570
sVMN0000142208
p1571
S'Eddie Murphy'
p1572
sVMN0000220194
p1573
S'MC Eiht'
p1574
sVMN0000069986
p1575
S'Kenny Rogers'
p1576
sVMN0000037931
p1577
S'The Alarm'
p1578
sVMN0000750131
p1579
S'Terri Clark'
p1580
sVMN0000006334
p1581
S'Tony Bennett'
p1582
sVMN0000833352
p1583
S'Liquid Gold'
p1584
sVMN0000787810
p1585
S'Barry Mann'
p1586
sVMN0000617689
p1587
S'Jason Michael Carroll'
p1588
sVMN0000563390
p1589
S'Colbie Caillat'
p1590
sVMN0000820056
p1591
S'White Plains'
p1592
sVMN0000754720
p1593
S'The Soul Children'
p1594
sVMN0000532442
p1595
S'George Burns'
p1596
sVMN0000921359
p1597
S'The Tremeloes'
p1598
sVMN0000064303
p1599
S'Badfinger'
p1600
sVMN0000339624
p1601
S'Meat Loaf'
p1602
sVMN0000738402
p1603
S'Grandmaster Flash'
p1604
sVMN0000768321
p1605
S'INXS'
p1606
sVMN0000676818
p1607
S'Darryl Worley'
p1608
sVMN0000822837
p1609
S'Dickie Goodman'
p1610
sVMN0000768328
p1611
S'Kellie Coffey'
p1612
sVMN0000007448
p1613
S'The Delfonics'
p1614
sVMN0000663867
p1615
S"Gigi D'Agostino"
p1616
sVMN0000815039
p1617
S'John Lee Hooker'
p1618
sVMN0000270060
p1619
S'Marie Osmond'
p1620
sVMN0000123702
p1621
S'D.H.T.'
p1622
sVMN0000270064
p1623
S'Lil Rob'
p1624
sVMN0002453941
p1625
S'Portrait'
p1626
sVMN0000196544
p1627
S'Della Reese'
p1628
sVMN0000748189
p1629
S'Trey Lorenz'
p1630
sVMN0000073749
p1631
S'The Game'
p1632
sVMN0000956973
p1633
S'Hilary Duff'
p1634
sVMN0000503460
p1635
S'Adele'
p1636
sVMN0000344609
p1637
S'Jesus Jones'
p1638
sVMN0000397412
p1639
S'The McGuire Sisters'
p1640
sVMN0000140176
p1641
S'Eddie Fisher'
p1642
sVMN0000051909
p1643
S'Carpenters'
p1644
sVMN0000319675
p1645
S'Qkumba Zoo'
p1646
sVMN0000236707
p1647
S'Jeanne Black'
p1648
sVMN0000016281
p1649
S'Tracy Chapman'
p1650
sVMN0000167517
p1651
S'Dire Straits'
p1652
sVMN0000299668
p1653
S'KC & The Sunshine Band'
p1654
sVMN0000739041
p1655
S'Fountains Of Wayne'
p1656
sVMN0000768926
p1657
S'Bill Quateman'
p1658
sVMN0000008828
p1659
S'Spice Girls'
p1660
sVMN0001192244
p1661
S'Duke Jupiter'
p1662
sVMN0000075591
p1663
S'The Corrs'
p1664
sVMN0000677781
p1665
S'Wilson Pickett'
p1666
sVMN0000239921
p1667
S'Depeche Mode'
p1668
sVMN0000744573
p1669
S'TKA'
p1670
sVMN0000913490
p1671
S'Cheyenne Kimball'
p1672
sVMN0000994823
p1673
S'Lady GaGa'
p1674
sVMN0000866491
p1675
S'Maxwell'
p1676
sVMN0000754639
p1677
S'The Bell Notes'
p1678
sVMN0000239855
p1679
S'Robert Ellis Orrall'
p1680
sVMN0000511235
p1681
S'Alana Davis'
p1682
sVMN0003455865
p1683
S'The Thirteenth Floor Elevators'
p1684
sVMN0000633358
p1685
S'Danity Kane'
p1686
sVMN0001003036
p1687
S'Paul Chaplain'
p1688
sVMN0000056625
p1689
S'Big Country'
p1690
sVMN0001758769
p1691
S'Mike Clifford'
p1692
sVMN0000046381
p1693
S'Berlin'
p1694
sVMN0000175538
p1695
S'First Choice'
p1696
sVMN0000772363
p1697
S'Boy Meets Girl'
p1698
sVMN0000209142
p1699
S'George Harrison'
p1700
sVMN0001986465
p1701
S'The Frantics'
p1702
sVMN0000567153
p1703
S'Daughtry'
p1704
sVMN0000114342
p1705
S'The Doors'
p1706
sVMN0000573209
p1707
S'High Inergy'
p1708
sVMN0000610880
p1709
S'Brad Paisley'
p1710
sVMN0000451483
p1711
S'Genius/GZA Featuring Method Man'
p1712
sVMN0000824022
p1713
S'Little Richard'
p1714
sVMN0000186185
p1715
S'Celine Dion'
p1716
sVMN0000103484
p1717
S'Indigo Girls'
p1718
sVMN0000078532
p1719
S'Inner Circle'
p1720
sVMN0000226312
p1721
S'Lil Suzy'
p1722
sVMN0000375239
p1723
S'Marty Wilde'
p1724
sVMN0000475209
p1725
S'The Strangeloves'
p1726
sVMN0000340152
p1727
S'Ratt'
p1728
sVMN0000571185
p1729
S'The Sunrays'
p1730
sVMN0000778925
p1731
S'Hellogoodbye'
p1732
sVMN0000765011
p1733
S'Ian Whitcomb'
p1734
sVMN0000014822
p1735
S'Sister Hazel'
p1736
sVMN0000554604
p1737
S'The Afters'
p1738
sVMN0000033580
p1739
S'Super Cat'
p1740
sVMN0000081739
p1741
S'Billy Currington'
p1742
sVMN0000695401
p1743
S'Yvonne Fair'
p1744
sVMN0000298824
p1745
S'Rodney Atkins'
p1746
sVMN0000832799
p1747
S'Joy Of Cooking'
p1748
sVMN0000282288
p1749
S'Jesse Jaymes'
p1750
sVMN0000531653
p1751
S'The Raconteurs'
p1752
sVMN0000185888
p1753
S'Voice Of The Beehive'
p1754
sVMN0000614830
p1755
S'Metro Station'
p1756
sVMN0000300801
p1757
S'Little Peggy March'
p1758
sVMN0000342834
p1759
S'Mel Carter'
p1760
sVMN0000315336
p1761
S'Perry Como'
p1762
sVMN0000367417
p1763
S'Martha Wash'
p1764
sVMN0000759422
p1765
S'The Escape Club'
p1766
sVMN0000339577
p1767
S'Meat Puppets'
p1768
sVMN0000170625
p1769
S'Eddie Holland'
p1770
sVMN0000119469
p1771
S'Corey Hart'
p1772
sVMN0000130764
p1773
S'Face To Face'
p1774
sVMN0000742800
p1775
S'Alfonzo Hunter'
p1776
sVMN0000591124
p1777
S'Moon Martin'
p1778
sVMN0000222748
p1779
S'Vixen'
p1780
sVMN0000226402
p1781
S'Lloyd Banks'
p1782
sVMN0000022472
p1783
S'She Moves'
p1784
sVMN0000591692
p1785
S'Ace Cannon'
p1786
sVMN0000133057
p1787
S'Jo Dee Messina'
p1788
sVMN0000152228
p1789
S'Club Nouveau'
p1790
sVMN0000228444
p1791
S'Lee Ritenour'
p1792
sVMN0000637022
p1793
S'The Capitols'
p1794
sVMN0000948832
p1795
S'Hannah Jones'
p1796
sVMN0000195368
p1797
S'Dorothy Norwood'
p1798
sVMN0000013393
p1799
S'Tower Of Power'
p1800
sVMN0000580485
p1801
S'Willie Hutch'
p1802
sVMN0000784122
p1803
S'Cupid'
p1804
sVMN0000609396
p1805
S'Tom Jones'
p1806
sVMN0000996127
p1807
S'Demi Lovato'
p1808
sVMN0000664883
p1809
S'Gloria Lynne'
p1810
sVMN0000158451
p1811
S'Climax Blues Band'
p1812
sVMN0000244711
p1813
S'Johnny Maestro'
p1814
sVMN0000839369
p1815
S'Little Eva'
p1816
sVMN0000847756
p1817
S'Marlena Shaw'
p1818
sVMN0000626463
p1819
S'Stone Temple Pilots'
p1820
sVMN0000352072
p1821
S'Richie Rich'
p1822
sVMN0000600075
p1823
S'Adam Wade'
p1824
sVMN0000050967
p1825
S'The Lost Trailers'
p1826
sVMN0000751019
p1827
S'The Animals'
p1828
sVMN0000232701
p1829
S'Jeannie C. Riley'
p1830
sVMN0000077536
p1831
S'Bill Medley'
p1832
sVMN0000887806
p1833
S'Oleta Adams'
p1834
sVMN0000649120
p1835
S'Bucky Covington'
p1836
sVMN0000043714
p1837
S'Bee Gees'
p1838
sVMN0000610339
p1839
S'Toad The Wet Sprocket'
p1840
sVMN0000806991
p1841
S'Vikki Carr'
p1842
sVMN0003052691
p1843
S'Buddy Knox'
p1844
sVMN0000334193
p1845
S'New Order'
p1846
sVMN0000135306
p1847
S"The Cryan' Shames"
p1848
sVMN0000801894
p1849
S'Gene Cotton'
p1850
sVMN0000346336
p1851
S'Pink Floyd'
p1852
sVMN0000620495
p1853
S'The Breeders'
p1854
sVMN0000383056
p1855
S'The Click Five'
p1856
sVMN0000131681
p1857
S'Pat Boone'
p1858
sVMN0000093849
p1859
S'Black Oak Arkansas'
p1860
sVMN0000484343
p1861
S'The Paragons'
p1862
sVMN0003116716
p1863
S'Eye To Eye'
p1864
sVMN0000709715
p1865
S'Kris Allen'
p1866
sVMN0000418955
p1867
S'The Shangri-Las'
p1868
sVMN0000545875
p1869
S'Get Wet'
p1870
sVMN0000604924
p1871
S'Arthur Conley'
p1872
sVMN0000291054
p1873
S'Robert Hazard'
p1874
sVMN0000864411
p1875
S'Justin Moore'
p1876
sVMN0000245250
p1877
S'Juanes'
p1878
sVMN0000090389
p1879
S'Idris Muhammad'
p1880
sVMN0000249554
p1881
S'Scott Mckenzie'
p1882
sVMN0000626268
p1883
S'Buffy Sainte-Marie'
p1884
sVMN0000147082
p1885
S'James Ingram'
p1886
sVMN0000100610
p1887
S'Klique'
p1888
sVMN0000756380
p1889
S'Blues Magoos'
p1890
sVMN0001391868
p1891
S'Audrey Arno'
p1892
sVMN0000232564
p1893
S'John Lennon'
p1894
sVMN0000249559
p1895
S'Deryl Dodd'
p1896
sVMN0000495861
p1897
S'Mindy McCready'
p1898
sVMN0000625201
p1899
S"Alexander O'Neal"
p1900
sVMN0000147315
p1901
S'Cypress Hill'
p1902
sVMN0000270667
p1903
S'Live'
p1904
sVMN0000144847
p1905
S'Eagles'
p1906
sVMN0000962168
p1907
S'Dave Loggins'
p1908
sVMN0000894962
p1909
S'The Postal Service'
p1910
sVMN0000393789
p1911
S'Restless Heart Featuring Warren Hill'
p1912
sVMN0000923033
p1913
S'Styx'
p1914
sVMN0000029365
p1915
S'Trixter'
p1916
sVMN0000567624
p1917
S'The Stylistics'
p1918
sVMN0002907557
p1919
S'The Raindrops'
p1920
sVMN0000646260
p1921
S'C.W. McCall'
p1922
sVMN0000124881
p1923
S'Craig Morgan'
p1924
sVMN0000107249
p1925
S'Lakeside'
p1926
sVMN0000357587
p1927
S'Positive K'
p1928
sVMN0000936009
p1929
S'Heather Headley'
p1930
sVMN0000411761
p1931
S'Nina Simone'
p1932
sVMN0000195634
p1933
S'Dazz Band'
p1934
sVMN0003243845
p1935
S'Messengers'
p1936
sVMN0000895756
p1937
S'The Rattles'
p1938
sVMN0000374126
p1939
S'Natalie Imbruglia'
p1940
sVMN0000540883
p1941
S"Guns N' Roses"
p1942
sVMN0000825883
p1943
S'Dierks Bentley'
p1944
sVMN0000791483
p1945
S'Dwight Yoakam'
p1946
sVMN0000760977
p1947
S'The Five Stairsteps'
p1948
sVMN0000080494
p1949
S'Billy Gilman'
p1950
sVMN0000796710
p1951
S'Freda Payne'
p1952
sVMN0000135059
p1953
S'Classics IV'
p1954
sVMN0000283405
p1955
S'Mark Chesnutt'
p1956
sVMN0000017387
p1957
S'Sixpence None The Richer'
p1958
sVMN0000756492
p1959
S'Silver Condor'
p1960
sVMN0000923323
p1961
S'3 Doors Down'
p1962
sVMN0000462842
p1963
S'Obie Trice'
p1964
sVMN0000210830
p1965
S'Jamie Foxx Featuring Twista'
p1966
sVMN0000290945
p1967
S'Rocko'
p1968
sVMN0000961234
p1969
S'Dave Matthews Band'
p1970
sVMN0000812920
p1971
S'Dee Dee Sharp'
p1972
sVMN0000543595
p1973
S'Candlebox'
p1974
sVMN0000889097
p1975
S'Ric Ocasek'
p1976
sVMN0000102050
p1977
S'The Kingston Trio'
p1978
sVMN0000745316
p1979
S'Stanley Clarke'
p1980
sVMN0000003170
p1981
S'Pablo Cruise'
p1982
sVMN0000077223
p1983
S'Bad Boys Blue'
p1984
sVMN0000123132
p1985
S'Barbara Lewis'
p1986
sVMN0000897205
p1987
S'Miki Howard'
p1988
sVMN0002855999
p1989
S'Freddy King'
p1990
sVMN0000064864
p1991
S'Biddu Orchestra'
p1992
sVMN0000771638
p1993
S'Bonnie Guitar'
p1994
sVMN0000137430
p1995
S'The Cover Girls'
p1996
sVMN0000790509
p1997
S'Alphaville'
p1998
sVMN0000010538
p1999
S'Spandau Ballet'
p2000
sVMN0000011821
p2001
S'American Idol Finalists'
p2002
sVMN0000409670
p2003
S'Melanie'
p2004
sVMN0000053190
p2005
S'The Castells'
p2006
sVMN0000745568
p2007
S'Seven Mary Three'
p2008
sVMN0000243008
p2009
S'Weezer'
p2010
sVMN0001545319
p2011
S'Jeremih'
p2012
sVMN0000662692
p2013
S'Glenn Medeiros'
p2014
sVMN0000807121
p2015
S'Lou Christie'
p2016
sVMN0000933633
p2017
S'Mungo Jerry'
p2018
sVMN0000154765
p2019
S'Sha Na Na'
p2020
sVMN0000305335
p2021
S'Lisette Melendez'
p2022
sVMN0000574102
p2023
S'Dashboard Confessional'
p2024
sVMN0000301619
p2025
S'Portishead'
p2026
sVMN0000171576
p2027
S'Charlie Dore'
p2028
sVMN0000012595
p2029
S'American Hi-Fi'
p2030
sVMN0000198426
p2031
S'Changing Faces'
p2032
sVMN0000921965
p2033
S'The Ventures'
p2034
sVMN0000300749
p2035
S'Sammy Kershaw'
p2036
sVMN0000089058
p2037
S'Billy Ocean'
p2038
sVMN0000294085
p2039
S'Rodney Crowell'
p2040
sVMN0000149973
p2041
S'Barbara Lynn'
p2042
sVMN0000422405
p2043
S'The Replacements'
p2044
sVMN0000169003
p2045
S'Vesta'
p2046
sVMN0000348884
p2047
S'Ray Stevens'
p2048
sVMN0000926428
p2049
S'Thomas Dolby'
p2050
sVMN0000234518
p2051
S'Louis Armstrong'
p2052
sVMN0000478603
p2053
S'The Monkees'
p2054
sVMN0000070534
p2055
S'Bill Cosby'
p2056
sVMN0000781172
p2057
S'Jimmy Smith'
p2058
sVMN0000834845
p2059
S'Love And Money'
p2060
sVMN0000100160
p2061
S'The Kinks'
p2062
sVMN0000925066
p2063
S'Montell Jordan'
p2064
sVMN0000182897
p2065
S'Carrie Lucas'
p2066
sVMN0000226869
p2067
S'John Paul Young'
p2068
sVMN0000869487
p2069
S'Ray Conniff'
p2070
sVMN0000021747
p2071
S'Chuck Mangione'
p2072
sVMN0000861687
p2073
S'Nelly Furtado'
p2074
sVMN0000108826
p2075
S'Jackie Wilson'
p2076
sVMN0000021744
p2077
S'Stephen Stills'
p2078
sVMN0000848034
p2079
S'Jim Croce'
p2080
sVMN0000567570
p2081
S'Thompson Twins'
p2082
sVMN0000169795
p2083
S'Fiona Apple'
p2084
sVMN0000299471
p2085
S'Scorpions'
p2086
sVMN0000775288
p2087
S'Kut Klose'
p2088
sVMN0000758630
p2089
S'Better Than Ezra'
p2090
sVMN0000383526
p2091
S'Kate Voegele'
p2092
sVMN0000156161
p2093
S'Funkdoobiest'
p2094
sVMN0000267505
p2095
S'Jennifer Warnes'
p2096
sVMN0000000674
p2097
S'P.J. Proby'
p2098
sVMN0000861043
p2099
S'Ian Thomas'
p2100
sVMN0000422664
p2101
S'The Scaffold'
p2102
sVMN0000219203
p2103
S'U2'
p2104
sVMN0000044024
p2105
S'Steve Miller'
p2106
sVMN0000330575
p2107
S'Neil Sedaka'
p2108
sVMN0000836133
p2109
S'Valadiers'
p2110
sVMN0000045972
p2111
S'Swing Out Sister'
p2112
sVMN0000891911
p2113
S'Midnight Star'
p2114
sVMN0000751160
p2115
S'Paul Shaffer'
p2116
sVMN0000166033
p2117
S'Elvis Crespo'
p2118
sVMN0000169536
p2119
S'Ferlin Husky'
p2120
sVMN0000492162
p2121
S'The Prodigy'
p2122
sVMN0000097384
p2123
S'Kings Of Leon'
p2124
sVMN0000225960
p2125
S'Dean Parrish'
p2126
sVMN0000844872
p2127
S'Pharoahe Monch'
p2128
sVMN0000222244
p2129
S'Living In A Box'
p2130
sVMN0000169088
p2131
S"Dr. Buzzard's Original Savannah Band"
p2132
sVMN0000041899
p2133
S'The Blues Project'
p2134
sVMN0000074520
p2135
S'The Hives'
p2136
sVMN0000343947
p2137
S'Real Life'
p2138
sVMN0000039300
p2139
S'Peter Nero'
p2140
sVMN0002710354
p2141
S'707'
p2142
sVMN0000020984
p2143
S'Shelley Fabares'
p2144
sVMN0000837084
p2145
S'Roger Whittaker'
p2146
sVMN0001896379
p2147
S'F.R. David'
p2148
sVMN0001772529
p2149
S'Pockets'
p2150
sVMN0000188342
p2151
S'Freddy Fender'
p2152
sVMN0000814974
p2153
S'Del Reeves'
p2154
sVMN0000763554
p2155
S'Bill Doggett'
p2156
sVMN0000763551
p2157
S'The Chordettes'
p2158
sVMN0000935413
p2159
S'Musical Youth'
p2160
sVMN0000748088
p2161
S'Bert Kaempfert'
p2162
sVMN0000940583
p2163
S'The Call'
p2164
sVMN0000402249
p2165
S'Raphael Saadiq'
p2166
sVMN0000041874
p2167
S'The Beach Boys'
p2168
sVMN0000677575
p2169
S'Blaine Larsen'
p2170
sVMN0000696015
p2171
S'Phoebe Snow'
p2172
sVMN0000125121
p2173
S'The Dixie Drifter'
p2174
sVMN0000097654
p2175
S'Kim Carnes'
p2176
sVMN0000087853
p2177
S'Bobby McClure'
p2178
sVMN0000580058
p2179
S'Aaron Tippin'
p2180
sVMN0000070715
p2181
S'Bobby Darin'
p2182
sVMN0000258955
p2183
S'Juvenile'
p2184
sVMN0000669580
p2185
S'Major Harris'
p2186
sVMN0000837886
p2187
S'Lit'
p2188
sVMN0000874289
p2189
S'Menudo'
p2190
sVMN0000664459
p2191
S'Da Brat'
p2192
sVMN0000162487
p2193
S'Dixie Chicks'
p2194
sVMN0000289058
p2195
S'Saigon Kick'
p2196
sVMN0000651107
p2197
S'Marianne Faithfull'
p2198
sVMN0000930642
p2199
S'Morris Day'
p2200
sVMN0000747200
p2201
S'Troop'
p2202
sVMN0000480086
p2203
S'Modest Mouse'
p2204
sVMN0000204901
p2205
S'Sarah Vaughan'
p2206
sVMN0000883318
p2207
S'Red Hot Chili Peppers'
p2208
sVMN0000069761
p2209
S'The Irish Rovers'
p2210
sVMN0000671746
p2211
S'Major Lance'
p2212
sVMN0000072485
p2213
S'BT'
p2214
sVMN0000531660
p2215
S'Stryper'
p2216
sVMN0000355616
p2217
S'Poison'
p2218
sVMN0000192436
p2219
S'Chairmen Of The Board'
p2220
sVMN0000186978
p2221
S'Mack 10'
p2222
sVMN0000654393
p2223
S'Canibus'
p2224
sVMN0000163264
p2225
S'Cassidy'
p2226
sVMN0000087210
p2227
S'Ian Lloyd'
p2228
sVMN0000170381
p2229
S'Europe'
p2230
sVMN0001511928
p2231
S'Iyaz'
p2232
sVMN0002432296
p2233
S'Artists Stand Up To Cancer'
p2234
sVMN0000162269
p2235
S'Faith Hill'
p2236
sVMN0000205838
p2237
S'Dragonforce'
p2238
sVMN0000785533
p2239
S'The Dukays'
p2240
sVMN0000224369
p2241
S'John Miles'
p2242
sVMN0000959490
p2243
S'Dave Dudley'
p2244
sVMN0000499623
p2245
S'Ozark Mountain Daredevils'
p2246
sVMN0000170369
p2247
S'Lynyrd Skynyrd'
p2248
sVMN0000788847
p2249
S'Evelyn Thomas'
p2250
sVMN0001303654
p2251
S'Kevin Lamb'
p2252
sVMN0000508443
p2253
S'Air Supply'
p2254
sVMN0000890799
p2255
S'The McCoys'
p2256
sVMN0000898275
p2257
S'Missing Persons'
p2258
sVMN0001391253
p2259
S'Young Money'
p2260
sVMN0000366681
p2261
S'Paramore'
p2262
sVMN0000249303
p2263
S'Wet Willie'
p2264
sVMN0000649435
p2265
S'Gerald Levert'
p2266
sVMN0000801971
p2267
S'Bob Geldof'
p2268
sVMN0000927650
p2269
S'Tiffany'
p2270
sVMN0000254083
p2271
S'Wayne Wonder'
p2272
sVMN0000682958
p2273
S'Peter Wolf'
p2274
sVMN0000227697
p2275
S'Robbie Williams'
p2276
sVMN0000866767
p2277
S'Randy Vanwarmer'
p2278
sVMN0000884251
p2279
S'O-Town'
p2280
sVMN0000488859
p2281
S'Millie Jackson'
p2282
sVMN0000784759
p2283
S'Joanie Sommers'
p2284
sVMN0000801573
p2285
S'Doris Troy'
p2286
sVMN0000033206
p2287
S'Andrea Martin'
p2288
sVMN0000364572
p2289
S'Kathy Troccoli'
p2290
sVMN0000196248
p2291
S'Don Williams'
p2292
sVMN0000032401
p2293
S'Triumph'
p2294
sVMN0000227675
p2295
S'Walter Jackson'
p2296
sVMN0000852399
p2297
S'Jim Steinman'
p2298
sVMN0000291043
p2299
S'Journey'
p2300
sVMN0000028772
p2301
S'The 5th Dimension'
p2302
sVMN0000477068
p2303
S'4 The Cause'
p2304
sVMN0000490805
p2305
S'The Royal Guardsmen'
p2306
sVMN0000548338
p2307
S'Cannonball Adderley'
p2308
sVMN0000565727
p2309
S'Darrell Banks'
p2310
sVMN0000944349
p2311
S'Cameo'
p2312
sVMN0000135193
p2313
S'Earth Opera'
p2314
sVMN0000264350
p2315
S'Sean Paul'
p2316
sVMN0000667794
p2317
S'Gordon Lightfoot'
p2318
sVMN0000294923
p2319
S'Judy Collins'
p2320
sVMN0000829267
p2321
S'Loreena McKennitt'
p2322
sVMN0000147635
p2323
S'Carly Simon'
p2324
sVMN0000017136
p2325
S'Teddy Randazzo'
p2326
sVMN0000937703
p2327
S'The Brothers Four'
p2328
sVMN0000572106
p2329
S'The Three Degrees'
p2330
sVMN0000048622
p2331
S'The Marcels'
p2332
sVMN0000317093
p2333
S'Nat King Cole'
p2334
sVMN0000647518
p2335
S'Cal Smith'
p2336
sVMN0000081079
p2337
S'Keith Washington'
p2338
sVMN0000868616
p2339
S'Nickelback'
p2340
sVMN0000868617
p2341
S'Nicki French'
p2342
sVMN0000812480
p2343
S'John Stewart'
p2344
sVMN0000500612
p2345
S'Adam Sandler'
p2346
sVMN0000569256
p2347
S'The Tams'
p2348
sVMN0000203296
p2349
S'Vicki Lawrence'
p2350
sVMN0000739742
p2351
S'Jibbs'
p2352
sVMN0000800614
p2353
S'2nd II None'
p2354
sVMN0000591806
p2355
S'Adam Faith'
p2356
sVMN0000476425
p2357
S'Mika'
p2358
sVMN0000149515
p2359
S'Joe Cocker'
p2360
sVMN0000852062
p2361
S'Rozalla'
p2362
sVMN0000949980
p2363
S'Giuffria'
p2364
sVMN0000287407
p2365
S'Jessica Simpson'
p2366
sVMN0000081814
p2367
S'Billy Abbott'
p2368
sVMN0000831448
p2369
S'Romeo Void'
p2370
sVMN0000482787
p2371
S'The Whispers'
p2372
sVMN0000044764
p2373
S'Blondie'
p2374
sVMN0000058549
p2375
S'Elvis Costello'
p2376
sVMN0001323485
p2377
S'Chris Andrews'
p2378
sVMN0000408736
p2379
S'The Real McCoy'
p2380
sVMN0000585690
p2381
S'Yankee Grey'
p2382
sVMN0000567769
p2383
S'Saving Abel'
p2384
sVMN0000674662
p2385
S'Manfred Mann'
p2386
sVMN0000816900
p2387
S'Warren Zevon'
p2388
sVMN0000256395
p2389
S'Diane Renay'
p2390
sVMN0000799100
p2391
S'Great White'
p2392
sVMN0000279337
p2393
S'Sade'
p2394
sVMN0002849126
p2395
S'The Monitors'
p2396
sVMN0000903609
p2397
S'Jim Reeves'
p2398
sVMN0000480472
p2399
S'Anita Bryant'
p2400
sVMN0000520545
p2401
S'My Chemical Romance'
p2402
sVMN0003191462
p2403
S'Prism'
p2404
sVMN0000674262
p2405
S'Mandrill'
p2406
sVMN0000755979
p2407
S'Andy Pratt'
p2408
sVMN0002010578
p2409
S'Stillwater'
p2410
sVMN0000051140
p2411
S'The Love Generation'
p2412
sVMN0000747967
p2413
S'Shelby Flint'
p2414
sVMN0000800926
p2415
S'Emitt Rhodes'
p2416
sVMN0000992857
p2417
S'Duffy'
p2418
sVMN0000287080
p2419
S'Player'
p2420
sVMN0000918682
p2421
S'The Surfaris'
p2422
sVMN0000297894
p2423
S'Poco'
p2424
sVMN0001452648
p2425
S'Mick Jackson'
p2426
sVMN0000201983
p2427
S'Westlife'
p2428
sVMN0000120675
p2429
S"Ja Rule Featuring Lil' Mo & Vita"
p2430
sVMN0000242543
p2431
S'West Street Mob'
p2432
sVMN0000570108
p2433
S'Incredible Bongo Band'
p2434
sVMN0000768010
p2435
S'The Ides Of March'
p2436
sVMN0000085206
p2437
S'Kellee Patterson'
p2438
sVMN0000517175
p2439
S'Justin Hayward'
p2440
sVMN0000938878
p2441
S'Brownsville Station'
p2442
sVMN0000178775
p2443
S'Figures On A Beach'
p2444
sVMN0000661795
p2445
S'DMX'
p2446
sVMN0000221059
p2447
S'Jason Mraz'
p2448
sVMN0000481057
p2449
S'Orchestral Manoeuvres In The Dark'
p2450
sVMN0000031697
p2451
S'Andy Gibb'
p2452
sVMN0000203639
p2453
S'Johnny Rivers'
p2454
sVMN0000382880
p2455
S'Red Rockers'
p2456
sVMN0000029604
p2457
S'Shocking Blue'
p2458
sVMN0000057835
p2459
S'Bill Conti'
p2460
sVMN0000477875
p2461
S'The Supremes'
p2462
sVMN0000792348
p2463
S'E.U.'
p2464
sVMN0000758444
p2465
S'Blur'
p2466
sVMN0000574119
p2467
S'Sugar Ray'
p2468
sVMN0000834673
p2469
S'Linda Jones'
p2470
sVMN0000405113
p2471
S'Ray Anthony'
p2472
sVMN0000797452
p2473
S'Stage Dolls'
p2474
sVMN0000830319
p2475
S'Hugh Masekela'
p2476
sVMN0000240632
p2477
S'Al Casey'
p2478
sVMN0000143951
p2479
S'Faron Young'
p2480
sVMN0000776093
p2481
S'Kylie Minogue'
p2482
sVMN0000815167
p2483
S'Warren G'
p2484
sVMN0001176481
p2485
S'The Alan Parsons Project'
p2486
sVMN0000754251
p2487
S'Suzanne Vega'
p2488
sVMN0000100116
p2489
S'Charlie Wilson'
p2490
sVMN0000495288
p2491
S'The Rentals'
p2492
sVMN0000222436
p2493
S'David Lee Roth'
p2494
sVMN0000065231
p2495
S'Keith Martin'
p2496
sVMN0000209517
p2497
S'Wilbert Harrison'
p2498
sVMN0000234325
p2499
S'Loretta Lynn'
p2500
sVMN0000010458
p2501
S'Alison Moyet'
p2502
sVMN0000304102
p2503
S'Utah Saints'
p2504
sVMN0000615826
p2505
S'Brenda Holloway'
p2506
sVMN0000475650
p2507
S'The Outfield'
p2508
sVMN0000158309
p2509
S'Pat Benatar'
p2510
sVMN0000156950
p2511
S'Chad Brock'
p2512
sVMN0000201297
p2513
S'Foghat'
p2514
sVMN0000175286
p2515
S'Dolly Parton'
p2516
sVMN0000145669
p2517
S'Barbara Acklin'
p2518
sVMN0000030928
p2519
S'Tevin Campbell'
p2520
sVMN0000581644
p2521
S'The Spokesmen'
p2522
sVMN0000000441
p2523
S'P.O.D.'
p2524
sVMN0000866588
p2525
S'The New Radicals'
p2526
sVMN0000920939
p2527
S'The Undisputed Truth'
p2528
sVMN0000953430
p2529
S'Haysi Fantayzee'
p2530
sVMN0001021310
p2531
S'Zac Brown Band'
p2532
sVMN0000320845
p2533
S'Peter Frampton'
p2534
sVMN0000284667
p2535
S'Robbie Nevil'
p2536
sVMN0000934174
p2537
S'Brenda K. Starr'
p2538
sVMN0000503242
p2539
S'Miranda Lambert'
p2540
sVMN0000857621
p2541
S'Keane'
p2542
sVMN0000599389
p2543
S"Mother's Finest"
p2544
sVMN0000215513
p2545
S'Ciara'
p2546
sVMN0000045560
p2547
S'The Mars Volta'
p2548
sVMN0000011210
p2549
S'Tara Kemp'
p2550
sVMN0000774956
p2551
S'Chris Kenner'
p2552
sVMN0000221235
p2553
S'David Laflamme'
p2554
sVMN0000260212
p2555
S'Pet Shop Boys'
p2556
sVMN0000115554
p2557
S'LSG'
p2558
sVMN0000473554
p2559
S'Olivia Newton-John'
p2560
sVMN0000772567
p2561
S'Iron Butterfly'
p2562
sVMN0000450883
p2563
S'CSS'
p2564
sVMN0000071373
p2565
S'BBMak'
p2566
sVMN0000804289
p2567
S'Lynn Anderson'
p2568
sVMN0000845196
p2569
S'Norman Connors'
p2570
sVMN0000844707
p2571
S'Ronnie Carroll'
p2572
sVMN0000046814
p2573
S'Blake Shelton'
p2574
sVMN0000762929
p2575
S'B.G. The Prince Of Rap'
p2576
sVMN0000607028
p2577
S'Arthur Lyman'
p2578
sVMN0000920338
p2579
S'702'
p2580
sVMN0000036641
p2581
S"Paul Wall Featuring Lil' KeKe"
p2582
sVMN0000132856
p2583
S'Crystal Waters'
p2584
sVMN0000091549
p2585
S'Chevelle'
p2586
sVMN0000070704
p2587
S'Big Mountain'
p2588
sVMN0000768844
p2589
S'Billy Vaughn'
p2590
sVMN0000235923
p2591
S'Leif Garrett'
p2592
sVMN0000258947
p2593
S'Various Artists'
p2594
sVMN0000223746
p2595
S'David Soul'
p2596
sVMN0000604489
p2597
S'Timmy T'
p2598
sVMN0001762023
p2599
S'Janie Grant'
p2600
sVMN0000131986
p2601
S'Jimmy Wayne'
p2602
sVMN0000046727
p2603
S'Edwin Starr'
p2604
sVMN0000772745
p2605
S'Incubus'
p2606
sVMN0000858006
p2607
S'Quarterflash'
p2608
sVMN0000152023
p2609
S'Everclear'
p2610
sVMN0001715000
p2611
S'Danny Williams'
p2612
sVMN0000188935
p2613
S'Central Line'
p2614
sVMN0000883619
p2615
S'Red Rider'
p2616
sVMN0000772981
p2617
S'Kim Mitchell'
p2618
sVMN0000005501
p2619
S'System Of A Down'
p2620
sVMN0001013375
p2621
S'The Script'
p2622
sVMN0000033560
p2623
S'Suzi Quatro'
p2624
sVMN0000073383
p2625
S'The Gap Band'
p2626
sVMN0000316834
p2627
S'Marvin Gaye'
p2628
sVMN0000087179
p2629
S'The Knack'
p2630
sVMN0000753999
p2631
S'The Beau-Marks'
p2632
sVMN0000165030
p2633
S'Channel Live'
p2634
sVMN0000619536
p2635
S'Pretty Ricky'
p2636
sVMN0000471156
p2637
S'Mickey Gilley'
p2638
sVMN0000121012
p2639
S'Joe Budden'
p2640
sVMN0000196965
p2641
S'Jeff Bates'
p2642
sVMN0001061504
p2643
S'Frankie Miller'
p2644
sVMN0000069153
p2645
S'Joan Baez'
p2646
sVMN0000334041
p2647
S'Mark Wills'
p2648
sVMN0000591104
p2649
S'Mongo Santamaria'
p2650
sVMN0000022928
p2651
S'Steppenwolf'
p2652
sVMN0000784320
p2653
S'Curiosity Killed The Cat'
p2654
sVMN0000472440
p2655
S'The Olympics'
p2656
sVMN0000322733
p2657
S'Jermaine Dupri Featuring Nate Dogg'
p2658
sVMN0000611797
p2659
S'Lady Sovereign'
p2660
sVMN0000119393
p2661
S'L.A. Style'
p2662
sVMN0000858710
p2663
S'Marty Robbins'
p2664
sVMN0000934367
p2665
S'Breaking Benjamin'
p2666
sVMN0000737886
p2667
S'Enrique Iglesias'
p2668
sVMN0000160690
p2669
S'En Vogue'
p2670
sVMN0000483563
p2671
S'The Verve Pipe'
p2672
sVMN0000852656
p2673
S'RuPaul'
p2674
sVMN0000835648
p2675
S'Uriah Heep'
p2676
sVMN0000574597
p2677
S'ABC'
p2678
sVMN0000061226
p2679
S'Babyface'
p2680
sVMN0000008110
p2681
S'Robert Maxwell'
p2682
sVMN0000032620
p2683
S'The Astors'
p2684
sVMN0000244254
p2685
S'Dennis Coffey'
p2686
sVMN0000138760
p2687
S'Ric-A-Che'
p2688
sVMN0000312782
p2689
S'Keith Carradine'
p2690
sVMN0000194018
p2691
S'Del Shannon'
p2692
sVMN0000203916
p2693
S'Ernie Maresca'
p2694
sVMN0000374593
p2695
S'The Nashville Teens'
p2696
sVMN0000059156
p2697
S'B.B. King'
p2698
sVMN0000595718
p2699
S'Youngstown'
p2700
sVMN0000490860
p2701
S'Three Days Grace'
p2702
sVMN0000130171
p2703
S'Lana Cantrell'
p2704
sVMN0000130173
p2705
S'Crowded House'
p2706
sVMN0000170770
p2707
S'Erykah Badu'
p2708
sVMN0000068551
p2709
S'Kenny Chesney'
p2710
sVMN0000256528
p2711
S'Lucy Pearl'
p2712
sVMN0000061044
p2713
S'Bobby Brown'
p2714
sVMN0000061045
p2715
S'Bobby Caldwell'
p2716
sVMN0000805661
p2717
S'Humble Pie'
p2718
sVMN0000630603
p2719
S'The Browns'
p2720
sVMN0000798248
p2721
S'Garth Brooks'
p2722
sVMN0000195729
p2723
S'Champaign'
p2724
sVMN0000545523
p2725
S'Gucci Mane Featuring Usher'
p2726
sVMN0000220590
p2727
S'MC Lyte'
p2728
sVMN0000067267
p2729
S'Billie Ray Martin'
p2730
sVMN0000689326
p2731
S'Will To Power'
p2732
sVMN0000437983
p2733
S'Frankie Smith'
p2734
sVMN0000656541
p2735
S'OneRepublic'
p2736
sVMN0000597516
p2737
S'Yvonne Elliman'
p2738
sVMN0000150793
p2739
S'E-40'
p2740
sVMN0003349614
p2741
S'Point Blank'
p2742
sVMN0000087697
p2743
S'Kem'
p2744
sVMN0000153443
p2745
S'Fabolous'
p2746
sVMN0000146755
p2747
S'Cutting Crew'
p2748
sVMN0001009342
p2749
S'Jake Owen'
p2750
sVMN0000495338
p2751
S'Ace Of Base'
p2752
sVMN0000296209
p2753
S'Sandy Nelson'
p2754
sVMN0000789634
p2755
S'Clifford Curry'
p2756
sVMN0000522377
p2757
S'Sting'
p2758
sVMN0000211850
p2759
S'Jann Arden'
p2760
sVMN0000164156
p2761
S'Tammy Cochran'
p2762
sVMN0000746128
p2763
S'Steelheart'
p2764
sVMN0000932922
p2765
S'Brass Construction'
p2766
sVMN0000185669
p2767
S'Mac Davis'
p2768
sVMN0000486047
p2769
S'Sublime'
p2770
sVMN0000577627
p2771
S'The Who'
p2772
sVMN0000251361
p2773
S'Dexys Midnight Runners'
p2774
sVMN0000247691
p2775
S'Wendy Moten'
p2776
sVMN0000199229
p2777
S'Johnny Bond'
p2778
sVMN0000031067
p2779
S'Solomon Burke'
p2780
sVMN0000556320
p2781
S'Glenn Yarbrough'
p2782
sVMN0000329232
p2783
S'New Found Glory'
p2784
sVMN0000756349
p2785
S'Soulsister'
p2786
sVMN0000350127
p2787
S'Royal Philharmonic Orchestra'
p2788
sVMN0000325126
p2789
S'Phajja'
p2790
sVMN0000139741
p2791
S'Frankie Goes To Hollywood'
p2792
sVMN0000746302
p2793
S'Train'
p2794
sVMN0000940125
p2795
S'David Banner'
p2796
sVMN0000312890
p2797
S'Justin Timberlake'
p2798
sVMN0000224113
p2799
S'Joni James'
p2800
sVMN0000575405
p2801
S'Willi One Blood'
p2802
sVMN0000210323
p2803
S'Joe Tex'
p2804
sVMN0000796734
p2805
S'Elton John'
p2806
sVMN0000796736
p2807
S'Elvin Bishop'
p2808
sVMN0000868289
p2809
S'Meco'
p2810
sVMN0000021008
p2811
S'Trick Pony'
p2812
sVMN0000847006
p2813
S'D4L'
p2814
sVMN0000158656
p2815
S'Taking Back Sunday'
p2816
sVMN0000691371
p2817
S'Avenged Sevenfold'
p2818
sVMN0000055304
p2819
S'The Flamingos'
p2820
sVMN0000191947
p2821
S'War'
p2822
sVMN0002689236
p2823
S'One Way'
p2824
sVMN0000120521
p2825
S'Chuck Berry'
p2826
sVMN0000517797
p2827
S'Toni Basil'
p2828
sVMN0000077264
p2829
S'Bad English'
p2830
sVMN0000664849
p2831
S'Gloria Gaynor'
p2832
sVMN0000816418
p2833
S'Purple Ribbon All-Stars'
p2834
sVMN0000190717
p2835
S'Mad Lion'
p2836
sVMN0000203008
p2837
S'Rush'
p2838
sVMN0000018977
p2839
S'Barry Manilow'
p2840
sVMN0000524837
p2841
S'Mrs. Miller'
p2842
sVMN0000320083
p2843
S'Mary MacGregor'
p2844
sVMN0000768160
p2845
S'Billy Strange'
p2846
sVMN0000159433
p2847
S'Take That'
p2848
sVMN0000882956
p2849
S'Merry Clayton'
p2850
sVMN0000252608
p2851
S'Leroy Pullins'
p2852
sVMN0000467382
p2853
S'Michael Penn'
p2854
sVMN0000163229
p2855
S'Electric Light Orchestra'
p2856
sVMN0000137904
p2857
S'Fefe Dobson'
p2858
sVMN0000076025
p2859
S'Bobby Gregg'
p2860
sVMN0002536669
p2861
S'Kid Cudi Vs Crookers'
p2862
sVMN0000573870
p2863
S'The Troggs'
p2864
sVMN0000279143
p2865
S'Ryan Duarte'
p2866
sVMN0000924918
p2867
S'Sue Thompson'
p2868
sVMN0000988944
p2869
S'Ferras'
p2870
sVMN0000127360
p2871
S'Everything But The Girl'
p2872
sVMN0001412272
p2873
S'Gary Stites'
p2874
sVMN0000171117
p2875
S'Eddie Lovette'
p2876
sVMN0000843106
p2877
S'Peter Sarstedt'
p2878
sVMN0000921895
p2879
S'2Pac'
p2880
sVMN0000578744
p2881
S'William Bell'
p2882
sVMN0001572321
p2883
S'Tourists'
p2884
sVMN0000665908
p2885
S'Good Charlotte'
p2886
sVMN0000182415
p2887
S'Fugees'
p2888
sVMN0000373634
p2889
S'Nas'
p2890
sVMN0000812877
p2891
S'Deep Blue Something'
p2892
sVMN0000858827
p2893
S'Queen'
p2894
sVMN0000031685
p2895
S'Paul Simon'
p2896
sVMN0000758943
p2897
S'Big Brother & The Holding Company'
p2898
sVMN0000057827
p2899
S'The Main Ingredient'
p2900
sVMN0000741336
p2901
S'Fruit De La Passion'
p2902
sVMN0001690114
p2903
S'Paul Peek'
p2904
sVMN0000208582
p2905
S'Lesley Gore'
p2906
sVMN0000172154
p2907
S'Fire Inc.'
p2908
sVMN0000142106
p2909
S'Lauren Wood'
p2910
sVMN0000107997
p2911
S'Jackie Ross'
p2912
sVMN0000317209
p2913
S'NKOTB'
p2914
sVMN0000396154
p2915
S'Maxine Brown'
p2916
sVMN0000154544
p2917
S'Green Day'
p2918
sVMN0000665957
p2919
S'Harold Melvin & The Blue Notes'
p2920
sVMN0000665958
p2921
S'Gogi Grant'
p2922
sVMN0000770059
p2923
S'Born Jamericans'
p2924
sVMN0000234192
p2925
S'John Kay'
p2926
sVMN0000230478
p2927
S'Walter Wanderley'
p2928
sVMN0000359119
p2929
S'KRS-One'
p2930
sVMN0000270497
p2931
S'Peter Schilling'
p2932
sVMN0000599732
p2933
S'Arrested Development'
p2934
sVMN0000562850
p2935
S'Lily Allen'
p2936
sVMN0000270491
p2937
S'Joni Mitchell'
p2938
sVMN0003018652
p2939
S'Peter Shelley'
p2940
sVMN0000782163
p2941
S'Jaheim'
p2942
sVMN0000292243
p2943
S'Polly Brown'
p2944
sVMN0000182302
p2945
S'Ray LaMontagne'
p2946
sVMN0000367188
p2947
S'Rihanna'
p2948
sVMN0000068155
p2949
S'The Chantels'
p2950
sVMN0000390477
p2951
S'New Kids On The Block'
p2952
sVMN0000473410
p2953
S'Michelle Shocked'
p2954
sVMN0001775564
p2955
S'USA For Africa'
p2956
sVMN0000790732
p2957
S'Squeeze'
p2958
sVMN0000314155
p2959
S'Peter Allen'
p2960
sVMN0000081537
p2961
S'Bourgeois Tagg'
p2962
sVMN0001406310
p2963
S'The Dyna-Sores'
p2964
sVMN0000782768
p2965
S'Creed'
p2966
sVMN0000581859
p2967
S'The Vogues'
p2968
sVMN0000771470
p2969
S'Boy George'
p2970
sVMN0000815598
p2971
S'Walter Brennan'
p2972
sVMN0000011597
p2973
S'The American Breed'
p2974
sVMN0000253657
p2975
S'JoJo'
p2976
sVMN0000123268
p2977
S'Webbie'
p2978
sVMN0000948061
p2979
S'Gino Vannelli'
p2980
sVMN0000105685
p2981
S'Krokus'
p2982
sVMN0000122023
p2983
S'Cilla Black'
p2984
sVMN0000178345
p2985
S'Jane Child'
p2986
sVMN0000027864
p2987
S'Andre Williams'
p2988
sVMN0000851263
p2989
S'Roy Head'
p2990
sVMN0000933621
p2991
S'Alannah Myles'
p2992
sVMN0000846634
p2993
S'Ne-Yo'
p2994
sVMN0000785101
p2995
S'Bananarama'
p2996
sVMN0001862737
p2997
S'Trent Tomlinson'
p2998
sVMN0000815575
p2999
S'Lena Horne'
p3000
sVMN0000520033
p3001
S'The Boomtown Rats'
p3002
sVMN0000673933
p3003
S'Mandy Moore'
p3004
sVMN0000775904
p3005
S'Chris De Burgh'
p3006
sVMN0000811897
p3007
S'John Michael Montgomery'
p3008
sVMN0000327735
p3009
S'REO Speedwagon'
p3010
sVMN0000818200
p3011
S'Westside Connection'
p3012
sVMN0000318910
p3013
S'Verdelle Smith'
p3014
sVMN0000407986
p3015
S'Melissa Manchester'
p3016
sVMN0000744232
p3017
S'T.S. Monk'
p3018
sVMN0000751623
p3019
S'Paul Stanley'
p3020
sVMN0000108331
p3021
S'Jack Greene'
p3022
sVMN0000145054
p3023
S'Eazy-E'
p3024
sVMN0000845187
p3025
S'Saving Jane'
p3026
sVMN0000129817
p3027
S'Shabba Ranks'
p3028
sVMN0000590285
p3029
S'Billy Preston'
p3030
sVMN0000583959
p3031
S'Willie Nelson'
p3032
sVMN0000041857
p3033
S'Souls Of Mischief'
p3034
sVMN0002110284
p3035
S'Wonder Girls'
p3036
sVMN0000405968
p3037
S'The Real Thing'
p3038
sVMN0000762663
p3039
S'The Cheetah Girls'
p3040
sVMN0000775406
p3041
S'Chris Cornell'
p3042
sVMN0000339490
p3043
S'Rare Earth'
p3044
sVMN0000996025
p3045
S'Carolina Liar'
p3046
sVMN0000226420
p3047
S'Vivian Green'
p3048
sVMN0000359613
p3049
S'Rick Springfield'
p3050
sVMN0000205180
p3051
S'Dr. John'
p3052
sVMN0000377035
p3053
S'Mass Production'
p3054
sVMN0000070773
p3055
S'The Grass Roots'
p3056
sVMN0000383889
p3057
S'matchbox twenty'
p3058
sVMN0000166264
p3059
S'El Coco'
p3060
sVMN0000037252
p3061
S'Sonny Knight'
p3062
sVMN0000349555
p3063
S'Jimmy Holiday'
p3064
sVMN0000141774
p3065
S'Curtis Stigers'
p3066
sVMN0000893724
p3067
S'The Nylons'
p3068
sVMN0000190632
p3069
S'Dottie West'
p3070
sVMN0000571394
p3071
S'A Few Good Men'
p3072
sVMN0000587152
p3073
S'Young Hearts'
p3074
sVMN0000156886
p3075
S'Spyro Gyra'
p3076
sVMN0000099925
p3077
S'Boomkat'
p3078
sVMN0000192382
p3079
S'Deep Purple'
p3080
sVMN0000393106
p3081
S'The Newbeats'
p3082
sVMN0000738674
p3083
S'Donna Fargo'
p3084
sVMN0000277549
p3085
S'Lonnie Donegan'
p3086
sVMN0000298492
p3087
S'Ruby Andrews'
p3088
sVMN0000337271
p3089
S'Jessi Colter'
p3090
sVMN0000144446
p3091
S'Edward Bear'
p3092
sVMN0000212235
p3093
S'Russ Irwin'
p3094
sVMN0000848688
p3095
S'J.J. Fad'
p3096
sVMN0000550120
p3097
S'High School Musical Cast'
p3098
sVMN0000580928
p3099
S'Mitty Collier'
p3100
sVMN0000099032
p3101
S'Company B'
p3102
sVMN0000927501
p3103
S'Arpeggio'
p3104
sVMN0000204968
p3105
S'Charlie Byrd'
p3106
sVMN0000625203
p3107
S'Britny Fox'
p3108
sVMN0000479772
p3109
S'The Motels'
p3110
sVMN0000293896
p3111
S'Rod Stewart'
p3112
sVMN0000096613
p3113
S'Bonnie Raitt'
p3114
sVMN0000620578
p3115
S'Tommy Sands'
p3116
sVMN0002002344
p3117
S'Brown Boy'
p3118
sVMN0000196976
p3119
S'Gretchen Wilson'
p3120
sVMN0003389510
p3121
S'Marc Nelson'
p3122
sVMN0000168173
p3123
S'Maria Mena'
p3124
sVMN0000144458
p3125
S'Curtis Mayfield'
p3126
sVMN0000119651
p3127
S'J.J. Cale'
p3128
sVMN0000303626
p3129
S'Kansas'
p3130
sVMN0000604852
p3131
S'Aerosmith'
p3132
sVMN0000747820
p3133
S'Ten Wheel Drive'
p3134
sVMN0000804654
p3135
S'GQ'
p3136
sVMN0000294453
p3137
S'Jimmy Hughes'
p3138
sVMN0000736318
p3139
S'All Time Low'
p3140
sVMN0000073806
p3141
S'The Highwaymen'
p3142
sVMN0002114292
p3143
S'The Chanters'
p3144
sVMN0000394806
p3145
S'Randy Newman'
p3146
sVMN0001661579
p3147
S'Johnny Caswell'
p3148
sVMN0000224345
p3149
S'Vitamin C'
p3150
sVMN0000033316
p3151
S'Andy Kim'
p3152
sVMN0000047999
p3153
S'B Angie B'
p3154
sVMN0000936126
p3155
S'Tommy Edwards'
p3156
sVMN0000001418
p3157
S'T.I.'
p3158
sVMN0000017882
p3159
S'Teresa Brewer'
p3160
sVMN0000292129
p3161
S'Robert Knight'
p3162
sVMN0000067876
p3163
S'The Headpins'
p3164
sVMN0000210143
p3165
S'Lou Bega'
p3166
sVMN0000079580
p3167
S'Jimmy McCracklin'
p3168
sVMN0000116716
p3169
S'Leapy Lee'
p3170
sVMN0000156484
p3171
S'Sponge'
p3172
sVMN0000495508
p3173
S'Troy Shondell'
p3174
sVMN0000018513
p3175
S'Paul Hardcastle'
p3176
sVMN0000765595
p3177
S'Backstreet Boys'
p3178
sVMN0002901281
p3179
S'Little Junior Parker'
p3180
sVMN0000133719
p3181
S'Fatboy Slim'
p3182
sVMN0000202344
p3183
S'Vicki Sue Robinson'
p3184
sVMN0001317177
p3185
S'Drafi'
p3186
sVMN0000158798
p3187
S'Michael Gore'
p3188
sVMN0000498648
p3189
S'Orianthi'
p3190
sVMN0000891338
p3191
S'The Mojo Men'
p3192
sVMN0000147294
p3193
S'Cymande'
p3194
sVMN0000072041
p3195
S'Bob Seger'
p3196
sVMN0000228099
p3197
S'Howard Jones'
p3198
sVMN0003014650
p3199
S'The Regents'
p3200
sVMN0000536321
p3201
S'MGMT'
p3202
sVMN0000329468
p3203
S'Jerry Butler'
p3204
sVMN0000808321
p3205
S'Jan Bradley'
p3206
sVMN0000316096
p3207
S'Mary Hopkin'
p3208
sVMN0000050034
p3209
S'Gary Moore'
p3210
sVMN0000053548
p3211
S'The Flares'
p3212
sVMN0000786991
p3213
S'Claudine Clark'
p3214
sVMN0000224294
p3215
S'John Fogerty'
p3216
sVMN0000633079
p3217
S'Strawberry Alarm Clock'
p3218
sVMN0000743878
p3219
S'Stan Freberg'
p3220
sVMN0000100487
p3221
S'J.J. Jackson'
p3222
sVMN0000077283
p3223
S'Geto Boys Featuring Flaj'
p3224
sVMN0000836802
p3225
S'Urgent'
p3226
sVMN0000127063
p3227
S'Bell Biv Devoe'
p3228
sVMN0000088778
p3229
S'Jimmy Ray'
p3230
sVMN0000170180
p3231
S'Tyler Collins'
p3232
sVMN0000251375
p3233
S'Johnny Paycheck'
p3234
sVMN0000038805
p3235
S'Angie Stone'
p3236
sVMN0000824895
p3237
S'El Chicano'
p3238
sVMN0000262956
p3239
S'Lighter Shade Of Brown'
p3240
sVMN0000295276
p3241
S'Jimmy Cliff'
p3242
sVMN0000767622
p3243
S'Billy Edd Wheeler'
p3244
sVMN0000325366
p3245
S'R.B. Greaves'
p3246
sVMN0000012340
p3247
S'Shawnna'
p3248
sVMN0000135152
p3249
S'Jodeci'
p3250
sVMN0000741431
p3251
S'Fu-Schnickens'
p3252
sVMN0000346451
p3253
S'Roy Drusky'
p3254
sVMN0000028002
p3255
S'Shinedown'
p3256
sVMN0000472925
p3257
S'The Offspring'
p3258
sVMN0000596126
p3259
S'Mott The Hoople'
p3260
sVMN0000091122
p3261
S'Inner City'
p3262
sVMN0000112387
p3263
S'Jocelyn Enriquez'
p3264
sVMN0000116388
p3265
S'Kurtis Blow'
p3266
sVMN0000951443
p3267
S'Harold Faltermeyer'
p3268
sVMN0000260038
p3269
S'Dinah Washington'
p3270
sVMN0000076658
p3271
S'Jimmy McGriff'
p3272
sVMN0000665835
p3273
S'Goose Creek Symphony'
p3274
sVMN0000151431
p3275
S'Roger Miller'
p3276
sVMN0000035338
p3277
S'Peabo Bryson'
p3278
sVMN0000121357
p3279
S'J.D. Souther'
p3280
sVMN0000540010
p3281
S'Capleton'
p3282
sVMN0000799053
p3283
S'Donovan'
p3284
sVMN0000012128
p3285
S'All-4-One'
p3286
sVMN0000409594
p3287
S'Mellow Man Ace'
p3288
sVMN0000190235
p3289
S'Mad Cobra'
p3290
sVMN0001590987
p3291
S'Unit Four plus Two'
p3292
sVMN0000349096
p3293
S'Jim Stafford'
p3294
sVMN0000356679
p3295
S'Pressha'
p3296
sVMN0000306258
p3297
S'Ludacris'
p3298
sVMN0000489303
p3299
S'The Yardbirds'
p3300
sVMN0002886133
p3301
S'Tommy Tucker'
p3302
sVMN0000069702
p3303
S'Choirboys'
p3304
sVMN0000050148
p3305
S'The Blendells'
p3306
sVMN0000084814
p3307
S'Billy Squier'
p3308
sVMN0000200968
p3309
S'Gene Simmons'
p3310
sVMN0000175049
p3311
S'Firehouse'
p3312
sVMN0000163256
p3313
S'Feargal Sharkey'
p3314
sVMN0000034867
p3315
S'The Belmonts'
p3316
sVMN0000503913
p3317
S'Mountain'
p3318
sVMN0000111523
p3319
S'Jo Ann Campbell'
p3320
sVMN0001002843
p3321
S'Keith Anderson'
p3322
sVMN0000796690
p3323
S'Don Covay'
p3324
sVMN0000064509
p3325
S'Bobby Womack'
p3326
sVMN0000284263
p3327
S'Lorne Greene'
p3328
sVMN0000662067
p3329
S'Gravediggaz'
p3330
sVMN0000011052
p3331
S'Tracy Byrd'
p3332
sVMN0000242573
p3333
S'Len Barry'
p3334
sVMN0000068097
p3335
S'Bob Lind'
p3336
sVMN0000478833
p3337
S'The Outhere Brothers'
p3338
sVMN0000808214
p3339
S'Joe Walsh'
p3340
sVMN0000598794
p3341
S'Morris Albert'
p3342
sVMN0000198396
p3343
S'Garland Green'
p3344
sVMN0000337717
p3345
S'Jerry Wallace'
p3346
sVMN0000584923
p3347
S'Dave Edmunds'
p3348
sVMN0000554804
p3349
S'The Wreckers'
p3350
sVMN0000749476
p3351
S'Trisha Yearwood'
p3352
sVMN0000830375
p3353
S'Lorraine Ellison'
p3354
sVMN0000774588
p3355
S'Kris Kristofferson'
p3356
sVMN0001177924
p3357
S'Le Pamplemousse'
p3358
sVMN0000757774
p3359
S'Bertie Higgins'
p3360
sVMN0000725333
p3361
S'Yung Joc'
p3362
sVMN0000612320
p3363
S'The Murmaids'
p3364
sVMN0003420680
p3365
S'Stories'
p3366
sVMN0000590524
p3367
S'Young-Holt Unlimited'
p3368
sVMN0000358408
p3369
S'Run-D.M.C.'
p3370
sVMN0000485135
p3371
S'311'
p3372
sVMN0000812241
p3373
S'Wade Hayes'
p3374
sVMN0000814898
p3375
S'Lee Dorsey'
p3376
sVMN0000925635
p3377
S'Sunshine Anderson'
p3378
sVMN0000181321
p3379
S'Graham Parker'
p3380
sVMN0001883376
p3381
S'Partners In Kryme'
p3382
sVMN0000094752
p3383
S'LL Cool J'
p3384
sVMN0000137390
p3385
S'The Cure'
p3386
sVMN0000630909
p3387
S"K'Naan"
p3388
sVMN0000412513
p3389
S'The Pixies Three'
p3390
sVMN0000662797
p3391
S'Ginuwine'
p3392
sVMN0000314166
p3393
S'Louise Goffin'
p3394
sVMN0000765075
p3395
S'The Honeycombs'
p3396
sVMN0000266063
p3397
S'Chris Brown Featuring Jay Biz'
p3398
sVMN0000774691
p3399
S'Chris Bartley'
p3400
sVMN0000840907
p3401
S'Jennifer Rush'
p3402
sVMN0000172582
p3403
S'Franz Ferdinand'
p3404
sVMN0000468313
p3405
S'Framing Hanley'
p3406
sVMN0000108256
p3407
S'Cheryl Lynn'
p3408
sVMN0000021050
p3409
S'Paul Lekakis'
p3410
sVMN0000097409
p3411
S'The Rag Dolls'
p3412
sVMN0000372322
p3413
S'Natalie Merchant'
p3414
sVMN0000820434
p3415
S'Whitney Houston'
p3416
sVMN0000007731
p3417
S'Papa Roach'
p3418
sVMN0000624282
p3419
S'Joshua Radin'
p3420
sVMN0000301955
p3421
S'Lowell Fulson'
p3422
sVMN0000169566
p3423
S'The Fendermen'
p3424
sVMN0000393345
p3425
S'Oasis'
p3426
sVMN0000162074
p3427
S'St. Lunatics'
p3428
sVMN0000110011
p3429
S'Crazy Town'
p3430
sVMN0001011769
p3431
S'Wax'
p3432
sVMN0000633313
p3433
S'Katharine McPhee'
p3434
sVMN0000934350
p3435
S'Tom Scott'
p3436
sVMN0002489021
p3437
S'Spectacular! Cast'
p3438
sVMN0000046120
p3439
S'The Amboy Dukes'
p3440
sVMN0000106540
p3441
S'Kris Kross'
p3442
sVMN0000169818
p3443
S'Carl Thomas'
p3444
sVMN0000861252
p3445
S'Carrie Underwood'
p3446
sVMN0000277131
p3447
S'Marion Worth'
p3448
sVMN0000155158
p3449
S'Shae Jones'
p3450
sVMN0000933402
p3451
S'Tommy Cash'
p3452
sVMN0000870330
p3453
S'Meri Wilson'
p3454
sVMN0000623486
p3455
S'The Braxtons'
p3456
sVMN0000300534
p3457
S'Little Milton'
p3458
sVMN0000840348
p3459
S'Velvet Revolver'
p3460
sVMN0000145734
p3461
S'Five Special'
p3462
sVMN0000155116
p3463
S'Spyder Turner'
p3464
sVMN0000870809
p3465
S'MercyMe'
p3466
sVMN0000634180
p3467
S'Brownstone'
p3468
sVMN0000780215
p3469
S'Jack Blanchard & Misty Morgan'
p3470
sVMN0000145920
p3471
S'The Ebonys'
p3472
sVMN0000587079
p3473
S'Sunscreem'
p3474
sVMN0000103447
p3475
S'Kim Wilde'
p3476
sVMN0000577953
p3477
S'The Steelers'
p3478
sVMN0000472089
p3479
S'Rhythm Heritage'
p3480
sVMN0000886648
p3481
S'Republica'
p3482
sVMN0000833539
p3483
S'Mark Morrison'
p3484
sVMN0000524721
p3485
S'Kathy Kirby'
p3486
sVMN0000591763
p3487
S'Thunderclap Newman'
p3488
sVMN0000739306
p3489
S'Donna Allen'
p3490
sVMN0000326249
p3491
S'Radiohead'
p3492
sVMN0000809357
p3493
S'Jan Hammer'
p3494
sVMN0000994986
p3495
S'Flobots'
p3496
sVMN0000221894
p3497
S'MFSB'
p3498
sVMN0000208218
p3499
S'Lostprophets'
p3500
sVMN0000762270
p3501
S'Big Tymers'
p3502
sVMN0000620603
p3503
S'Edwyn Collins'
p3504
sVMN0000204756
p3505
S'The Dove Shack'
p3506
sVMN0000118664
p3507
S'Basia'
p3508
sVMN0000504815
p3509
S'Art Garfunkel'
p3510
sVMN0000341422
p3511
S'Ray Barretto'
p3512
sVMN0000744442
p3513
S'Alicia Bridges'
p3514
sVMN0000847374
p3515
S'Jesse McCartney Featuring T-Pain'
p3516
sVMN0000477410
p3517
S'The Orlons'
p3518
sVMN0000124880
p3519
S'Craig Mack'
p3520
sVMN0000187437
p3521
S'Magazine 60'
p3522
sVMN0000115140
p3523
S'Commander Cody And His Lost Planet Airmen'
p3524
sVMN0000502774
p3525
S'The Rivieras'
p3526
sVMN0000325401
p3527
S'Petula Clark'
p3528
sVMN0000465822
p3529
S'Michael Peterson'
p3530
sVMN0000311674
p3531
S'Vanilla Fudge'
p3532
sVMN0000038321
p3533
S'Snow Patrol'
p3534
sVMN0000284882
p3535
S'Josie Cotton'
p3536
sVMN0000803513
p3537
S'The Dream Academy'
p3538
sVMN0000371436
p3539
S'Pure Sugar'
p3540
sVMN0000801762
p3541
S'Floyd Cramer'
p3542
sVMN0000194246
p3543
S'Garbage'
p3544
sVMN0000178536
p3545
S'Edgar Winter'
p3546
sVMN0000156749
p3547
S'Eric Heatherly'
p3548
sVMN0000098467
p3549
S'Klaatu'
p3550
sVMN0000594665
p3551
S'Diana Ross'
p3552
sVMN0001186965
p3553
S'Bobby Valentino'
p3554
sVMN0000857203
p3555
S'Kay Starr'
p3556
sVMN0000935330
p3557
S'Toni Braxton'
p3558
sVMN0000565521
p3559
S'The Sylvers'
p3560
sVMN0000193043
p3561
S'Doris Duke'
p3562
sVMN0000026367
p3563
S'Skid Row'
p3564
sVMN0000531986
p3565
S'David Bowie'
p3566
sVMN0000116760
p3567
S'Laura Lee'
p3568
sVMN0000836960
p3569
S'Roger Voudouris'
p3570
sVMN0000780070
p3571
S'Jack Scott'
p3572
sVMN0000312522
p3573
S'Van McCoy'
p3574
sVMN0000733096
p3575
S'Gorilla Zoe'
p3576
sVMN0000228715
p3577
S'Looking Glass'
p3578
sVMN0001541500
p3579
S'Billy Satellite'
p3580
sVMN0000891434
p3581
S'The Montanas'
p3582
sVMN0000197582
p3583
S'Dee Clark'
p3584
sVMN0000398259
p3585
S'New Riders Of The Purple Sage'
p3586
sVMN0000761002
p3587
S'The Falcons'
p3588
sVMN0000784760
p3589
S'The Cowsills'
p3590
sVMN0000732709
p3591
S'Taylor Hicks'
p3592
sVMN0000853655
p3593
S'Rick Ross Featuring Nelly & Avery Storm'
p3594
sVMN0000342691
p3595
S'Pilot'
p3596
sVMN0000251491
p3597
S'Leo Sayer'
p3598
sVMN0000859868
p3599
S'Quiet Riot'
p3600
sVMN0000325353
p3601
S'Pete Wingfield'
p3602
sVMN0000226714
p3603
S'Dem Franchize Boyz'
p3604
sVMN0000838524
p3605
S'Savoy Brown'
p3606
sVMN0000784010
p3607
S'Gym Class Heroes Featuring The-Dream'
p3608
sVMN0000459328
p3609
S'Michael Damian'
p3610
sVMN0000254618
p3611
S'Diane Ray'
p3612
sVMN0000466353
p3613
S'Nu Shooz'
p3614
sVMN0000840215
p3615
S'Peter Murphy'
p3616
sVMN0000773442
p3617
S'Chingy'
p3618
sVMN0000405655
p3619
S'Michael Stanley Band'
p3620
sVMN0000944310
p3621
S'George Jones'
p3622
sVMN0000400322
p3623
S'The Neon Philharmonic'
p3624
sVMN0000100496
p3625
S'Book Of Love'
p3626
sVMN0000274822
p3627
S'Lonnie Mack'
p3628
sVMN0000170192
p3629
S'Eddie Hodges'
p3630
sVMN0000059537
p3631
S'Blue Cheer'
p3632
sVMN0000141838
p3633
S'Eddie Money'
p3634
sVMN0000185543
p3635
S'Green Jelly'
p3636
sVMN0000799330
p3637
S'Greg Kihn'
p3638
sVMN0000098081
p3639
S'Engelbert Humperdinck'
p3640
sVMN0000753706
p3641
S'The All-American Rejects'
p3642
sVMN0000291909
p3643
S'Limahl'
p3644
sVMN0000165624
p3645
S'Change'
p3646
sVMN0000806645
p3647
S'Dr. Hook'
p3648
sVMN0000853504
p3649
S'Rick Cunha'
p3650
sVMN0000048696
p3651
S'Silvetti'
p3652
sVMN0000010407
p3653
S'Steel Breeze'
p3654
sVMN0000253734
p3655
S'Johnny Gill'
p3656
sVMN0000040666
p3657
S'Susan Raye'
p3658
sVMN0000246611
p3659
S'Judas Priest'
p3660
sVMN0000626358
p3661
S"Brooks O'Dell"
p3662
sVMN0000015927
p3663
S'Amazulu'
p3664
sVMN0000788678
p3665
S'Earl Grant'
p3666
sVMN0000044751
p3667
S'Steve Wariner'
p3668
sVMN0000569914
p3669
S'Moby Grape'
p3670
sVMN0000582313
p3671
S'The Zombies'
p3672
sVMN0000839432
p3673
S'Vanessa Carlton'
p3674
sVMN0000820278
p3675
S'Dick Feller'
p3676
sVMN0000757342
p3677
S'Blink-182'
p3678
sVMN0000029291
p3679
S'Peach Union'
p3680
sVMN0000889411
p3681
S'Onyx'
p3682
sVMN0000408500
p3683
S'Ready For The World'
p3684
sVMN0000283335
p3685
S'Saga'
p3686
sVMN0003360385
p3687
S'The Shells'
p3688
sVMN0000825168
p3689
S'The Jones Girls'
p3690
sVMN0000192840
p3691
S'John Travolta'
p3692
sVMN0000207498
p3693
S'Etta Jones'
p3694
sVMN0000217792
p3695
S'Ringo Starr'
p3696
sVMN0000066915
p3697
S'Bob Dylan'
p3698
sVMN0000856640
p3699
S"Lil' Kim Featuring Puff Daddy"
p3700
sVMN0000493122
p3701
S'The Rascals'
p3702
sVMN0000159699
p3703
S'Emmylou Harris'
p3704
sVMN0000255887
p3705
S'Level 42'
p3706
sVMN0000626774
p3707
S'BulletBoys'
p3708
sVMN0000089232
p3709
S'Billy Lawrence'
p3710
sVMN0000164594
p3711
S'Ben E. King'
p3712
sVMN0000016617
p3713
S'Shawn Phillips'
p3714
sVMN0000449578
p3715
S'Miami Sound Machine'
p3716
sVMN0000368522
p3717
S'Nancy Martinez'
p3718
sVMN0000149605
p3719
S'Clipse'
p3720
sVMN0000923618
p3721
S'The Standells'
p3722
sVMN0000136381
p3723
S'The Cuff Links'
p3724
sVMN0000007384
p3725
S'September'
p3726
sVMN0000569685
p3727
S'The Temptations'
p3728
sVMN0000396531
p3729
S'Maxine Nightingale'
p3730
sVMN0000386603
p3731
S'R. Dean Taylor'
p3732
sVMN0000065590
p3733
S'The Flaming Lips'
p3734
sVMN0000290502
p3735
S'Limp Bizkit'
p3736
sVMN0000688515
p3737
S'Dave Hollister'
p3738
sVMN0000345355
p3739
S'Melissa Etheridge'
p3740
sVMN0000137494
p3741
S'Fats Domino'
p3742
sVMN0000308072
p3743
S'June Valli'
p3744
sVMN0000930722
p3745
S'Timi Yuro'
p3746
sVMN0000071409
p3747
S'Bobby Lewis'
p3748
sVMN0000116178
p3749
S'Culture Club'
p3750
sVMN0000950805
p3751
S'Glass Tiger'
p3752
sVMN0000159340
p3753
S'Dwele'
p3754
sVMN0000792370
p3755
S'Clint Black'
p3756
sVMN0000808198
p3757
S'Lou Donaldson'
p3758
sVMN0000954279
p3759
S'Daniel Boone'
p3760
sVMN0000013825
p3761
S'Splender'
p3762
sVMN0000418662
p3763
S'The Psychedelic Furs'
p3764
sVMN0001239264
p3765
S'Jack Ross'
p3766
sVMN0000796460
p3767
S'Field Mob'
p3768
sVMN0000031959
p3769
S'Steve Azar'
p3770
sVMN0000770853
p3771
S'The Kendalls'
p3772
sVMN0000919853
p3773
S'The Tokens'
p3774
sVMN0000087162
p3775
S'Ian Gomm'
p3776
sVMN0000403184
p3777
S'The Osmonds'
p3778
sVMN0000662438
p3779
S'Donnie Brooks'
p3780
sVMN0000191175
p3781
S'Wall Of Voodoo'
p3782
sVMN0000585249
p3783
S'Annie Lennox'
p3784
sVMN0000198480
p3785
S'Cat Stevens'
p3786
sVMN0000866841
p3787
S'Nick Lowe'
p3788
sVMN0000413000
p3789
S'The Notorious B.I.G. Featuring Diddy'
p3790
sVMN0000265456
p3791
S'Dion'
p3792
sVMN0000478982
p3793
S'A Tribe Called Quest'
p3794
sVMN0000208076
p3795
S'Luther Vandross'
p3796
sVMN0000800373
p3797
S"Gary's Gang"
p3798
sVMN0000826762
p3799
S'Digable Planets'
p3800
sVMN0000798587
p3801
S'Finger Eleven'
p3802
sVMN0000038491
p3803
S'The Band Of The Black Watch'
p3804
sVMN0000256349
p3805
S'Peggy Lee'
p3806
sVMN0000305468
p3807
S'Lita Ford'
p3808
sVMN0000282841
p3809
S'Robert Parker'
p3810
sVMN0000723867
p3811
S'Bobby Curtola'
p3812
sVMN0000865016
p3813
S'New Edition'
p3814
sVMN0000109025
p3815
S'Larry Groce'
p3816
sVMN0000894847
p3817
S'The Pointer Sisters'
p3818
sVMN0000154630
p3819
S'Fun Factory'
p3820
sVMN0000678009
p3821
S'Henry Mancini'
p3822
sVMN0000075473
p3823
S'The Honeydrippers'
p3824
sVMN0000639304
p3825
S'Groove Theory'
p3826
sVMN0000020812
p3827
S'Slaughter'
p3828
sVMN0000350685
p3829
S'Twista Featuring Pitbull'
p3830
sVMN0000061828
p3831
S'The Gants'
p3832
sVMN0000007729
p3833
S'The Trashmen'
p3834
sVMN0000667669
p3835
S'Daft Punk'
p3836
sVMN0000531238
p3837
S'The Capris'
p3838
sVMN0000851698
p3839
S'Rough Trade'
p3840
sVMN0000790833
p3841
S'Shalamar'
p3842
sVMN0000827367
p3843
S'Long John Baldry'
p3844
sVMN0000093505
p3845
S'Chicory Tip'
p3846
sVMN0000590575
p3847
S'YoungBloodZ Featuring Lil Jon'
p3848
sVMN0000358055
p3849
S'Kandi'
p3850
sVMN0000011426
p3851
S'Shawn Stockman'
p3852
sVMN0000804703
p3853
S'GTR'
p3854
sVMN0000850187
p3855
S'Pilar Montenegro'
p3856
sVMN0000866445
p3857
S'Nick Gilder'
p3858
sVMN0000067131
p3859
S'Billy Crystal'
p3860
sVMN0000748222
p3861
S'Siouxsie and The Banshees'
p3862
sVMN0000777210
p3863
S'Kool & The Gang'
p3864
sVMN0000597094
p3865
S'Morrissey'
p3866
sVMN0000822910
p3867
S'Hoobastank'
p3868
sVMN0000198649
p3869
S'Doug Stone'
p3870
sVMN0000155928
p3871
S'Greg Kihn Band'
p3872
sVMN0000057663
p3873
S'Blessid Union Of Souls'
p3874
sVMN0000254827
p3875
S'Diamond Rio'
p3876
sVMN0000045629
p3877
S'The Lox'
p3878
sVMN0000092189
p3879
S'Inoj'
p3880
sVMN0000147468
p3881
S'Clay Aiken'
p3882
sVMN0000602531
p3883
S'Mr. C The Slide Man'
p3884
sVMN0000789334
p3885
S'Clubland'
p3886
sVMN0000276381
p3887
S'Howard Hewett'
p3888
sVMN0000661811
p3889
S'Donnie Elbert'
p3890
sVMN0001009627
p3891
S'Rob Thomas'
p3892
sVMN0000572385
p3893
S'Darden Smith'
p3894
sVMN0000850161
p3895
S'Jessie Hill'
p3896
sVMN0000584041
p3897
S'Ying Yang Twins'
p3898
sVMN0000865835
p3899
S'Nia Peeples'
p3900
sVMN0000546214
p3901
S'Pharrell Featuring Gwen Stefani'
p3902
sVMN0000340111
p3903
S'Philadelphia International All Stars'
p3904
sVMN0000361926
p3905
S'Kasenetz-Katz Singing Orchestral Circus'
p3906
sVMN0000460979
p3907
S'Reel Tight'
p3908
sVMN0000638960
p3909
S'Buddy Greco'
p3910
sVMN0000148066
p3911
S'D.C. LaRue'
p3912
sVMN0000134600
p3913
S"D'Angelo"
p3914
sVMN0000068896
p3915
S'B2K'
p3916
sVMN0000097509
p3917
S'Con Funk Shun'
p3918
sVMN0001260666
p3919
S'Lenny Miles'
p3920
sVMN0000093215
p3921
S'Black Moon'
p3922
sVMN0000939558
p3923
S'Buzz Clifford'
p3924
sVMN0000739702
p3925
S'Frozen Ghost'
p3926
sVMN0000019133
p3927
S'Ambrosia'
p3928
sVMN0000669303
p3929
S'Golden Earring'
p3930
sVMN0000502198
p3931
S'Luke Bryan'
p3932
sVMN0000118128
p3933
S'Jocelyn Brown'
p3934
sVMN0000364445
p3935
S'Rupert Holmes'
p3936
sVMN0000570400
p3937
S'The Tuesdays'
p3938
sVMN0000162197
p3939
S'Ben Folds'
p3940
sVMN0000267320
p3941
S"Liz Damon's Orient Express"
p3942
sVMN0000044776
p3943
S'Beth Hart'
p3944
sVMN0000574637
p3945
S'The Wilkinsons'
p3946
sVMN0000894335
p3947
S'The Platters'
p3948
sVMN0000061582
p3949
S'Bobby Freeman'
p3950
sVMN0000148424
p3951
S'The Electric Indian'
p3952
sVMN0000839110
p3953
S'Rolf Harris'
p3954
sVMN0000307102
p3955
S'Puddle Of Mudd'
p3956
sVMN0000260809
p3957
S'Scatman John'
p3958
sVMN0000130028
p3959
S'Freddie Mercury'
p3960
sVMN0000269972
p3961
S'Little Willie John'
p3962
sVMN0000752470
p3963
S'The Ad Libs'
p3964
sVMN0000572499
p3965
S'The Velvelettes'
p3966
sVMN0000722133
p3967
S'Boys Like Girls'
p3968
sVMN0000218994
p3969
S'John Anderson'
p3970
sVMN0000733717
p3971
S'Corinne Bailey Rae'
p3972
sVMN0000502163
p3973
S'10cc'
p3974
sVMN0000805274
p3975
S'Dr. Dre'
p3976
sVMN0000792942
p3977
S'Frank Stallone'
p3978
sVMN0000023010
p3979
S'Terror Squad'
p3980
sVMN0000475586
p3981
S'Mikaila'
p3982
sVMN0000360948
p3983
S'Rupee'
p3984
sVMN0000298766
p3985
S'Plastic Bertrand'
p3986
sVMN0000298764
p3987
S'Roxette'
p3988
sVMN0000005882
p3989
S'T. Rex'
p3990
sVMN0000046823
p3991
S'Benzino'
p3992
sVMN0000344332
p3993
S'Jim Ed Brown'
p3994
sVMN0000410219
p3995
S'Merle Haggard'
p3996
sVMN0000805298
p3997
S'Charles Brown'
p3998
sVMN0000801244
p3999
S'Cerrone'
p4000
sVMN0000159805
p4001
S'Beats International'
p4002
sVMN0000762731
p4003
S'The Chi-Lites'
p4004
sVMN0000374784
p4005
S'Marv Johnson'
p4006
sVMN0000957102
p4007
S'Daryl Hall'
p4008
sVMN0000014967
p4009
S'Starland Vocal Band'
p4010
sVMN0000835585
p4011
S'Loverboy'
p4012
sVMN0000000968
p4013
S'T.G. Sheppard'
p4014
sVMN0000524522
p4015
S'Joan Osborne'
p4016
sVMN0000957296
p4017
S'Herbie Hancock'
p4018
sVMN0000186597
p4019
S'Don Johnson'
p4020
sVMN0000962339
p4021
S'Dave Mason'
p4022
sVMN0000062002
p4023
S'Bachman-Turner Overdrive'
p4024
sVMN0000096679
p4025
S'Blackfoot'
p4026
sVMN0000663858
p4027
S'Clarence Ashe'
p4028
sVMN0000317865
p4029
S'Jennifer Lopez Featuring Big Pun '
p4030
sVMN0000170214
p4031
S'Ferrante & Teicher'
p4032
sVMN0000496097
p4033
S'Miriam Makeba'
p4034
sVMN0000301783
p4035
S'Juliet Roberts'
p4036
sVMN0000170211
p4037
S'Eddie Kendricks'
p4038
sVMN0000800103
p4039
S'Case'
p4040
sVMN0000118342
p4041
S'The DeFranco Family'
p4042
sVMN0000403882
p4043
S'The Other Ones'
p4044
sVMN0000869649
p4045
S'No Mercy'
p4046
sVMN0000478246
p4047
S'The Tymes'
p4048
sVMN0002556485
p4049
S'Surface'
p4050
sVMN0000805225
p4051
S'Vertical Horizon'
p4052
sVMN0000124972
p4053
S'Lea Roberts'
p4054
sVMN0000506931
p4055
S'Tom Clay'
p4056
sVMN0000489787
p4057
S'The Rationals'
p4058
sVMN0000181460
p4059
S'MC Hammer'
p4060
sVMN0000220946
p4061
S'David Houston'
p4062
sVMN0000956093
p4063
S'Henry Lee Summer'
p4064
sVMN0000184811
p4065
S'Erasure'
p4066
sVMN0000375782
p4067
S'N2Deep'
p4068
sVMN0000002923
p4069
S"T'Pau"
p4070
sVMN0000531886
p4071
S'Ashley Parker Angel'
p4072
sVMN0000184814
p4073
S'Don Gibson'
p4074
sVMN0000671128
p4075
S'Dakota Moon'
p4076
sVMN0000369133
p4077
S'Niteflyte'
p4078
sVMN0000886961
p4079
S'Relient K'
p4080
sVMN0000014784
p4081
S'Amanda Marshall'
p4082
sVMN0000685396
p4083
S'Holly Johnson'
p4084
sVMN0000042768
p4085
S'Benny Spellman'
p4086
sVMN0000848594
p4087
S'Jim Gilstrap'
p4088
sVMN0000251358
p4089
S'Leschea'
p4090
sVMN0000691696
p4091
S'Zombie Nation'
p4092
sVMN0000944241
p4093
S'George Hamilton IV'
p4094
sVMN0000227527
p4095
S'Flatt & Scruggs'
p4096
sVMN0000167361
p4097
S'Dru Hill'
p4098
sVMN0000128681
p4099
S'Afroman'
p4100
sVMN0000225413
p4101
S"Livin' Joy"
p4102
sVMN0000945798
p4103
S'Candyman'
p4104
sVMN0000611929
p4105
S'Tom Tom Club'
p4106
sVMN0000139089
p4107
S'Barenaked Ladies'
p4108
sVMN0000931804
p4109
S'Alan Price'
p4110
sVMN0000146490
p4111
S'Fastball'
p4112
sVMN0000548196
p4113
S'Haddaway'
p4114
sVMN0000965206
p4115
S'Garnet Mimms'
p4116
sVMN0000048507
p4117
S'Sweet Sensation'
p4118
sVMN0000350840
p4119
S'Jimmy Buffett'
p4120
sVMN0000812040
p4121
S'Jean Knight'
p4122
sVMN0000664817
p4123
S'Gloria Estefan'
p4124
sVMN0000569962
p4125
S'The Temprees'
p4126
sVMN0000009437
p4127
S'SheDaisy'
p4128
sVMN0000238115
p4129
S'Sam Cooke'
p4130
sVMN0000491288
p4131
S'Mike Post'
p4132
sVMN0000502437
p4133
S'The Ritchie Family'
p4134
sVMN0000641111
p4135
S'Buster Brown'
p4136
sVMN0000164053
p4137
S'Faith Evans'
p4138
sVMN0000136971
p4139
S'Tamiko Jones'
p4140
sVMN0000131650
p4141
S'Talking Heads'
p4142
sVMN0000937672
p4143
S'Brother Beyond'
p4144
sVMN0000104714
p4145
S'Kraftwerk'
p4146
sVMN0000756754
p4147
S'Silversun Pickups'
p4148
sVMN0000012491
p4149
S'Taylor Dayne'
p4150
sVMN0000933772
p4151
S'Brand Nubian'
p4152
sVMN0000621869
p4153
S'Bobby Pinson'
p4154
sVMN0000675710
p4155
S'Marc Cohn'
p4156
sVMN0000807347
p4157
S'Eugene Wilde'
p4158
sVMN0000945900
p4159
S'George McCrae'
p4160
sVMN0000200679
p4161
S'Twista'
p4162
sVMN0000252509
p4163
S'Leon Haywood'
p4164
sVMN0000125506
p4165
S'Jagged Edge'
p4166
sVMN0001941531
p4167
S'Double'
p4168
sVMN0000150164
p4169
S'Eighth Wonder'
p4170
sVMN0000213212
p4171
S'Janis Ian'
p4172
sVMN0000941579
p4173
S'Buck Owens'
p4174
sVMN0000408002
p4175
S'The Newcomers'
p4176
sVMN0000670057
p4177
S'Dan Hartman'
p4178
sVMN0000768737
p4179
S'Icehouse'
p4180
sVMN0000933883
p4181
S'Al Stewart'
p4182
sVMN0000490004
p4183
S'The Ramones'
p4184
sVMN0000384675
p4185
S'Mary Wells'
p4186
sVMN0000184967
p4187
S'Dorsey Burnette'
p4188
sVMN0000851745
p4189
S'Jewel Akens'
p4190
sVMN0000029867
p4191
S'Shirley Bassey'
p4192
sVMN0000807725
p4193
S'M2M'
p4194
sVMN0000592098
p4195
S'Sam Brown'
p4196
sVMN0000189644
p4197
S'Doris Day'
p4198
sVMN0001306334
p4199
S'Dick Hyman Trio'
p4200
sVMN0000811622
p4201
S'John Denver'
p4202
sVMN0000811626
p4203
S'Vitamin Z'
p4204
sVMN0000729857
p4205
S'Jordin Sparks'
p4206
sVMN0000564239
p4207
S'The Turtles'
p4208
sVMN0000210991
p4209
S"Destiny's Child"
p4210
sVMN0000376793
p4211
S'Brandi Carlile'
p4212
sVMN0000181817
p4213
S'Caron Wheeler'
p4214
sVMN0000468962
p4215
S'The Michael Zager Band'
p4216
sVMN0000213089
p4217
S'Vince Guaraldi Trio'
p4218
sVMN0000766557
p4219
S'Baha Men'
p4220
sVMN0000682493
p4221
S'Xymox'
p4222
sVMN0000106145
p4223
S"Colby O'Donis Featuring Akon"
p4224
sVMN0000884449
p4225
S'O.A.R.'
p4226
sVMN0000090276
p4227
S'King Harvest'
p4228
sVMN0000894929
p4229
S'The Radiants'
p4230
sVMN0000758402
p4231
S'Bloodhound Gang'
p4232
sVMN0000280692
p4233
S'Jill Sobule'
p4234
sVMN0000408994
p4235
S'The Paris Sisters'
p4236
sVMN0000096804
p4237
S'Kingdom Come'
p4238
sVMN0000233147
p4239
S'Howie Day'
p4240
sVMN0000678167
p4241
S'Das EFX'
p4242
sVMN0000418670
p4243
S'Men Without Hats'
p4244
sVMN0000405903
p4245
S'Midnight Oil'
p4246
sVMN0000200074
p4247
S'Lenny Kravitz'
p4248
sVMN0000622060
p4249
S'Brooklyn Dreams'
p4250
sVMN0000092812
p4251
S'Jimmy Ryser'
p4252
sVMN0000884686
p4253
S'Norah Jones'
p4254
sVMN0000463742
p4255
S'Remy Ma'
p4256
sVMN0000190745
p4257
S'Gavin Rossdale'
p4258
sVMN0000592161
p4259
S'Theory Of A Deadman'
p4260
sVMN0000196690
p4261
S'Lee Greenwood'
p4262
sVMN0000078622
p4263
S'Instant Funk'
p4264
sVMN0000374888
p4265
S'N.O.R.E.'
p4266
sVMN0000754219
p4267
S'Anthony Newley'
p4268
sVMN0000142531
p4269
S'James Darren'
p4270
sVMN0000296903
p4271
S'Love And Rockets'
p4272
sVMN0000029086
p4273
S'Snoop Dogg Featuring Xzibit '
p4274
sVMN0002169362
p4275
S'Skylark'
p4276
sVMN0000412538
p4277
S'Nine Days'
p4278
sVMN0000183512
p4279
S"Lil' Flip"
p4280
sVMN0000469286
p4281
S'The Music Machine'
p4282
sVMN0000366407
p4283
S'Nancy Sinatra'
p4284
sVMN0000780346
p4285
S'Coolio'
p4286
sVMN0000578999
p4287
S'Aaliyah'
p4288
sVMN0000774145
p4289
S'Kimberley Locke'
p4290
sVMN0000085397
p4291
S'Kelis'
p4292
sVMN0001049359
p4293
S'GS Boyz'
p4294
sVMN0000241498
p4295
S'Sam Salter'
p4296
sVMN0000664520
p4297
S'Goodfellaz'
p4298
sVMN0002124302
p4299
S'Susan Boyle'
p4300
sVMN0000127220
p4301
S'Jackie Moore'
p4302
sVMN0000379125
p4303
S'Neil Young'
p4304
sVMN0000011893
p4305
S'Trans-X'
p4306
sVMN0000578730
p4307
S'Spiral Starecase'
p4308
sVMN0000645474
p4309
S'David Essex'
p4310
sVMN0000787940
p4311
S'Levert'
p4312
sVMN0000655346
p4313
S'Gwen Guthrie'
p4314
sVMN0000485689
p4315
S'Mokenstef'
p4316
sVMN0000092107
p4317
S'Keyshia Cole Featuring Shyne'
p4318
sVMN0000020809
p4319
S'Shep & The Limelites'
p4320
sVMN0000790820
p4321
S'Tool'
p4322
sVMN0000648765
p4323
S'George LaMond'
p4324
sVMN0000690254
p4325
S'ZZ Top'
p4326
sVMN0000046699
p4327
S'The Everly Brothers'
p4328
sVMN0000655746
p4329
S'Ghostface Killah'
p4330
sVMN0000490852
p4331
S'Our Lady Peace'
p4332
sVMN0000785611
p4333
S'The Dave Clark Five'
p4334
sVMN0000165982
p4335
S'Five Man Electrical Band'
p4336
sVMN0000240999
p4337
S'Mark Lindsay'
p4338
sVMN0000109274
p4339
S'Chris Montez'
p4340
sVMN0000744265
p4341
S'Tony Joe White'
p4342
sVMN0000188467
p4343
S'John Parr'
p4344
sVMN0000485204
p4345
S'Ingrid Michaelson'
p4346
sVMN0000532610
p4347
S'Chrisette Michele'
p4348
sVMN0000337119
p4349
S'Phil Collins'
p4350
sVMN0000176358
p4351
S'Jamiroquai'
p4352
sVMN0000150962
p4353
S'Eve'
p4354
sVMN0000295756
p4355
S'Santana'
p4356
sVMN0000178799
p4357
S'Staind'
p4358
sVMN0000057124
p4359
S'The Chambers Brothers'
p4360
sVMN0000330453
p4361
S'Ralph Tresvant'
p4362
sVMN0000403794
p4363
S'Michel Polnareff'
p4364
sVMN0000771939
p4365
S'Pete Antell'
p4366
sVMN0000048816
p4367
S'Bernadette Peters'
p4368
sVMN0000152597
p4369
S'Before Dark'
p4370
sVMN0001599423
p4371
S'Johnny Gibson'
p4372
sVMN0000883658
p4373
S'Nolan Porter'
p4374
sVMN0000576718
p4375
S'Seal'
p4376
sVMN0000296762
p4377
S'Sarah Connor'
p4378
sVMN0000403151
p4379
S'The Mindbenders'
p4380
sVMN0000110104
p4381
S'Cissy Houston'
p4382
sVMN0000082013
p4383
S'The Impressions'
p4384
sVMN0000486645
p4385
S'The Plimsouls'
p4386
sVMN0002596252
p4387
S'Alex Brown'
p4388
sVMN0000303050
p4389
S'Rufus Thomas'
p4390
sVMN0000188206
p4391
S'Floetry'
p4392
sVMN0000277572
p4393
S'Phoenix'
p4394
sVMN0000998473
p4395
S'Randy Houser'
p4396
sVMN0000675976
p4397
S'Glenn Jones'
p4398
sVMN0000747163
p4399
S'Amanda Perez'
p4400
sVMN0000174198
p4401
S'Edwin McCain'
p4402
sVMN0000115253
p4403
S'Common'
p4404
sVMN0000631579
p4405
S'Bruce Cockburn'
p4406
sVMN0000631576
p4407
S'Joe Dolce'
p4408
sVMN0000015318
p4409
S'Travis Tritt'
p4410
sVMN0000953589
p4411
S'Dan Peek'
p4412
sVMN0000961868
p4413
S'Young Black Teenagers'
p4414
sVMN0000778656
p4415
S'Cornelius Brothers & Sister Rose'
p4416
sVMN0000766583
p4417
S'Billie Myers'
p4418
sVMN0000693229
p4419
S'Yvette Michele'
p4420
sVMN0000784814
p4421
S'The Cranberries'
p4422
sVMN0000259524
p4423
S'Deon Jackson'
p4424
sVMN0000782262
p4425
S'Crown Heights Affair'
p4426
sVMN0000689965
p4427
S'Z.Z. Hill'
p4428
sVMN0000222720
p4429
S'Rusty Draper'
p4430
sVMN0000761706
p4431
S'The Fleetwoods'
p4432
sVMN0000654835
p4433
S'Gina Thompson'
p4434
sVMN0000763492
p4435
S'Bobby Bloom'
p4436
sVMN0003317224
p4437
S'S Club 7'
p4438
sVMN0000193601
p4439
S'Gang Starr'
p4440
sVMN0000671953
p4441
S'Heart'
p4442
sVMN0000467279
p4443
S'Shop Boyz'
p4444
sVMN0000419334
p4445
S'The Sandpipers'
p4446
sVMN0000107090
p4447
S'Cher'
p4448
sVMN0000516282
p4449
S'Tommy Tutone'
p4450
sVMN0000061480
p4451
S'The Guess Who'
p4452
sVMN0000238322
p4453
S'De La Soul'
p4454
sVMN0000241813
p4455
S'Johnny Burnette'
p4456
sVMN0000001113
p4457
S't.A.T.u.'
p4458
sVMN0000060476
p4459
S'The Friends Of Distinction'
p4460
sVMN0000193025
p4461
S'Gregory Abbott'
p4462
sVMN0000128950
p4463
S'Earl-Jean'
p4464
sVMN0000293448
p4465
S'Rossington Collins Band'
p4466
sVMN0000165663
p4467
S'Twisted Sister'
p4468
sVMN0000334644
p4469
S'Jerry Reed'
p4470
sVMN0000852855
p4471
S'Roxy Music'
p4472
sVMN0000533551
p4473
S'Buckcherry'
p4474
sVMN0000019073
p4475
S'Stars on 45'
p4476
sVMN0000090889
p4477
S'Johnny Mann Singers'
p4478
sVMN0000393031
p4479
S'Ohio Express'
p4480
sVMN0000364878
p4481
S'Marvin Sapp'
p4482
sVMN0000394931
p4483
S'Randy Meisner'
p4484
sVMN0000282752
p4485
S'Robbie Dupree'
p4486
sVMN0000631774
p4487
S'The Byrds'
p4488
sVMN0000357406
p4489
S'Nirvana'
p4490
sVMN0000802109
p4491
S'Jibbs Featuring Chamillionaire'
p4492
sVMN0000082955
p4493
S'The Intruders'
p4494
sVMN0001018022
p4495
S'David Archuleta'
p4496
sVMN0000079960
p4497
S'Boston'
p4498
sVMN0000742085
p4499
S'Special Generation'
p4500
sVMN0000560079
p4501
S'Godspell'
p4502
sVMN0000936206
p4503
S'Alabama'
p4504
sVMN0000577261
p4505
S'Mitch Miller'
p4506
sVMN0000501023
p4507
S'Adventures'
p4508
sVMN0000072999
p4509
S'The Happenings'
p4510
sVMN0000817315
p4511
S'Weird Al Yankovic'
p4512
sVMN0000927736
p4513
S'Arlo Guthrie'
p4514
sVMN0000943827
p4515
S'Cake'
p4516
sVMN0000592954
p4517
S'Tim McGraw'
p4518
sVMN0000295545
p4519
S'Richie Havens'
p4520
sVMN0000815236
p4521
S'Delbert McClinton'
p4522
sVMN0000179021
p4523
S'Don Fardon'
p4524
sVMN0000195874
p4525
S'Madness'
p4526
sVMN0000296487
p4527
S'Roger Daltrey'
p4528
sVMN0000018419
p4529
S'Patti Drew'
p4530
sVMN0001564863
p4531
S'Gene Thomas'
p4532
sVMN0000130407
p4533
S'Culture Beat'
p4534
sVMN0000417598
p4535
S'The Premiers'
p4536
sVMN0000032071
p4537
S'Shirley Caesar'
p4538
sVMN0000923745
p4539
S'Aaron Carter'
p4540
sVMN0000062729
p4541
S'Bobby Sherman'
p4542
sVMN0000048300
p4543
S'Bar-Kays'
p4544
sVMN0000028053
p4545
S'Steve Allen'
p4546
sVMN0000328014
p4547
S'Peter Tosh'
p4548
sVMN0000015262
p4549
S'Trapt'
p4550
sVMN0000212918
p4551
S'Los Umbrellos'
p4552
sVMN0003304178
p4553
S'Christian Castro'
p4554
sVMN0001759424
p4555
S'The Glass Bottle'
p4556
sVMN0000286184
p4557
S'Robin Ward'
p4558
sVMN0000151979
p4559
S'Bay City Rollers'
p4560
sVMN0000778344
p4561
S'LaVern Baker'
p4562
sVMN0001497537
p4563
S'John Mayer Trio'
p4564
sVMN0000308871
p4565
S'Little Anthony & The Imperials'
p4566
sVMN0000829125
p4567
S'Loleatta Holloway'
p4568
sVMN0000139418
p4569
S'D12'
p4570
sVMN0000542976
p4571
S'Candi Staton'
p4572
sVMN0000509367
p4573
S'Al Martino'
p4574
sVMN0000759245
p4575
S'The Mad Lads'
p4576
sVMN0000116984
p4577
S'Chubby Checker'
p4578
sVMN0000227352
p4579
S'Hugo Montenegro'
p4580
sVMN0000069645
p4581
S'The Fireballs'
p4582
sVMN0000680476
p4583
S'Hole'
p4584
sVMN0000137084
p4585
S'Jody Watley'
p4586
sVMN0000798801
p4587
S'Don Ho'
p4588
sVMN0000544965
p4589
S'Daniel Powter'
p4590
sVMN0000582930
p4591
S'David Gilmour'
p4592
sVMN0000569374
p4593
S'Mocedades'
p4594
sVMN0000661211
p4595
S'Grandmaster Slice'
p4596
sVMN0000664378
p4597
S'Glen Campbell'
p4598
sVMN0000080384
p4599
S'Black Sheep'
p4600
sVMN0000023168
p4601
S'Paul Petersen'
p4602
sVMN0000825087
p4603
S'Living Colour'
p4604
sVMN0000338566
p4605
S'Jesse Johnson'
p4606
sVMN0000933898
p4607
S'Ashanti'
p4608
sVMN0000504270
p4609
S'The Seekers'
p4610
sVMN0000419603
p4611
S'The Royalettes'
p4612
sVMN0000492037
p4613
S'The Proclaimers'
p4614
sVMN0000585210
p4615
S'The Waitresses'
p4616
sVMN0000027102
p4617
S'Terry Stafford'
p4618
sVMN0000087254
p4619
S'Kelly Osbourne'
p4620
sVMN0000086729
p4621
S'Bill Pursell'
p4622
sVMN0001036613
p4623
S'The Lonely Island'
p4624
sVMN0000448207
p4625
S'Donna Lewis'
p4626
sVMN0000871656
p4627
S'Nina Sky'
p4628
sVMN0000035076
p4629
S'Soul II Soul'
p4630
sVMN0000492521
p4631
S'Mina'
p4632
sVMN0000431439
p4633
S'2 Unlimited'
p4634
sVMN0000006232
p4635
S'Robert Miles'
p4636
sVMN0000612716
p4637
S'Tom Petty'
p4638
sVMN0000827760
p4639
S'Loose Ends'
p4640
sVMN0000029650
p4641
S'Sheriff'
p4642
sVMN0000922728
p4643
S'Abba'
p4644
sVMN0000208784
p4645
S'Janey Street'
p4646
sVMN0000237205
p4647
S'Madonna'
p4648
sVMN0000154297
p4649
S'Anna Nalick'
p4650
sVMN0000200791
p4651
S'Waylon Jennings'
p4652
sVMN0000894465
p4653
S'The Rolling Stones'
p4654
sVMN0000184199
p4655
S'Emerson Drive'
p4656
sVMN0000945196
p4657
S'Gerry Rafferty'
p4658
sVMN0000456381
p4659
S'Rednex'
p4660
sVMN0000085095
p4661
S'The Ikettes'
p4662
sVMN0000664770
p4663
S'Gorillaz'
p4664
sVMN0000291724
p4665
S'Sandy Posey'
p4666
sVMN0000200882
p4667
S'Gene Pitney'
p4668
sVMN0001417061
p4669
S'Joe Fagin'
p4670
sVMN0000413524
p4671
S'The Police'
p4672
sVMN0000094222
p4673
S'iio'
p4674
sVMN0000280445
p4675
S'Howard Tate'
p4676
sVMN0000627026
p4677
S'Amy Winehouse'
p4678
sVMN0000961529
p4679
S'Willie Tee'
p4680
sVMN0000989528
p4681
S'The White Tie Affair'
p4682
sVMN0000242359
p4683
S'Sally Field'
p4684
sVMN0000128099
p4685
S'James Brown'
p4686
sVMN0000103162
p4687
S'Kim Weston'
p4688
sVMN0000085410
p4689
S'Billy Joe Royal'
p4690
sVMN0000314346
p4691
S'Little Jimmy Dickens'
p4692
sVMN0000244048
p4693
S'Sammie'
p4694
sVMN0000857597
p4695
S'E-40 Featuring Keak Da Sneak'
p4696
sVMN0000674749
p4697
S'The Manhattan Transfer'
p4698
sVMN0000581149
p4699
S'Drama'
p4700
sVMN0000173647
p4701
S'Firefall'
p4702
sVMN0000472102
p4703
S'Taylor Swift'
p4704
sVMN0000074857
p4705
S'The Hondells'
p4706
sVMN0000171637
p4707
S'Duane Eddy'
p4708
sVMN0000277764
p4709
S'Josh Turner'
p4710
sVMN0000314113
p4711
S'Julie Andrews'
p4712
sVMN0000771438
p4713
S'Black Sabbath'
p4714
sVMN0000749530
p4715
S'Skee-Lo'
p4716
sVMN0000252315
p4717
S'Diana King'
p4718
sVMN0000785817
p4719
S'The Crests'
p4720
sVMN0000933781
p4721
S'Albert Hammond'
p4722
sVMN0000007979
p4723
S'Senator Bobby'
p4724
sVMN0000235792
p4725
S'Madison Avenue'
p4726
sVMN0000034181
p4727
S'Andru Donalds'
p4728
sVMN0000182900
p4729
S'Fleetwood Mac'
p4730
sVMN0000807041
p4731
S'Joey Scarbury'
p4732
sVMN0000347151
p4733
S'Jewel'
p4734
sVMN0000413753
p4735
S'The Persuaders'
p4736
sVMN0000322027
p4737
S'Nelson Riddle'
p4738
sVMN0000924176
p4739
S'Aaron Lines'
p4740
sVMN0000057280
p4741
S'Bilal'
p4742
sVMN0000106882
p4743
S'Lamont Dozier'
p4744
sVMN0000815537
p4745
S'Del Amitri'
p4746
sVMN0000296802
p4747
S'Lisa Loeb'
p4748
sVMN0000186632
p4749
S'France Joli'
p4750
sVMN0000065396
p4751
S'Bobbi Martin'
p4752
sVMN0000065397
p4753
S'Bobbie Gentry'
p4754
sVMN0000686897
p4755
S'Linda Ronstadt'
p4756
sVMN0000569600
p4757
S'Angels & Airwaves'
p4758
sVMN0000233228
p4759
S'Lou Rawls'
p4760
sVMN0000809066
p4761
S'Lou Johnson'
p4762
sVMN0000593772
p4763
S'April Wine'
p4764
sVMN0000620386
p4765
S'Tommy James'
p4766
sVMN0000045313
p4767
S'Steve Winwood'
p4768
sVMN0000384883
p4769
S'Mary Travers'
p4770
sVMN0000372229
p4771
S'Queen Latifah'
p4772
sVMN0000139604
p4773
S'Benny Mardones'
p4774
sVMN0000830653
p4775
S'Sailcat'
p4776
sVMN0000803448
p4777
S'The Esquires'
p4778
sVMN0000168958
p4779
S'Eddie Floyd'
p4780
sVMN0001162681
p4781
S'C+C Music Factory'
p4782
sVMN0000677242
p4783
S'Carlo Savina'
p4784
sVMN0000677241
p4785
S'Lyfe Jennings'
p4786
sVMN0000359494
p4787
S'Prince Buster'
p4788
sVMN0000253408
p4789
S'White Lion'
p4790
sVMN0000821571
p4791
S'Smokey Robinson'
p4792
sVMN0000752673
p4793
S'Steve Forbert'
p4794
sVMN0000216978
p4795
S'U.N.V.'
p4796
sVMN0000238686
p4797
S'Robin Thicke'
p4798
sVMN0000277059
p4799
S'Josh Kelley'
p4800
sVMN0000266160
p4801
S'Pete Seeger'
p4802
sVMN0000788126
p4803
S'Clay Davidson'
p4804
sVMN0000303403
p4805
S'Katalina'
p4806
sVMN0000053606
p4807
S'Bloodstone'
p4808
sVMN0000475459
p4809
S'The String-A-Longs'
p4810
sVMN0000859589
p4811
S'Katy Perry'
p4812
sVMN0000020050
p4813
S'Ten Years After'
p4814
sVMN0000079356
p4815
S'Bobby Hatfield'
p4816
sVMN0000517074
p4817
S'Brian McKnight Featuring Tone '
p4818
sVMN0000775206
p4819
S'Chris Christian'
p4820
sVMN0000861351
p4821
S'Fat Joe Featuring Nelly'
p4822
sVMN0000322092
p4823
S'Peter Cetera'
p4824
sVMN0000527463
p4825
S'Bull Moose Jackson'
p4826
sVMN0000553483
p4827
S'Happy Mondays'
p4828
sVMN0000132449
p4829
S'Crystal Gayle'
p4830
sVMN0000476824
p4831
S'The Megatons'
p4832
sVMN0000794306
p4833
S'EMF'
p4834
sVMN0000382487
p4835
S'Mica Paris'
p4836
sVMN0000864973
p4837
S'NewSong'
p4838
sVMN0000322765
p4839
S'Jermaine Stewart'
p4840
sVMN0000498987
p4841
S'SWV'
p4842
sVMN0000546678
p4843
S'Lonnie Gordon'
p4844
sVMN0000061479
p4845
S'The Five Satins'
p4846
sVMN0000752789
p4847
S'Smif-N-Wessun'
p4848
sVMN0000398865
p4849
S'Nick Lachey'
p4850
sVMN0001544219
p4851
S'Brian Protheroe'
p4852
sVMN0000521674
p4853
S'The Brecker Brothers'
p4854
sVMN0000039480
p4855
S'Stevie B'
p4856
sVMN0002295785
p4857
S'Flex'
p4858
sVMN0000243474
p4859
S'Lionel Richie'
p4860
sVMN0000807869
p4861
S'Joe Nichols'
p4862
sVMN0000671588
p4863
S'Mantronix ft Wondress'
p4864
sVMN0000326964
p4865
S'Jeremy Jordan'
p4866
sVMN0000742899
p4867
S'Stan Getz'
p4868
sVMN0000304401
p4869
S'Procol Harum'
p4870
sVMN0000232679
p4871
S'John Kongos'
p4872
sVMN0000789064
p4873
S'Extreme'
p4874
sVMN0000321321
p4875
S'Lulu'
p4876
sVMN0000959876
p4877
S'Wu-Tang Clan'
p4878
sVMN0000078758
p4879
S'No Doubt Featuring Bounty Killer'
p4880
sVMN0000763930
p4881
S'The Four Preps'
p4882
sVMN0000381689
p4883
S'Bo Bice'
p4884
sVMN0000077443
p4885
S'The Lemon Pipers'
p4886
sVMN0000022574
p4887
S'Paul Mauriat'
p4888
sVMN0000784732
p4889
S'Joe Jackson'
p4890
sVMN0001596522
p4891
S'Hit Masters'
p4892
sVMN0000357419
p4893
S'Jimmy Elledge'
p4894
sVMN0000942580
p4895
S'Burton Cummings'
p4896
sVMN0000215058
p4897
S'Jars Of Clay'
p4898
sVMN0000747177
p4899
S'Starpoint'
p4900
sVMN0000957632
p4901
S'Hoku'
p4902
sVMN0000081968
p4903
S'Billy Bland'
p4904
sVMN0000077732
p4905
S'Bobby Vee'
p4906
sVMN0000803242
p4907
S'Lyn Collins'
p4908
sVMN0000199995
p4909
S'Genesis'
p4910
sVMN0000329313
p4911
S'Richard Harris'
p4912
sVMN0000121236
p4913
S'Cartel'
p4914
sVMN0000106916
p4915
S'Chris Cagle'
p4916
sVMN0000657041
p4917
S'Glenn Frey'
p4918
sVMN0000135378
p4919
S'James Booker'
p4920
sVMN0000978425
p4921
S'Automatic Man'
p4922
sVMN0000220966
p4923
S'Horst Jankowski'
p4924
sVMN0000747757
p4925
S'Split Enz'
p4926
sVMN0000224257
p4927
S'Jay-Z'
p4928
sVMN0000801865
p4929
S'Don Ray'
p4930
sVMN0000790797
p4931
S'Shakira'
p4932
sVMN0000654067
p4933
S'Timmy Shaw'
p4934
sVMN0000134729
p4935
S'Faith No More'
p4936
sVMN0000740499
p4937
S'Grand Puba'
p4938
sVMN0000193320
p4939
S'Def Leppard'
p4940
sVMN0000895443
p4941
S'The Human League'
p4942
sVMN0000770628
p4943
S'Billy Walker'
p4944
sVMN0000334740
p4945
S'Ronnie Milsap'
p4946
sVMN0000787428
p4947
S'Evanescence'
p4948
sVMN0000780734
p4949
S'Mya Featuring Jadakiss'
p4950
sVMN0000509156
p4951
S'Mudvayne'
p4952
sVMN0000232461
p4953
S'Dawn Penn'
p4954
sVMN0000262445
p4955
S'Vanilla Ice'
p4956
sVMN0000929862
p4957
S'Afrika Bambaataa'
p4958
sVMN0000488908
p4959
S'Petey Pablo'
p4960
sVMN0000153526
p4961
S'Cliff Richard'
p4962
sVMN0000056739
p4963
S'Bob Crewe'
p4964
sVMN0000839392
p4965
S"K'Jon"
p4966
sVMN0000058380
p4967
S'Bill Champlin'
p4968
sVMN0000012307
p4969
S'Tracie Spencer'
p4970
sVMN0000143394
p4971
S'Carol Douglas'
p4972
sVMN0000856785
p4973
S'Public Enemy'
p4974
sVMN0000852007
p4975
S'Roy Orbison'
p4976
sVMN0000180228
p4977
S'Elvis Presley'
p4978
sVMN0000246628
p4979
S'Johnny Nash'
p4980
sVMN0000361393
p4981
S'Prince'
p4982
sVMN0000080428
p4983
S'The Lettermen'
p4984
sVMN0000312126
p4985
S'K-Ci & JoJo'
p4986
sVMN0000571845
p4987
S'Margaret Whiting'
p4988
sVMN0000002454
p4989
S'Alpha Team'
p4990
sVMN0000022257
p4991
S'Patty Smyth'
p4992
sVMN0000619868
p4993
S'Tommy Hunt'
p4994
sVMN0000536275
p4995
S'Sweet'
p4996
sVMN0000234844
p4997
S'Debbie Harry'
p4998
sVMN0000317108
p4999
S'Jeffrey Osborne'
p5000
sVMN0000012877
p5001
S'Stealers Wheel'
p5002
sVMN0000297990
p5003
S'The Poppy Family'
p5004
sVMN0000049271
p5005
S'Austin Roberts'
p5006
sVMN0000352575
p5007
S'Men At Large'
p5008
sVMN0000414700
p5009
S'Mike Jones'
p5010
sVMN0000632233
p5011
S'Eric Church'
p5012
sVMN0003303393
p5013
S'The Walker Bros.'
p5014
sVMN0000232480
p5015
S'John Williams'
p5016
sVMN0000165076
p5017
S'Stacey Q'
p5018
sVMN0000165077
p5019
S'Stacie Orrico'
p5020
sVMN0000458423
p5021
S'Michael Sembello'
p5022
sVMN0000185584
p5023
S'Freddy Cannon'
p5024
sVMN0000184502
p5025
S'Ella Fitzgerald'
p5026
sVMN0000368112
p5027
S'Martina McBride'
p5028
sVMN0000077963
p5029
S'The Commitments'
p5030
sVMN0000807361
p5031
S'Tyrese'
p5032
sVMN0000757136
p5033
S'The Blackout Allstars'
p5034
sVMN0000823762
p5035
S'Horace Brown'
p5036
sVMN0000248920
p5037
S'Sara Evans'
p5038
sVMN0000166505
p5039
S'Feist'
p5040
sVMN0000842802
p5041
S'Peter Gabriel'
p5042
sVMN0000774807
p5043
S'Cold Blood'
p5044
sVMN0000610706
p5045
S'Bread'
p5046
sVMN0000294891
p5047
S'Salt-N-Pepa'
p5048
sVMN0000496487
p5049
S'Adam Ant'
p5050
sVMN0000059819
p5051
S'Betty Wright'
p5052
sVMN0000830538
p5053
S'Robert Plant'
p5054
sVMN0000955484
p5055
S"Danny O'Keefe"
p5056
sVMN0000468938
p5057
S'Bow Wow Featuring Omarion'
p5058
sVMN0000283015
p5059
S'Jesse Powell'
p5060
sVMN0000038389
p5061
S'The Banana Splits'
p5062
sVMN0000795053
p5063
S'Fantasia'
p5064
sVMN0000027136
p5065
S'Paulina Rubio'
p5066
sVMN0000178750
p5067
S'Stacy Lattisaw'
p5068
sVMN0000064961
p5069
S'Bob Welch'
p5070
sVMN0000929043
p5071
S'After The Fire'
p5072
sVMN0000988440
p5073
S'Grateful Dead'
p5074
sVMN0000256974
p5075
S'Wild Cherry'
p5076
sVMN0000286518
p5077
S'Platinum Blonde'
p5078
sVMN0000502371
p5079
S'Ciara Featuring Missy Elliott'
p5080
sVMN0000287936
p5081
S'Pigmeat Markham'
p5082
sVMN0000800212
p5083
S'Foxy Brown'
p5084
sVMN0000754055
p5085
S'Sophie B. Hawkins'
p5086
sVMN0000986573
p5087
S'The Red Jumpsuit Apparatus'
p5088
sVMN0001275843
p5089
S'The Van Dykes'
p5090
sVMN0000079959
p5091
S'Insane Clown Posse'
p5092
sVMN0003137622
p5093
S'Sagat'
p5094
sVMN0000038573
p5095
S'Shyheim'
p5096
sVMN0000049374
p5097
S'Simple Minds'
p5098
sVMN0000918600
p5099
S'The Style Council'
p5100
sVMN0000376204
p5101
S'Mary J. Blige'
p5102
sVMN0000038579
p5103
S'Soft Cell'
p5104
sVMN0000797431
p5105
S'Elastica'
p5106
sVMN0000355208
p5107
S'Porno For Pyros'
p5108
sVMN0002217514
p5109
S'James Phelps'
p5110
sVMN0000510805
p5111
S'Toby Keith'
p5112
sVMN0000217344
p5113
S'Dido'
p5114
sVMN0000497426
p5115
S'The Singing Nun'
p5116
sVMN0000141681
p5117
S'Dokken'
p5118
sVMN0000129551
p5119
S'Crossfade'
p5120
sVMN0000919805
p5121
S"Lil' Kim Featuring 50 Cent"
p5122
sVMN0000863988
p5123
S'Matthew Wilder'
p5124
sVMN0000834418
p5125
S'Santa Esmeralda'
p5126
sVMN0000490738
p5127
S'Monica'
p5128
sVMN0000058035
p5129
S'The Chiffons'
p5130
sVMN0000258000
p5131
S'T-Pain'
p5132
sVMN0002983732
p5133
S'Louise Tucker'
p5134
sVMN0000026504
p5135
S'Slum Village Featuring Dwele'
p5136
sVMN0000882782
p5137
S'Noel Harrison'
p5138
sVMN0000050656
p5139
S'B. Bumble & The Stingers'
p5140
sVMN0000075194
p5141
S'Bobby Russell'
p5142
sVMN0000190946
p5143
S'Lefty Frizzell'
p5144
sVMN0000037893
p5145
S'Soul For Real'
p5146
sVMN0000409954
p5147
S'Ray Price'
p5148
sVMN0000396676
p5149
S'Randy Travis'
p5150
sVMN0000156938
p5151
S'Shaggy'
p5152
sVMN0000290390
p5153
S'Los Bravos'
p5154
sVMN0000746387
p5155
S'Tracy Lawrence'
p5156
sVMN0001055285
p5157
S'112'
p5158
sVMN0000797690
p5159
S'Emilio Pericoli'
p5160
sVMN0000057923
p5161
S'Bill Anderson'
p5162
sVMN0000075665
p5163
S'The Gentrys'
p5164
sVMN0000656130
p5165
S'Chuck Wicks'
p5166
sVMN0001596834
p5167
S'Parachute'
p5168
sVMN0000324854
p5169
S'Jermaine Jackson'
p5170
sVMN0000145557
p5171
S'Cleveland Crochet'
p5172
sVMN0000250798
p5173
S'White Town'
p5174
sVMN0000947563
p5175
S'Gin Blossoms'
p5176
sVMN0000089042
p5177
S'Coko'
p5178
sVMN0001523463
p5179
S'O.M.D.'
p5180
sVMN0000424244
p5181
S'Ozzy Osbourne'
p5182
sVMN0000840708
p5183
S'Vengaboys'
p5184
sVMN0000773383
p5185
S'Chilliwack'
p5186
sVMN0000075683
p5187
S'Bobby Hebb'
p5188
sVMN0000359559
p5189
S'Karyn White'
p5190
sVMN0000955647
p5191
S'Mason Williams'
p5192
sVMN0000069813
p5193
S'Paula DeAnda Featuring Baby Bash'
p5194
sVMN0000196993
p5195
S'England Dan & John Ford Coley'
p5196
sVMN0000849405
p5197
S'Marques Houston Featuring Joe Budden & Pied Piper'
p5198
sVMN0000343930
p5199
S'The Jesus and Mary Chain'
p5200
sVMN0000394013
p5201
S'Ryan Leslie'
p5202
sVMN0000866417
p5203
S'Maxi Priest'
p5204
sVMN0000524228
p5205
S'The Brian Setzer Orchestra'
p5206
sVMN0000956268
p5207
S'Wilson Phillips'
p5208
sVMN0001007298
p5209
S'Hurricane Smith'
p5210
sVMN0002722429
p5211
S'Kenny Wayne Shepherd Band'
p5212
sVMN0000775323
p5213
S'Chris Isaak'
p5214
sVMN0000145086
p5215
S'The Easybeats'
p5216
sVMN0000216364
p5217
S'Frankee'
p5218
sVMN0000128440
p5219
S'Duran Duran'
p5220
sVMN0000198162
p5221
S'Johnnie Taylor'
p5222
sVMN0000044696
p5223
S'The Badlees'
p5224
sVMN0000133980
p5225
S'Crispian St. Peters'
p5226
sVMN0000097203
p5227
S'Blackhawk'
p5228
sVMN0000281254
p5229
S'Lonestar'
p5230
sVMN0000786383
p5231
S'Duice'
p5232
sVMN0000946769
p5233
S'Lady Antebellum'
p5234
sVMN0000240081
p5235
S'Sandie Shaw'
p5236
sVMN0000260206
p5237
S'Van Halen'
p5238
sVMN0000055128
p5239
S'Bo Diddley'
p5240
sVMN0001057446
p5241
S'Brooke White'
p5242
sVMN0000674600
p5243
S"Manfred Mann's Earth Band"
p5244
sVMN0000814220
p5245
S'Debby Boone'
p5246
sVMN0000820545
p5247
S'Whodini'
p5248
sVMN0000097531
p5249
S'The Kingbees'
p5250
sVMN0000766066
p5251
S'Bobby Vinton'
p5252
sVMN0000307278
p5253
S'Martin Page'
p5254
sVMN0000046784
p5255
S'Syl Johnson'
p5256
sVMN0000956869
p5257
S'Marcie Blane'
p5258
sVMN0000371582
p5259
S'Nappy Roots'
p5260
sVMN0000110161
p5261
S'Chicago'
p5262
sVMN0000169124
p5263
S'Eddie Harris'
p5264
sVMN0000100196
p5265
S'Chubb Rock'
p5266
sVMN0000575139
p5267
S'The Velvets'
p5268
sVMN0000140608
p5269
S"dog's eye view"
p5270
sVMN0000053739
p5271
S'Bette Midler'
p5272
sVMN0000125064
p5273
S'Joe Dowell'
p5274
sVMN0000126048
p5275
S'The Fabulous Thunderbirds'
p5276
sVMN0003392839
p5277
S'Christopher Williams'
p5278
sVMN0000787960
p5279
S'Joe Diffie'
p5280
sVMN0000895074
p5281
S'The Romantics'
p5282
sVMN0000122219
p5283
S'Craig David'
p5284
sVMN0000359179
p5285
S'Karla Bonoff'
p5286
sVMN0000768877
p5287
S'The Jaggerz'
p5288
sVMN0000004271
p5289
S'Maureen McGovern'
p5290
sVMN0000302595
p5291
S'Scott English'
p5292
sVMN0000763831
p5293
S'Bob Luman'
p5294
sVMN0000607448
p5295
S'Al Green'
p5296
sVMN0000806822
p5297
S'Joey Dee'
p5298
sVMN0000104742
p5299
S'Lari White'
p5300
sVMN0000806829
p5301
S"Jane's Addiction"
p5302
sVMN0000134761
p5303
S'Pat Green'
p5304
sVMN0002960510
p5305
S'A*Teens'
p5306
sVMN0001929264
p5307
S'The Caravelles'
p5308
sVMN0000006987
p5309
S'Alias'
p5310
sVMN0000782285
p5311
S'Crucial Conflict'
p5312
sVMN0000873085
p5313
S'Men At Work'
p5314
sVMN0000257787
p5315
S'Little Big Town'
p5316
sVMN0002529330
p5317
S'Industry'
p5318
sVMN0000525789
p5319
S'Mickey Newbury'
p5320
sVMN0000303506
p5321
S'Usher'
p5322
sVMN0001029659
p5323
S'LMFAO'
p5324
sVMN0000898828
p5325
S'The Searchers'
p5326
sVMN0000132348
p5327
S'Jinny'
p5328
sVMN0000278575
p5329
S'Hoyt Axton'
p5330
sVMN0000047789
p5331
S'Bodeans'
p5332
sVMN0000373560
p5333
S'Napoleon XIV'
p5334
sVMN0000331473
p5335
S'Ronnie Laws'
p5336
sVMN0000133528
p5337
S'Jo Jo Gunne'
p5338
sVMN0000765365
p5339
S'Bobby Hendricks'
p5340
sVMN0000838875
p5341
S'Scritti Politti'
p5342
sVMN0000007920
p5343
S'Alice In Chains'
p5344
sVMN0000014931
p5345
S'Tasmin Archer'
p5346
sVMN0000179205
p5347
S'Don McLean'
p5348
sVMN0000899198
p5349
S'The Smothers Brothers'
p5350
sVMN0000192537
p5351
S'Joe Featuring G-Unit'
p5352
sVMN0000403542
p5353
S'The Mixtures'
p5354
sVMN0000457807
p5355
S'O.V. Wright'
p5356
sVMN0000924367
p5357
S'Three 6 Mafia Featuring Chamillionaire'
p5358
sVMN0000263271
p5359
S'Lifehouse'
p5360
sVMN0000177122
p5361
S'Fat Joe'
p5362
sVMN0000647246
p5363
S'Camouflage'
p5364
sVMN0000682096
p5365
S'Hitman Sammy Sam'
p5366
sVMN0000245534
p5367
S'Johnny Rodriguez'
p5368
sVMN0000018258
p5369
S'Teena Marie'
p5370
sVMN0000165855
p5371
S'Frankie Avalon'
p5372
sVMN0000922398
p5373
S'Sugababes'
p5374
sVMN0000621112
p5375
S'Mya'
p5376
sVMN0000921710
p5377
S'The White Stripes'
p5378
sVMN0000931015
p5379
S'Tom Cochrane'
p5380
sVMN0000019873
p5381
S'Amii Stewart'
p5382
sVMN0000186477
p5383
S'Greg Lake'
p5384
sVMN0000205930
p5385
S'Vic Dana'
p5386
sVMN0000793848
p5387
S'Faithless'
p5388
sVMN0000173925
p5389
S'Eddie Holman'
p5390
sVMN0000567862
p5391
S'A Flock Of Seagulls'
p5392
sVMN0000802875
p5393
S'Erick Sermon'
p5394
sVMN0000802302
p5395
S'De La Soul Featuring Chaka Khan'
p5396
sVMN0000831934
p5397
S'Rockell'
p5398
sVMN0000099246
p5399
S'Concrete Blonde'
p5400
sVMN0000515628
p5401
S'Tom T. Hall'
p5402
sVMN0000248392
p5403
S'Wes Montgomery'
p5404
sVMN0000421278
p5405
S'The Silkie'
p5406
sVMN0000019892
p5407
S'Tears For Fears'
p5408
sVMN0000264617
p5409
S'Lighthouse'
p5410
sVMN0001926414
p5411
S'Jan And Kjeld'
p5412
sVMN0000197476
p5413
S'Gene McDaniels'
p5414
sVMN0000197475
p5415
S'Gene Loves Jezebel'
p5416
sVMN0000249973
p5417
S'Devo'
p5418
sVMN0000759644
p5419
S'Big Dee Irwin'
p5420
sVMN0000179191
p5421
S'Edie Brickell'
p5422
sVMN0000066429
p5423
S'Bobby Bare'
p5424
sVMN0000368367
p5425
S'Nancy Wilson'
p5426
sVMN0000996141
p5427
S'The Ting Tings'
p5428
sVMN0000189582
p5429
S'LeToya'
p5430
sVMN0000551762
p5431
S'Miley Cyrus'
p5432
sVMN0000043444
p5433
S'Steve Martin'
p5434
sVMN0000855529
p5435
S'Meryl Streep'
p5436
sVMN0000112462
p5437
S'Cream'
p5438
sVMN0000624190
p5439
S'The Bravery'
p5440
sVMN0000918290
p5441
S'The Tubes'
p5442
sVMN0000240461
p5443
S'Delinquent Habits'
p5444
sVMN0000195305
p5445
S'Focus'
p5446
sVMN0000084458
p5447
S"Cam'Ron Featuring Juelz Santana"
p5448
sVMN0000002111
p5449
S"Shaquille O'Neal"
p5450
sVMN0000307461
p5451
S'Van Morrison'
p5452
sVMN0000814852
p5453
S'John Sebastian'
p5454
sVMN0000780625
p5455
S'Cracker'
p5456
sVMN0000240267
p5457
S'Johnny Lee'
p5458
sVMN0000179423
p5459
S'Carl Douglas'
p5460
sVMN0000480108
p5461
S'A-Ha'
p5462
sVMN0000350139
p5463
S"Plain White T's"
p5464
sVMN0001393658
p5465
S'The Outsiders'
p5466
sVMN0000263019
p5467
S'Jonathan King'
p5468
sVMN0000203516
p5469
S'Ernie Fields'
p5470
sVMN0000062412
p5471
S'Avant'
p5472
sVMN0000806770
p5473
S'Lutricia McNeal'
p5474
sVMN0000088180
p5475
S'Kid Rock'
p5476
sVMN0000135032
p5477
S'The Beau Brummels'
p5478
sVMN0000923384
p5479
S'Molly Hatchet'
p5480
sVMN0000495933
p5481
S'The Sherrys'
p5482
sVMN0000335884
p5483
S'McGuinness Flint'
p5484
sVMN0000289685
p5485
S'Robyn'
p5486
sVMN0000371879
p5487
S'Pure Prairie League'
p5488
sVMN0001589033
p5489
S"Dr. West's Medicine Show & Junk Band"
p5490
sVMN0000128143
p5491
S'Trey Songz'
p5492
sVMN0000659517
p5493
S'Grand Funk Railroad'
p5494
sVMN0000137286
p5495
S'Cock Robin'
p5496
sVMN0000476541
p5497
S'Corbin Bleu'
p5498
sVMN0000944084
p5499
S'George Strait'
p5500
sVMN0000688900
p5501
S'Young Buck'
p5502
sVMN0003315236
p5503
S'Jackie Lee'
p5504
sVMN0000679157
p5505
S'Hipsway'
p5506
sVMN0000179730
p5507
S'Charlie Rich'
p5508
sVMN0000771136
p5509
S'Jimmy Somerville'
p5510
sVMN0000400158
p5511
S"Rappin' 4-Tay"
p5512
sVMN0000069534
p5513
S'Bon Jovi'
p5514
sVMN0000031008
p5515
S'Andrew Gold'
p5516
sVMN0000799373
p5517
S'Ella Washington'
p5518
sVMN0001201595
p5519
S'Wild Blue'
p5520
sVMN0000661524
p5521
S'Donna Summer'
p5522
sVMN0000387954
p5523
S'O.C. Smith'
p5524
sVMN0000568137
p5525
S'The Strokes'
p5526
sVMN0000318085
p5527
S'Panic! At The Disco'
p5528
sVMN0000884412
p5529
S'Michael Johnson'
p5530
sVMN0000408946
p5531
S'The Paradons'
p5532
sVMN0000049367
p5533
S'The Blackbyrds'
p5534
sVMN0000527010
p5535
S'Bruce Channel'
p5536
sVMN0000767035
p5537
S'Keith Murray'
p5538
sVMN0000739975
p5539
S'Gravity Kills'
p5540
sVMN0000626939
p5541
S'Stone Sour'
p5542
sVMN0000226939
p5543
S'Wadsworth Mansion'
p5544
sVMN0000778330
p5545
S'LaTour'
p5546
sVMN0000753985
p5547
S'Steve Lawrence'
p5548
sVMN0000309328
p5549
S'Percy Mayfield'
p5550
sVMN0000551784
p5551
S'H.B. Barnum'
p5552
sVMN0000696046
p5553
S'Marky Mark'
p5554
sVMN0000094205
p5555
S'Chet Atkins'
p5556
sVMN0000164750
p5557
S'Garland Jeffreys'
p5558
sVMN0000378624
p5559
S'Quincy Jones Featuring Ray Charles '
p5560
sVMN0000051063
p5561
S'The Five Americans'
p5562
sVMN0000136585
p5563
S'Larry Verne'
p5564
sVMN0000831381
p5565
S'Robin Trower'
p5566
sVMN0000781932
p5567
S'Lalo Schifrin'
p5568
sVMN0000600435
p5569
S'Aqua'
p5570
sVMN0000182817
p5571
S'Freddie North'
p5572
sVMN0000182360
p5573
S'Donny Hathaway'
p5574
sVMN0000086927
p5575
S'Kelly Clarkson'
p5576
sVMN0000619845
p5577
S'Toni Childs'
p5578
sVMN0000837486
p5579
S'Utopia'
p5580
sVMN0000271967
p5581
S'Hotlegs'
p5582
sVMN0000811708
p5583
S'Voices Of Theory'
p5584
sVMN0000875049
p5585
S'Rayvon'
p5586
sVMN0000568861
p5587
S'The Sweet Inspirations'
p5588
sVMN0000869409
p5589
S'Melba Moore'
p5590
sVMN0000399361
p5591
S'Crazy Frog'
p5592
sVMN0000318882
p5593
S'Jason Aldean'
p5594
sVMN0000016361
p5595
S'Patty Duke'
p5596
sVMN0000766986
p5597
S'Kenny Ball'
p5598
sVMN0000867307
p5599
S'Augustana'
p5600
sVMN0000495366
p5601
S'The S.O.S. Band'
p5602
sVMN0000817011
p5603
S'Was (Not Was)'
p5604
sVMN0000570067
p5605
S'The Trammps'
p5606
sVMN0000146242
p5607
S'Le Click'
p5608
sVMN0000070800
p5609
S'Billy Idol'
p5610
sVMN0000376613
p5611
S'Q-Tip'
p5612
sVMN0000454068
p5613
S'Nona Hendryx'
p5614
sVMN0001264486
p5615
S'Fred Hughes'
p5616
sVMN0000031358
p5617
S'Soluna'
p5618
sVMN0000406657
p5619
S'Meredith Brooks'
p5620
sVMN0000051828
p5621
S'Cassidy Featuring Swizz Beatz'
p5622
sVMN0000569541
p5623
S'3rd Bass'
p5624
sVMN0000379669
p5625
S'Naughty By Nature'
p5626
sVMN0000201779
p5627
S'Dennis Edwards'
p5628
sVMN0000333796
p5629
S'Maurice White'
p5630
sVMN0002289353
p5631
S'The Precisions'
p5632
sVMN0000662545
p5633
S'Glenn Lewis'
p5634
sVMN0000126168
p5635
S'Christina Milian'
p5636
sVMN0000689606
p5637
S'Christina Milian Featuring Young Jeezy'
p5638
sVMN0000811388
p5639
S'John Farnham'
p5640
sVMN0000038182
p5641
S'The Bachelors'
p5642
sVMN0000231819
p5643
S'Debelah Morgan'
p5644
sVMN0000249908
p5645
S'Love Unlimited'
p5646
sVMN0000806877
p5647
S'Ruth Brown'
p5648
sVMN0000037730
p5649
S'Pearl Jam'
p5650
sVMN0000035943
p5651
S'Shooting Star'
p5652
sVMN0000073914
p5653
S'The Cleftones'
p5654
sVMN0000524239
p5655
S'Brook Benton'
p5656
sVMN0000341672
p5657
S'No Doubt'
p5658
sVMN0000933458
p5659
S'Akon'
p5660
sVMN0000251206
p5661
S'Julie Roberts'
p5662
sVMN0000290072
p5663
S'Roberta Flack'
p5664
sVMN0000861757
p5665
S'David Foster'
p5666
sVMN0003064444
p5667
S'Device'
p5668
sVMN0000034094
p5669
S'The Archies'
p5670
sVMN0000023925
p5671
S'Stephen Bishop'
p5672
sVMN0000270162
p5673
S'Lil Scrappy'
p5674
sVMN0000090079
p5675
S'Chely Wright'
p5676
sVMN0000678465
p5677
S'Darude'
p5678
sVMN0000075540
p5679
S'Bobby Goldsboro'
p5680
sVMN0000057151
p5681
S'B*Witched'
p5682
sVMN0000239628
p5683
S'Lupe Fiasco'
p5684
sVMN0000813463
p5685
S'John Waite'
p5686
sVMN0000075100
p5687
S'Bad Company'
p5688
sVMN0000154927
p5689
S'Tony Terry'
p5690
sVMN0000123391
p5691
S'The Detergents'
p5692
sVMN0000771905
p5693
S'Bowling For Soup'
p5694
sVMN0000463803
p5695
S"Ol' Dirty Bastard"
p5696
sVMN0000827250
p5697
S'Lloyd Price'
p5698
sVMN0000628467
p5699
S'Britney Spears'
p5700
sVMN0000412710
p5701
S'Milli Vanilli'
p5702
sVMN0000563349
p5703
S'Dan Seals'
p5704
sVMN0000475431
p5705
S'Stray Cats'
p5706
sVMN0002479562
p5707
S'Whistle'
p5708
sVMN0000053428
p5709
S'Blue Magic'
p5710
sVMN0000143928
p5711
S'Fern Kinney'
p5712
sVMN0000246947
p5713
S'Sammi Smith'
p5714
sVMN0000684830
p5715
S'Willie Mitchell'
p5716
sVMN0000403120
p5717
S'The Mills Brothers'
p5718
sVMN0000624749
p5719
S'Buddy Starcher'
p5720
sVMN0000578031
p5721
S'The Statler Brothers'
p5722
sVMN0000237235
p5723
S'Lucille Starr'
p5724
sVMN0000219287
p5725
S'Jane Olivor'
p5726
sVMN0000282384
p5727
S'Lolita'
p5728
sVMN0000988471
p5729
S'Enya'
p5730
sVMN0000197867
p5731
S'The Hullaballoos'
p5732
sVMN0000075308
p5733
S'The Jeff Healey Band'
p5734
sVMN0000267814
p5735
S'Hot Chocolate'
p5736
sVMN0000145180
p5737
S'The Emotions'
p5738
sVMN0000246376
p5739
S'Johnny Crawford'
p5740
sVMN0001413235
p5741
S'Rock Flowers'
p5742
sVMN0000602378
p5743
S'Timbaland'
p5744
sVMN0001176522
p5745
S'Donna Lynn'
p5746
sVMN0000186390
p5747
S'Donny Osmond'
p5748
sVMN0000036106
p5749
S'Steve Miller Band'
p5750
sVMN0000841286
p5751
S'Jenny Burton'
p5752
sVMN0000407101
p5753
S'Nicolette Larson'
p5754
sVMN0000950441
p5755
S'Go West'
p5756
sVMN0000074302
p5757
S'The Jelly Beans'
p5758
sVMN0000603195
p5759
S'Timmy Thomas'
p5760
sVMN0001038956
p5761
S'Melanie Fiona'
p5762
sVMN0000883069
p5763
S'Merril Bainbridge'
p5764
sVMN0001582971
p5765
S'David Cook'
p5766
sVMN0000285232
p5767
S'Maroon 5'
p5768
sVMN0000977198
p5769
S'Vanessa Hudgens'
p5770
sVMN0000757157
p5771
S'Simply Red'
p5772
sVMN0000262281
p5773
S'Jennifer Hanson'
p5774
sVMN0000401287
p5775
S'Mazzy Star'
p5776
sVMN0000355451
p5777
S'Porter Wagoner'
p5778
sVMN0000099198
p5779
S'Kitty Kallen'
p5780
sVMN0000963005
p5781
S'Will Smith Featuring Tra-Knox'
p5782
sVMN0000161572
p5783
S'Dwight Twilley'
p5784
sVMN0000297702
p5785
S'Sammy Hagar'
p5786
sVMN0000809271
p5787
S'Jamie Walters'
p5788
sVMN0000793456
p5789
S'Electronic'
p5790
sVMN0000749970
p5791
S'Ted Nugent'
p5792
sVMN0000128776
p5793
S'Benjamin Orr'
p5794
sVMN0000847906
p5795
S'Jeru The Damaja'
p5796
sVMN0000169228
p5797
S'Dionne Farris'
p5798
sVMN0000832833
p5799
S'Samantha Mumba'
p5800
sVMN0000424296
p5801
S'The Righteous Brothers'
p5802
sVMN0000081619
p5803
S'Keith Urban'
p5804
sVMN0000046861
p5805
S'Ray Charles'
p5806
sVMN0000608945
p5807
S'Brandy'
p5808
sVMN0000298888
p5809
S'Love Unlimited Orchestra'
p5810
sVMN0000004869
p5811
S'Pacific Gas & Electric'
p5812
sVMN0000575012
p5813
S'Darlene Love'
p5814
sVMN0000743709
p5815
S'Alien Ant Farm'
p5816
sVMN0000593930
p5817
S'Argent'
p5818
sVMN0000014699
p5819
S'Transvision Vamp'
p5820
sVMN0000892771
p5821
S"The O'Jays"
p5822
sVMN0000194063
p5823
S'Lee Ann Womack'
p5824
sVMN0000894245
p5825
S'The Playmates'
p5826
sVMN0000482600
p5827
S'The Spencer Davis Group'
p5828
sVMN0000205851
p5829
S'Grin'
p5830
sVMN0000150590
p5831
S'Eiffel 65'
p5832
sVMN0000351227
p5833
S'Richard Marx'
p5834
sVMN0000813731
p5835
S'Debbie Gibson'
p5836
sVMN0000902274
p5837
S'The New Establishment'
p5838
sVMN0000743098
p5839
S'T.K. Hulin'
p5840
sVMN0001511874
p5841
S'Joey Heatherton'
p5842
sVMN0000121157
p5843
S'The Contours'
p5844
sVMN0000219428
p5845
S'Uncle Kracker'
p5846
sVMN0000884962
p5847
S'Regina Belle'
p5848
sVMN0000292389
p5849
S'Samantha Cole'
p5850
sVMN0000347148
p5851
S'Night Ranger'
p5852
sVMN0000085915
p5853
S'Billy Joel'
p5854
sVMN0000019083
p5855
S'Paul Davis'
p5856
sVMN0000158540
p5857
S'Gavin DeGraw'
p5858
sVMN0000802464
p5859
S'Freedy Johnston'
p5860
sVMN0000307049
p5861
S'Public Announcement'
p5862
sVMN0000798809
p5863
S'Freddie Scott'
p5864
sVMN0000805493
p5865
S'Luther Ingram'
p5866
sVMN0000482705
p5867
S'Sugar Pie DeSanto'
p5868
sVMN0000158407
p5869
S'Beau Coup'
p5870
sVMN0000320470
p5871
S'Lumidee'
p5872
sVMN0000931202
p5873
S'Arthur Alexander'
p5874
sVMN0000138407
p5875
S'The Dramatics'
p5876
sVMN0002132219
p5877
S'Dorrough'
p5878
sVMN0000193305
p5879
S'Cassie'
p5880
sVMN0001620636
p5881
S'New Boyz'
p5882
sVMN0000014854
p5883
S'Starbuck'
p5884
sVMN0001661219
p5885
S'The Caslons'
p5886
sVMN0000651549
p5887
S'Gwen McCrae'
p5888
sVMN0000231407
p5889
S'Lee Oskar'
p5890
sVMN0000619388
p5891
S'Alejandro Sanz'
p5892
sVMN0000076881
p5893
S'Jimmy Reed'
p5894
sVMN0000672656
p5895
S'Crime Mob Featuring Lil Scrappy'
p5896
sVMN0000052093
p5897
S'The Fixx'
p5898
sVMN0000214593
p5899
S'David Gray'
p5900
sVMN0001202301
p5901
S'Disco Tex And The Sex-O-Lettes'
p5902
sVMN0000186805
p5903
S'Eric Carmen'
p5904
sVMN0000081832
p5905
S'Kenny Loggins'
p5906
sVMN0000049774
p5907
S'BLACKstreet'
p5908
sVMN0000667738
p5909
S'Dan Hill'
p5910
sVMN0000566430
p5911
S'Mobb Deep Featuring Vita & Noyd'
p5912
sVMN0000563551
p5913
S'95 South'
p5914
sVMN0001296614
p5915
S'Mono'
p5916
sVMN0000224186
p5917
S'John Mellencamp'
p5918
sVMN0000757085
p5919
S'Bangles'
p5920
sVMN0000743968
p5921
S'Patrice Rushen'
p5922
sVMN0000773642
p5923
S'The Kingsmen'
p5924
sVMN0000271029
p5925
S'Esther Phillips'
p5926
sVMN0000129317
p5927
S'Larry Elgart'
p5928
sVMN0000777366
p5929
S'La Bouche'
p5930
sVMN0000047915
p5931
S'Bob B. Soxx & The Blue Jeans'
p5932
sVMN0000246885
p5933
S'Johnny Mathis'
p5934
sVMN0000013589
p5935
S'Alvin Cash'
p5936
sVMN0000136939
p5937
S'Tami Davis'
p5938
sVMN0000139655
p5939
S'Laura Branigan'
p5940
sVMN0000385797
p5941
S'Matt Nathanson'
p5942
sVMN0000829172
p5943
S'Lou Monte'
p5944
sVMN0000481827
p5945
S'The Tractors'
p5946
sVMN0000509356
p5947
S'Atlantic Starr'
p5948
sVMN0000625345
p5949
S'The Boys In The Band'
p5950
sVMN0000165011
p5951
S'Dionne Warwick'
p5952
sVMN0000309885
p5953
S'Little Caesar'
p5954
sVMN0000120010
p5955
S'Jack Johnson'
p5956
sVMN0000132657
p5957
S'Climie Fisher'
p5958
sVMN0000780258
p5959
S'Christina Aguilera'
p5960
sVMN0000615247
p5961
S'The Fratellis'
p5962
sVMN0000017021
p5963
S'Tenacious D'
p5964
sVMN0000733005
p5965
S'Hurricane Chris'
p5966
sVMN0000812711
p5967
S'Death Cab For Cutie'
p5968
sVMN0000587982
p5969
S'Abra Moore'
p5970
sVMN0000949630
p5971
S'Goo Goo Dolls'
p5972
sVMN0000842351
p5973
S'Pete Townshend'
p5974
sVMN0000245049
p5975
S'Johnny Cymbal'
p5976
sVMN0000117001
p5977
S'Barrett Strong'
p5978
sVMN0000936749
p5979
S'Brighter Side Of Darkness'
p5980
sVMN0000852376
p5981
S'Richie Sambora'
p5982
sVMN0000332141
p5983
S'Jerry Lee Lewis'
p5984
sVMN0000806542
p5985
S'Etta James'
p5986
sVMN0000488436
p5987
S'The Pipkins'
p5988
sVMN0001217575
p5989
S'Johnny Ferguson'
p5990
sVMN0000174557
p5991
S'Carole King'
p5992
sVMN0000454240
p5993
S'Red Sovine'
p5994
sVMN0000895677
p5995
S'Teddy Geiger'
p5996
sVMN0000002273
p5997
S'Allan Sherman'
p5998
sVMN0000856451
p5999
S'Naked Eyes'
p6000
sVMN0000006024
p6001
S'Alice Deejay'
p6002
sVMN0000597585
p6003
S'Tina Arena'
p6004
sVMN0000780520
p6005
S'Laissez Faire'
p6006
sVMN0000831733
p6007
S'Lindsay Lohan'
p6008
sVMN0000076561
p6009
S'Billy Ray Cyrus'
p6010
sVMN0001947662
p6011
S'Dana Rollin'
p6012
sVMN0000286530
p6013
S'Jessica Andrews'
p6014
sVMN0000084082
p6015
S'Ironhorse'
p6016
sVMN0000151549
p6017
S'Belinda Carlisle'
p6018
sVMN0000790750
p6019
S'Spys'
p6020
sVMN0000548397
p6021
S'Jonas Brothers'
p6022
sVMN0000312004
p6023
S'Luis Fonsi'
p6024
sVMN0000807949
p6025
S'Underworld'
p6026
sVMN0000640261
p6027
S'Buddy Jewell'
p6028
sVMN0000506596
p6029
S'Al Downing'
p6030
sVMN0000944700
p6031
S'Leona Lewis'
p6032
sVMN0000635466
p6033
S'Bubba Sparxxx'
p6034
sVMN0000150239
p6035
S'Leah Andreone'
p6036
sVMN0001292549
p6037
S'The Uniques'
p6038
sVMN0000070929
p6039
S'The Jacksons'
p6040
sVMN0000310941
p6041
S'Puff Johnson'
p6042
sVMN0000830464
p6043
S'Ron Holden'
p6044
sVMN0000360346
p6045
S'Profyle'
p6046
sVMN0000771203
p6047
S'Glass Moon'
p6048
sVMN0000260384
p6049
S'Julian Lennon'
p6050
sVMN0002014109
p6051
S'The Fantastics'
p6052
sVMN0000978359
p6053
S'The Veronicas'
p6054
sVMN0000494474
p6055
S'Third World'
p6056
sVMN0000085445
p6057
S'Bobby Marchan'
p6058
sVMN0000796741
p6059
S'Eddy Arnold'
p6060
sVMN0000853629
p6061
S'Ruff Endz'
p6062
sVMN0000012180
p6063
S'Trace Adkins'
p6064
sVMN0000573978
p6065
S'Marcia Griffiths'
p6066
sVMN0000987777
p6067
S'Donell Jones'
p6068
sVMN0001891126
p6069
S'The Sensations'
p6070
sVMN0000574772
p6071
S'AC/DC'
p6072
sVMN0000165261
p6073
S'Genya Ravan'
p6074
sVMN0001987787
p6075
S'Eruption'
p6076
sVMN0000227988
p6077
S'House Of Pain'
p6078
sVMN0000674150
p6079
S'Helen Reddy'
p6080
sVMN0000245760
p6081
S'Les McCann'
p6082
sVMN0001979110
p6083
S'T.P.E.'
p6084
sVMN0001020707
p6085
S'Madcon'
p6086
sVMN0000762496
p6087
S'Folk Implosion'
p6088
sVMN0000933262
p6089
S'Arthur Prysock'
p6090
sVMN0000926237
p6091
S'Third Eye Blind'
p6092
sVMN0000628981
p6093
S'The Buckinghams'
p6094
sVMN0000390390
p6095
S'Ohio Players'
p6096
sVMN0000070811
p6097
S'Kevin Paige'
p6098
sVMN0000090124
p6099
S'Black Box'
p6100
sVMN0000851158
p6101
S'Richard Burton'
p6102
sVMN0000376608
p6103
S'The Marvelettes'
p6104
sVMN0001649799
p6105
S'Sonny Charles'
p6106
sVMN0000349180
p6107
S'Jimmy Barnes'
p6108
sVMN0000200184
p6109
S'Chantay Savage'
p6110
sVMN0000642542
p6111
S'Burt Bacharach'
p6112
sVMN0000332257
p6113
S'Neneh Cherry'
p6114
sVMN0000754032
p6115
S'The Beatles'
p6116
sVMN0000087407
p6117
S'The Korgis'
p6118
sVMN0000656081
p6119
S'Elliott Yamin'
p6120
sVMN0000768584
p6121
S'Billy Swan'
p6122
sVMN0000639626
p6123
S'Group Home'
p6124
sVMN0000199090
p6125
S'Denise LaSalle'
p6126
sVMN0000201760
p6127
S'George Benson'
p6128
sVMN0002726439
p6129
S"Disney's Friends For Change"
p6130
sVMN0000491802
p6131
S'The Records'
p6132
sVMN0000860561
p6133
S'The Fray'
p6134
sVMN0000050520
p6135
S'Bettye Swann'
p6136
sVMN0000029884
p6137
S'Paul McCartney'
p6138
sVMN0000746470
p6139
S'Tracey Ullman'
p6140
sVMN0000184043
p6141
S'Foo Fighters'
p6142
sVMN0000792530
p6143
S'Tori Amos'
p6144
sVMN0000731084
p6145
S'Ann-Margret'
p6146
sVMN0000016227
p6147
S'Tavares'
p6148
sVMN0000955936
p6149
S'Henry Gross'
p6150
sVMN0000289599
p6151
S'Linkin Park'
p6152
sVMN0000290040
p6153
S'Roy Hamilton'
p6154
sVMN0000749167
p6155
S'Trini Lopez'
p6156
sVMN0000199162
p6157
S'Vicious'
p6158
sVMN0000841870
p6159
S'Jennifer Paige'
p6160
sVMN0000138988
p6161
S'The Dreamlovers'
p6162
sVMN0000391586
p6163
S'James Blunt'
p6164
sVMN0000659299
p6165
S'Gary Allan'
p6166
sVMN0000171855
p6167
S'Frank Ifield'
p6168
sVMN0000467203
p6169
S'Michael Jackson'
p6170
sVMN0000146841
p6171
S'Cyndi Thomson'
p6172
sVMN0000519603
p6173
S'Seduction'
p6174
sVMN0002313776
p6175
S'Rhinoceros'
p6176
sVMN0000341806
p6177
S'Jessie James'
p6178
sVMN0000574829
p6179
S'Margie Joseph'
p6180
sVMN0000105129
p6181
S'Collective Soul'
p6182
sVMN0000305541
p6183
S'Percy Faith'
p6184
sVMN0000588696
p6185
S'Theola Kilgore'
p6186
sVMN0000622805
p6187
S'Stevie Wonder'
p6188
sVMN0000921002
p6189
S'Ann Peebles'
p6190
sVMN0000154101
p6191
S'Clyde McPhatter'
p6192
sVMN0000266151
p6193
S'Little Texas'
p6194
sVMN0000071812
p6195
S'The Four Tops'
p6196
sVMN0000215930
p6197
S'Dickey Lee'
p6198
sVMN0000167931
p6199
S'Dishwalla'
p6200
sVMN0000655497
p6201
S'Gyrl'
p6202
sVMN0000743623
p6203
S'Spacehog'
p6204
sVMN0000294377
p6205
S'Linda Clifford'
p6206
sVMN0000162415
p6207
S'Dorothy Moore'
p6208
sVMN0000138112
p6209
S'EPMD'
p6210
sVMN0000934069
p6211
S'Brenda Lee'
p6212
sVMN0000060666
p6213
S'The Charms'
p6214
sVMN0000139908
p6215
S'The Cult'
p6216
sVMN0000581713
p6217
S'Anthony Hamilton'
p6218
sVMN0000111898
p6219
S'Jim Jones'
p6220
sVMN0000198783
p6221
S'Johnny Horton'
p6222
sVMN0000821948
p6223
S'Jomanda'
p6224
sVMN0000192828
p6225
S'Deborah Allen'
p6226
sVMN0000677857
p6227
S'Mannie Fresh'
p6228
sVMN0000758317
p6229
S'Bertha Tillman'
p6230
sVMN0000096379
p6231
S'Boyz II Men'
p6232
sVMN0000181914
p6233
S'Ellen Foley'
p6234
sVMN0000034988
p6235
S'Swans'
p6236
sVMN0000129775
p6237
S'Parliament'
p6238
sVMN0000133987
p6239
S'Clint Holmes'
p6240
sVMN0000814657
p6241
S'Mahalia Jackson'
p6242
sVMN0000097173
p6243
S'Bonnie Tyler'
p6244
sVMN0000742827
p6245
S'Soupy Sales'
p6246
sVMN0000606915
p6247
S'Mulberry Lane'
p6248
sVMN0000808304
p6249
S'Lou Gramm'
p6250
sVMN0000793664
p6251
S'El DeBarge'
p6252
sVMN0000785585
p6253
S'Claude Gray'
p6254
sVMN0000576043
p6255
S'The Springfields'
p6256
sVMN0000774941
p6257
S'Collin Raye'
p6258
sVMN0000686359
p6259
S'Yellowcard'
p6260
sVMN0000558954
p6261
S'Natasha Bedingfield'
p6262
sVMN0000784524
p6263
S'Joe Hinton'
p6264
sVMN0000459616
p6265
S'Michael McDonald'
p6266
sVMN0000666073
p6267
S'Cascada'
p6268
sVMN0000225930
p6269
S'Liz Phair'
p6270
sVMN0001361069
p6271
S'Clout'
p6272
sVMN0000073682
p6273
S'Trina Featuring Kelly Rowland'
p6274
sVMN0002093150
p6275
S'The Sapphires'
p6276
sVMN0000289177
p6277
S'Sam The Sham & The Pharaohs'
p6278
sVMN0000669738
p6279
S'Heavy D'
p6280
sVMN0000000534
p6281
S'All Saints'
p6282
sVMN0000026952
p6283
S'Smokie Norful'
p6284
sVMN0000522068
p6285
S'British Lions'
p6286
sVMN0000482677
p6287
S'The Lemonheads'
p6288
sVMN0000150048
p6289
S'Enigma'
p6290
sVMN0000239545
p6291
S'Lindisfarne'
p6292
sVMN0000118791
p6293
S'LeAnn Rimes'
p6294
sVMN0000179764
p6295
S'Fontella Bass'
p6296
sVMN0000125352
p6297
S'Barbara Fairchild'
p6298
sVMN0000927555
p6299
S'Aretha Franklin'
p6300
sVMN0000375329
p6301
S'Queen Pen'
p6302
sVMN0000619423
p6303
S'Ashford & Simpson'
p6304
sVMN0000633078
p6305
S'Bruce Hornsby'
p6306
sVMN0000846113
p6307
S"Philly's Most Wanted"
p6308
sVMN0000175579
p6309
S'Disturbed'
p6310
sVMN0000767016
p6311
S'Keith Sweat'
p6312
sVMN0002391135
p6313
S'Peter McCann'
p6314
sVMN0000174007
p6315
S'Ugly Kid Joe'
p6316
sVMN0001532591
p6317
S'Adam Lambert'
p6318
sVMN0000402637
p6319
S'The Marvelows'
p6320
sVMN0002447909
p6321
S'Haircut One Hundred'
p6322
sVMN0000749175
p6323
S'Skeeter Davis'
p6324
sVMN0000010015
p6325
S'Jody Miller'
p6326
sVMN0000483070
p6327
S'The Pharcyde'
p6328
sVMN0000820232
p6329
S'Dick Dale'
p6330
sVMN0000085908
p6331
S'The Jarmels'
p6332
sVMN0000019323
p6333
S'Tatyana Ali'
p6334
sVMN0000355449
p6335
S'Ruby Winters'
p6336
sVMN0000805316
p6337
S'Lustra'
p6338
sVMN0000583161
p6339
S'Wyclef Jean'
p6340
sVMN0000021334
p6341
S'Stephanie Mills'
p6342
sVMN0000597801
p6343
S'Tight Fit'
p6344
sVMN0000853492
p6345
S'Marshall Crenshaw'
p6346
sVMN0000156471
p6347
S'Funky Green Dogs'
p6348
sVMN0002548827
p6349
S'Braids'
p6350
sVMN0000246960
p6351
S'Wham!'
p6352
sVMN0000227088
p6353
S'Deana Carter'
p6354
sVMN0000357773
p6355
S'Preston Epps'
p6356
sVMN0000946137
p6357
S'Canned Heat'
p6358
sVMN0000953324
p6359
S'Heartsfield'
p6360
sVMN0000682056
p6361
S'Xzibit'
p6362
sVMN0000309653
p6363
S'Vanity Fare'
p6364
sVMN0000515600
p6365
S'Thelma Houston'
p6366
sVMN0000387530
p6367
S'Matthew Sweet'
p6368
sVMN0000586493
p6369
S'The Weather Girls'
p6370
sVMN0000334770
p6371
S'Ramsey Lewis'
p6372
sVMN0000981156
p6373
S'Cobra Starship Featuring Leighton Meester'
p6374
sVMN0001193500
p6375
S'Hughes/Thrall'
p6376
sVMN0000238495
p6377
S'John Mayall'
p6378
sVMN0000390185
p6379
S'Aly & AJ'
p6380
sVMN0000157676
p6381
S'Eminem'
p6382
sVMN0000255494
p6383
S'Valerie Simpson'
p6384
sVMN0000382455
p6385
S'Master P'
p6386
sVMN0000312140
p6387
S'Pete Fountain'
p6388
sVMN0000205006
p6389
S'Drupi'
p6390
sVMN0000258276
p6391
S'Digital Underground'
p6392
sVMN0000019740
p6393
S'Amerie'
p6394
sVMN0000262255
p6395
S'Mariah Carey'
p6396
sVMN0000692251
p6397
S'The Youngbloods'
p6398
sVMN0000741718
p6399
S'P.M. Dawn'
p6400
sVMN0000618713
p6401
S'Aldo Nova'
p6402
sVMN0000130689
p6403
S'Jackson Browne'
p6404
sVMN0000138699
p6405
S'Frank Zappa'
p6406
sVMN0000183311
p6407
S'Fine Young Cannibals'
p6408
sVMN0000161920
p6409
S'Grace Jones'
p6410
sVMN0000820636
p6411
S'Diana DeGarmo'
p6412
sVMN0000359966
p6413
S'Rickie Lee Jones'
p6414
sVMN0000153590
p6415
S'Graham Nash'
p6416
sVMN0000102399
p6417
S'Larry Carlton'
p6418
sVMN0000816538
p6419
S'Johnny Bristol'
p6420
sVMN0000131627
p6421
S'Creedence Clearwater Revival'
p6422
sVMN0001824897
p6423
S'Kimberly Scott'
p6424
sVMN0000110792
p6425
S'City Boy'
p6426
sVMN0000075825
p6427
S'The Coasters'
p6428
sVMN0000013593
p6429
S'Travis Wammack'
p6430
sVMN0000757328
p6431
S'The Marketts'
p6432
sVMN0000947816
p6433
S'Hank Thompson'
p6434
sVMN0000792839
p6435
S'Shanice'
p6436
sVMN0000817751
p6437
S'Derek Martin'
p6438
sVMN0000890724
p6439
S'The Originals'
p6440
sVMN0000048903
p6441
S'Blu Cantrell'
p6442
sVMN0000996096
p6443
S'Selena Gomez'
p6444
sVMN0000667037
p6445
S'Daddy Dewdrop'
p6446
sVMN0000068733
p6447
S'The Frogmen'
p6448
sVMN0000121185
p6449
S'Cozy Powell'
p6450
sVMN0000110558
p6451
S'Lasgo'
p6452
sVMN0000316269
p6453
S'Jennifer Holliday'
p6454
sVMN0000159214
p6455
S'Dusty Springfield'
p6456
s.