(dp0
VMN0000053428
p1
(lp2
V1970s
p3
aV1980s
p4
aV1990s
p5
aV2000s
p6
aV2010s
p7
asVMN0000837486
p8
(lp9
V1970s
p10
aV1980s
p11
asVMN0000892771
p12
(lp13
V1960s
p14
aV1970s
p15
aV1980s
p16
aV1990s
p17
aV2000s
p18
aV2010s
p19
asVMN0000051828
p20
(lp21
V1990s
p22
aV2000s
p23
aV2010s
p24
asVMN0000762731
p25
(lp26
V1960s
p27
aV1970s
p28
aV1980s
p29
aV1990s
p30
aV2010s
p31
asVMN0000869409
p32
(lp33
V1970s
p34
aV1980s
p35
aV1990s
p36
aV2000s
p37
aV2010s
p38
asVMN0000614598
p39
(lp40
V1990s
p41
aV2000s
p42
aV2010s
p43
asVMN0000924318
p44
(lp45
V1990s
p46
aV2000s
p47
asVMN0000070929
p48
(lp49
V1960s
p50
aV1970s
p51
aV1980s
p52
aV1990s
p53
asVMN0000481057
p54
(lp55
V1970s
p56
aV1980s
p57
aV1990s
p58
aV2000s
p59
aV2010s
p60
asVMN0000048507
p61
(lp62
V1980s
p63
aV1990s
p64
aV2000s
p65
aV2010s
p66
asVMN0000186597
p67
(lp68
V1960s
p69
aV1970s
p70
aV1980s
p71
aV1990s
p72
aV2000s
p73
aV2010s
p74
asVMN0000403184
p75
(lp76
V1950s
p77
aV1960s
p78
aV1970s
p79
aV1980s
p80
aV1990s
p81
aV2000s
p82
aV2010s
p83
asVMN0000260038
p84
(lp85
V1940s
p86
aV1950s
p87
aV1960s
p88
asVMN0000314505
p89
(lp90
V1980s
p91
aV1990s
p92
aV2000s
p93
aV2010s
p94
asVMN0000070800
p95
(lp96
V1970s
p97
aV1980s
p98
aV1990s
p99
aV2000s
p100
aV2010s
p101
asVMN0000118791
p102
(lp103
V1990s
p104
aV2000s
p105
aV2010s
p106
asVMN0000076658
p107
(lp108
V1950s
p109
aV1960s
p110
aV1970s
p111
aV1980s
p112
aV1990s
p113
aV2000s
p114
asVMN0000670226
p115
(lp116
V2000s
p117
aV2010s
p118
asVMN0000087985
p119
(lp120
V1960s
p121
aV1970s
p122
aV1980s
p123
aV1990s
p124
aV2000s
p125
aV2010s
p126
asVMN0000053606
p127
(lp128
V1960s
p129
aV1970s
p130
aV1980s
p131
aV1990s
p132
aV2000s
p133
aV2010s
p134
asVMN0002453941
p135
(lp136
V2000s
p137
aV2010s
p138
asVMN0000317865
p139
(lp140
V1990s
p141
aV2000s
p142
aV2010s
p143
asVMN0000128440
p144
(lp145
V1970s
p146
aV1980s
p147
aV1990s
p148
aV2000s
p149
aV2010s
p150
asVMN0000118189
p151
(lp152
V1990s
p153
aV2000s
p154
aV2010s
p155
asVMN0000936425
p156
(lp157
V1960s
p158
aV1970s
p159
aV1980s
p160
aV1990s
p161
aV2000s
p162
aV2010s
p163
asVMN0000625731
p164
(lp165
V1990s
p166
aV2000s
p167
aV2010s
p168
asVMN0000677781
p169
(lp170
V1950s
p171
aV1960s
p172
aV1970s
p173
aV1980s
p174
aV1990s
p175
aV2000s
p176
asVMN0000382734
p177
(lp178
V1950s
p179
aV1960s
p180
aV1970s
p181
aV1980s
p182
asVMN0000239921
p183
(lp184
V1980s
p185
aV1990s
p186
aV2000s
p187
aV2010s
p188
asVMN0000603980
p189
(lp190
V1960s
p191
aV1970s
p192
aV1980s
p193
aV1990s
p194
asVMN0000012180
p195
(lp196
V1990s
p197
aV2000s
p198
aV2010s
p199
asVMN0000671953
p200
(lp201
V1970s
p202
aV1980s
p203
aV1990s
p204
aV2000s
p205
aV2010s
p206
asVMN0000143951
p207
(lp208
V1950s
p209
aV1960s
p210
aV1970s
p211
aV1980s
p212
aV1990s
p213
asVMN0000181376
p214
(lp215
V1970s
p216
aV1980s
p217
aV1990s
p218
aV2000s
p219
aV2010s
p220
asVMN0000226714
p221
(lp222
V2000s
p223
aV2010s
p224
asVMN0000511235
p225
(lp226
V1990s
p227
aV2000s
p228
aV2010s
p229
asVMN0000481827
p230
(lp231
V1990s
p232
aV2000s
p233
aV2010s
p234
asVMN0000112789
p235
(lp236
V1990s
p237
aV2000s
p238
aV2010s
p239
asVMN0000806645
p240
(lp241
V1960s
p242
aV1970s
p243
aV1980s
p244
asVMN0000689606
p245
(lp246
V2000s
p247
aV2010s
p248
asVMN0000156484
p249
(lp250
V1990s
p251
asVMN0000209142
p252
(lp253
V1950s
p254
aV1960s
p255
aV1970s
p256
aV1980s
p257
aV1990s
p258
aV2000s
p259
asVMN0000180228
p260
(lp261
V1950s
p262
aV1960s
p263
aV1970s
p264
asVMN0000018977
p265
(lp266
V1970s
p267
aV1980s
p268
aV1990s
p269
aV2000s
p270
aV2010s
p271
asVMN0000567153
p272
(lp273
V2000s
p274
aV2010s
p275
asVMN0000031685
p276
(lp277
V1950s
p278
aV1960s
p279
aV1970s
p280
aV1980s
p281
aV1990s
p282
aV2000s
p283
aV2010s
p284
asVMN0000377891
p285
(lp286
V1960s
p287
aV1970s
p288
aV1980s
p289
aV1990s
p290
aV2000s
p291
aV2010s
p292
asVMN0000110161
p293
(lp294
V1960s
p295
aV1970s
p296
aV1980s
p297
aV1990s
p298
aV2000s
p299
aV2010s
p300
asVMN0000186185
p301
(lp302
V1980s
p303
aV1990s
p304
aV2000s
p305
aV2010s
p306
asVMN0000127220
p307
(lp308
V1970s
p309
asVMN0000060476
p310
(lp311
V1960s
p312
aV1970s
p313
asVMN0000752789
p314
(lp315
V1990s
p316
aV2000s
p317
aV2010s
p318
asVMN0000922471
p319
(lp320
V2000s
p321
aV2010s
p322
asVMN0000175049
p323
(lp324
V1980s
p325
aV1990s
p326
aV2000s
p327
aV2010s
p328
asVMN0000158309
p329
(lp330
V1970s
p331
aV1980s
p332
aV1990s
p333
aV2000s
p334
aV2010s
p335
asVMN0000112462
p336
(lp337
V1960s
p338
aV1990s
p339
aV2000s
p340
asVMN0000136871
p341
(lp342
V1970s
p343
aV1980s
p344
aV1990s
p345
aV2000s
p346
aV2010s
p347
asVMN0000852855
p348
(lp349
V1970s
p350
aV1980s
p351
aV2000s
p352
aV2010s
p353
asVMN0000014784
p354
(lp355
V1990s
p356
aV2000s
p357
aV2010s
p358
asVMN0000937584
p359
(lp360
V1950s
p361
aV1960s
p362
aV1970s
p363
asVMN0000665957
p364
(lp365
V1950s
p366
aV1960s
p367
aV1970s
p368
aV1980s
p369
aV1990s
p370
asVMN0000258882
p371
(lp372
V1990s
p373
aV2000s
p374
aV2010s
p375
asVMN0000938878
p376
(lp377
V1960s
p378
aV1970s
p379
aV2010s
p380
asVMN0000325459
p381
(lp382
V1980s
p383
aV1990s
p384
aV2000s
p385
aV2010s
p386
asVMN0000631774
p387
(lp388
V1960s
p389
aV1970s
p390
aV1980s
p391
aV1990s
p392
asVMN0000075540
p393
(lp394
V1960s
p395
aV1970s
p396
aV1980s
p397
aV1990s
p398
aV2000s
p399
aV2010s
p400
asVMN0000012491
p401
(lp402
V1980s
p403
aV1990s
p404
aV2000s
p405
aV2010s
p406
asVMN0000551115
p407
(lp408
V2000s
p409
aV2010s
p410
asVMN0000649435
p411
(lp412
V1980s
p413
aV1990s
p414
aV2000s
p415
asVMN0000201760
p416
(lp417
V1960s
p418
aV1970s
p419
aV1980s
p420
aV1990s
p421
aV2000s
p422
aV2010s
p423
asVMN0000577261
p424
(lp425
V1940s
p426
aV1950s
p427
aV1960s
p428
asVMN0000084458
p429
(lp430
V1990s
p431
aV2000s
p432
aV2010s
p433
asVMN0000275335
p434
(lp435
V2000s
p436
aV2010s
p437
asVMN0000031008
p438
(lp439
V1970s
p440
aV1980s
p441
aV1990s
p442
aV2000s
p443
aV2010s
p444
asVMN0000199995
p445
(lp446
V1960s
p447
aV1970s
p448
aV1980s
p449
aV1990s
p450
aV2000s
p451
aV2010s
p452
asVMN0000321321
p453
(lp454
V1960s
p455
aV1970s
p456
aV1980s
p457
aV1990s
p458
aV2000s
p459
aV2010s
p460
asVMN0000217792
p461
(lp462
V1950s
p463
aV1960s
p464
aV1970s
p465
aV1980s
p466
aV1990s
p467
aV2000s
p468
aV2010s
p469
asVMN0000149515
p470
(lp471
V1960s
p472
aV1970s
p473
aV1980s
p474
aV1990s
p475
aV2000s
p476
aV2010s
p477
asVMN0000614830
p478
(lp479
V2000s
p480
aV2010s
p481
asVMN0000070715
p482
(lp483
V1950s
p484
aV1960s
p485
aV1970s
p486
asVMN0000381689
p487
(lp488
V2000s
p489
aV2010s
p490
asVMN0000782285
p491
(lp492
V1990s
p493
aV2000s
p494
aV2010s
p495
asVMN0000315336
p496
(lp497
V1930s
p498
aV1940s
p499
aV1950s
p500
aV1960s
p501
aV1970s
p502
aV1980s
p503
aV1990s
p504
aV2000s
p505
asVMN0000130028
p506
(lp507
V1970s
p508
aV1980s
p509
aV1990s
p510
asVMN0000594665
p511
(lp512
V1960s
p513
aV1970s
p514
aV1980s
p515
aV1990s
p516
aV2000s
p517
aV2010s
p518
asVMN0000886961
p519
(lp520
V1990s
p521
aV2000s
p522
aV2010s
p523
asVMN0001930721
p524
(lp525
V1990s
p526
aV2000s
p527
asVMN0000084446
p528
(lp529
V2000s
p530
aV2010s
p531
asVMN0000875049
p532
(lp533
V2000s
p534
asVMN0000260212
p535
(lp536
V1980s
p537
aV1990s
p538
aV2000s
p539
aV2010s
p540
asVMN0000509367
p541
(lp542
V1940s
p543
aV1950s
p544
aV1960s
p545
aV1970s
p546
aV1980s
p547
aV1990s
p548
aV2000s
p549
asVMN0000267814
p550
(lp551
V1970s
p552
aV1980s
p553
aV1990s
p554
aV2000s
p555
aV2010s
p556
asVMN0000164053
p557
(lp558
V1990s
p559
aV2000s
p560
aV2010s
p561
asVMN0000806507
p562
(lp563
V1970s
p564
aV1980s
p565
aV1990s
p566
asVMN0000123268
p567
(lp568
V2000s
p569
aV2010s
p570
asVMN0000368522
p571
(lp572
V1970s
p573
aV1980s
p574
aV1990s
p575
aV2000s
p576
aV2010s
p577
asVMN0000046814
p578
(lp579
V1990s
p580
aV2000s
p581
aV2010s
p582
asVMN0000841286
p583
(lp584
V1980s
p585
asVMN0000068934
p586
(lp587
V1970s
p588
aV1980s
p589
aV1990s
p590
aV2000s
p591
aV2010s
p592
asVMN0000414251
p593
(lp594
V1960s
p595
asVMN0000090276
p596
(lp597
V1970s
p598
aV2000s
p599
aV2010s
p600
asVMN0000195368
p601
(lp602
V1940s
p603
aV1950s
p604
aV1960s
p605
aV1970s
p606
aV1980s
p607
aV1990s
p608
aV2000s
p609
aV2010s
p610
asVMN0000946137
p611
(lp612
V1960s
p613
aV1970s
p614
aV1980s
p615
aV1990s
p616
aV2000s
p617
asVMN0000125506
p618
(lp619
V1990s
p620
aV2000s
p621
aV2010s
p622
asVMN0000784122
p623
(lp624
V2000s
p625
aV2010s
p626
asVMN0000977198
p627
(lp628
V2000s
p629
aV2010s
p630
asVMN0000179205
p631
(lp632
V1960s
p633
aV1970s
p634
aV1980s
p635
aV1990s
p636
aV2000s
p637
aV2010s
p638
asVMN0000016235
p639
(lp640
V1960s
p641
aV1970s
p642
aV1980s
p643
aV1990s
p644
aV2000s
p645
asVMN0000792507
p646
(lp647
V1930s
p648
aV1940s
p649
aV1950s
p650
aV1960s
p651
aV1970s
p652
aV1980s
p653
aV1990s
p654
asVMN0000671746
p655
(lp656
V1960s
p657
aV1970s
p658
aV1980s
p659
aV1990s
p660
asVMN0000067631
p661
(lp662
V1990s
p663
aV2000s
p664
aV2010s
p665
asVMN0000137494
p666
(lp667
V1940s
p668
aV1950s
p669
aV1960s
p670
aV1970s
p671
aV1980s
p672
aV1990s
p673
aV2000s
p674
aV2010s
p675
asVMN0000265456
p676
(lp677
V1950s
p678
aV1960s
p679
aV1970s
p680
aV1980s
p681
aV1990s
p682
aV2000s
p683
aV2010s
p684
asVMN0000337119
p685
(lp686
V1970s
p687
aV1980s
p688
aV1990s
p689
aV2000s
p690
aV2010s
p691
asVMN0000094752
p692
(lp693
V1980s
p694
aV1990s
p695
aV2000s
p696
aV2010s
p697
asVMN0000766893
p698
(lp699
V1950s
p700
aV1960s
p701
aV1970s
p702
aV1980s
p703
aV1990s
p704
aV2000s
p705
aV2010s
p706
asVMN0000178750
p707
(lp708
V1970s
p709
aV1980s
p710
aV1990s
p711
asVMN0000116178
p712
(lp713
V1980s
p714
aV1990s
p715
aV2000s
p716
asVMN0000950805
p717
(lp718
V1980s
p719
aV1990s
p720
aV2000s
p721
aV2010s
p722
asVMN0000162415
p723
(lp724
V1960s
p725
aV1970s
p726
aV1980s
p727
aV1990s
p728
aV2000s
p729
aV2010s
p730
asVMN0000091983
p731
(lp732
V1990s
p733
aV2000s
p734
aV2010s
p735
asVMN0000266063
p736
(lp737
V2000s
p738
aV2010s
p739
asVMN0000751019
p740
(lp741
V1960s
p742
aV1970s
p743
aV1980s
p744
asVMN0000933883
p745
(lp746
V1960s
p747
aV1970s
p748
aV1980s
p749
aV1990s
p750
aV2000s
p751
aV2010s
p752
asVMN0000081619
p753
(lp754
V1990s
p755
aV2000s
p756
aV2010s
p757
asVMN0000046861
p758
(lp759
V1940s
p760
aV1950s
p761
aV1960s
p762
aV1970s
p763
aV1980s
p764
aV1990s
p765
aV2000s
p766
asVMN0000155116
p767
(lp768
V1960s
p769
aV1970s
p770
asVMN0000084209
p771
(lp772
V1970s
p773
aV1980s
p774
aV1990s
p775
aV2000s
p776
aV2010s
p777
asVMN0000162269
p778
(lp779
V1990s
p780
aV2000s
p781
aV2010s
p782
asVMN0000806991
p783
(lp784
V1960s
p785
aV1970s
p786
aV1980s
p787
aV1990s
p788
aV2000s
p789
aV2010s
p790
asVMN0000187478
p791
(lp792
V1960s
p793
aV1970s
p794
aV1980s
p795
aV1990s
p796
aV2000s
p797
aV2010s
p798
asVMN0000135306
p799
(lp800
V1960s
p801
asVMN0000196993
p802
(lp803
V1970s
p804
aV1980s
p805
asVMN0000592098
p806
(lp807
V1980s
p808
aV1990s
p809
aV2000s
p810
aV2010s
p811
asVMN0000153526
p812
(lp813
V1950s
p814
aV1960s
p815
aV1970s
p816
aV1980s
p817
aV1990s
p818
aV2000s
p819
aV2010s
p820
asVMN0000565388
p821
(lp822
V1960s
p823
aV1970s
p824
aV1980s
p825
aV1990s
p826
aV2000s
p827
aV2010s
p828
asVMN0000758317
p829
(lp830
V1960s
p831
aV1970s
p832
asVMN0000102835
p833
(lp834
V1970s
p835
aV1980s
p836
asVMN0000811622
p837
(lp838
V1960s
p839
aV1970s
p840
aV1980s
p841
aV1990s
p842
asVMN0000041857
p843
(lp844
V1990s
p845
aV2000s
p846
aV2010s
p847
asVMN0000033560
p848
(lp849
V1960s
p850
aV1970s
p851
aV1980s
p852
aV1990s
p853
aV2000s
p854
aV2010s
p855
asVMN0000405968
p856
(lp857
V1970s
p858
aV1980s
p859
aV1990s
p860
aV2000s
p861
aV2010s
p862
asVMN0000852007
p863
(lp864
V1950s
p865
aV1960s
p866
aV1970s
p867
aV1980s
p868
asVMN0000585249
p869
(lp870
V1970s
p871
aV1980s
p872
aV1990s
p873
aV2000s
p874
aV2010s
p875
asVMN0000664378
p876
(lp877
V1950s
p878
aV1960s
p879
aV1970s
p880
aV1980s
p881
aV1990s
p882
aV2000s
p883
aV2010s
p884
asVMN0000774807
p885
(lp886
V1960s
p887
aV1970s
p888
asVMN0000210991
p889
(lp890
V1990s
p891
aV2000s
p892
aV2010s
p893
asVMN0000813731
p894
(lp895
V1980s
p896
aV1990s
p897
aV2000s
p898
aV2010s
p899
asVMN0000472440
p900
(lp901
V1950s
p902
aV1960s
p903
aV1970s
p904
aV1980s
p905
aV1990s
p906
aV2000s
p907
asVMN0000064509
p908
(lp909
V1960s
p910
aV1970s
p911
aV1980s
p912
aV1990s
p913
aV2000s
p914
aV2010s
p915
asVMN0000892823
p916
(lp917
V1960s
p918
aV1970s
p919
aV1980s
p920
aV1990s
p921
aV2000s
p922
aV2010s
p923
asVMN0000184043
p924
(lp925
V1990s
p926
aV2000s
p927
aV2010s
p928
asVMN0000815575
p929
(lp930
V1930s
p931
aV1940s
p932
aV1950s
p933
aV1960s
p934
aV1970s
p935
aV1980s
p936
aV1990s
p937
asVMN0000090389
p938
(lp939
V1960s
p940
aV1970s
p941
aV1980s
p942
aV1990s
p943
aV2000s
p944
asVMN0000301404
p945
(lp946
V1960s
p947
aV1970s
p948
aV1980s
p949
aV1990s
p950
aV2000s
p951
aV2010s
p952
asVMN0000208774
p953
(lp954
V1970s
p955
aV1980s
p956
aV1990s
p957
aV2000s
p958
aV2010s
p959
asVMN0000256349
p960
(lp961
V1940s
p962
aV1950s
p963
aV1960s
p964
aV1970s
p965
aV1980s
p966
aV1990s
p967
aV2000s
p968
asVMN0000234844
p969
(lp970
V1960s
p971
aV1970s
p972
aV1980s
p973
aV1990s
p974
aV2000s
p975
aV2010s
p976
asVMN0000861252
p977
(lp978
V2000s
p979
aV2010s
p980
asVMN0000192382
p981
(lp982
V1960s
p983
aV1970s
p984
aV1980s
p985
aV1990s
p986
aV2000s
p987
aV2010s
p988
asVMN0000200074
p989
(lp990
V1980s
p991
aV1990s
p992
aV2000s
p993
aV2010s
p994
asVMN0000625203
p995
(lp996
V1980s
p997
aV1990s
p998
asVMN0000858710
p999
(lp1000
V1940s
p1001
aV1950s
p1002
aV1960s
p1003
aV1970s
p1004
aV1980s
p1005
asVMN0000945196
p1006
(lp1007
V1960s
p1008
aV1970s
p1009
aV1980s
p1010
aV1990s
p1011
aV2000s
p1012
aV2010s
p1013
asVMN0000132449
p1014
(lp1015
V1970s
p1016
aV1980s
p1017
aV1990s
p1018
aV2000s
p1019
aV2010s
p1020
asVMN0000450947
p1021
(lp1022
V2000s
p1023
aV2010s
p1024
asVMN0000160690
p1025
(lp1026
V1990s
p1027
aV2000s
p1028
asVMN0000368367
p1029
(lp1030
V1950s
p1031
aV1960s
p1032
aV1970s
p1033
aV1980s
p1034
aV1990s
p1035
aV2000s
p1036
aV2010s
p1037
asVMN0000038469
p1038
(lp1039
V1980s
p1040
aV1990s
p1041
aV2000s
p1042
aV2010s
p1043
asVMN0000189582
p1044
(lp1045
V1990s
p1046
aV2000s
p1047
aV2010s
p1048
asVMN0000032401
p1049
(lp1050
V1970s
p1051
aV1980s
p1052
aV1990s
p1053
aV2000s
p1054
aV2010s
p1055
asVMN0000931202
p1056
(lp1057
V1960s
p1058
aV1970s
p1059
aV1980s
p1060
aV1990s
p1061
asVMN0000827760
p1062
(lp1063
V1980s
p1064
aV1990s
p1065
aV2000s
p1066
asVMN0000219655
p1067
(lp1068
V1970s
p1069
aV1980s
p1070
aV1990s
p1071
aV2000s
p1072
aV2010s
p1073
asVMN0000248920
p1074
(lp1075
V1990s
p1076
aV2000s
p1077
aV2010s
p1078
asVMN0000038466
p1079
(lp1080
V1940s
p1081
aV1950s
p1082
aV1960s
p1083
aV1970s
p1084
aV1980s
p1085
aV1990s
p1086
aV2000s
p1087
aV2010s
p1088
asVMN0000028772
p1089
(lp1090
V1960s
p1091
aV1970s
p1092
aV1980s
p1093
aV1990s
p1094
aV2000s
p1095
aV2010s
p1096
asVMN0000154297
p1097
(lp1098
V2000s
p1099
aV2010s
p1100
asVMN0000090169
p1101
(lp1102
V1960s
p1103
aV1970s
p1104
aV1980s
p1105
aV1990s
p1106
aV2000s
p1107
asVMN0000610706
p1108
(lp1109
V1960s
p1110
aV1970s
p1111
aV1990s
p1112
asVMN0000827367
p1113
(lp1114
V1950s
p1115
aV1960s
p1116
aV1970s
p1117
aV1980s
p1118
aV1990s
p1119
aV2000s
p1120
asVMN0000033580
p1121
(lp1122
V1970s
p1123
aV1980s
p1124
aV1990s
p1125
aV2000s
p1126
aV2010s
p1127
asVMN0000122023
p1128
(lp1129
V1960s
p1130
aV1970s
p1131
aV1980s
p1132
aV1990s
p1133
aV2000s
p1134
aV2010s
p1135
asVMN0000281254
p1136
(lp1137
V1990s
p1138
aV2000s
p1139
aV2010s
p1140
asVMN0000059819
p1141
(lp1142
V1950s
p1143
aV1960s
p1144
aV1970s
p1145
aV1980s
p1146
aV1990s
p1147
aV2000s
p1148
aV2010s
p1149
asVMN0000808546
p1150
(lp1151
V1990s
p1152
aV2000s
p1153
aV2010s
p1154
asVMN0000200791
p1155
(lp1156
V1950s
p1157
aV1960s
p1158
aV1970s
p1159
aV1980s
p1160
aV1990s
p1161
aV2000s
p1162
asVMN0000632233
p1163
(lp1164
V2000s
p1165
aV2010s
p1166
asVMN0000796734
p1167
(lp1168
V1960s
p1169
aV1970s
p1170
aV1980s
p1171
aV1990s
p1172
aV2000s
p1173
aV2010s
p1174
asVMN0000019241
p1175
(lp1176
V1970s
p1177
aV1980s
p1178
aV1990s
p1179
aV2000s
p1180
aV2010s
p1181
asVMN0000128495
p1182
(lp1183
V1990s
p1184
aV2000s
p1185
aV2010s
p1186
asVMN0000546214
p1187
(lp1188
V1980s
p1189
aV1990s
p1190
aV2000s
p1191
aV2010s
p1192
asVMN0000478932
p1193
(lp1194
V2000s
p1195
asVMN0000424244
p1196
(lp1197
V1960s
p1198
aV1970s
p1199
aV1980s
p1200
aV1990s
p1201
aV2000s
p1202
aV2010s
p1203
asVMN0000945798
p1204
(lp1205
V1980s
p1206
aV1990s
p1207
aV2000s
p1208
aV2010s
p1209
asVMN0000241498
p1210
(lp1211
V1990s
p1212
aV2000s
p1213
aV2010s
p1214
asVMN0000350139
p1215
(lp1216
V1990s
p1217
aV2000s
p1218
aV2010s
p1219
asVMN0000745100
p1220
(lp1221
V1980s
p1222
aV1990s
p1223
asVMN0000068551
p1224
(lp1225
V1990s
p1226
aV2000s
p1227
aV2010s
p1228
asVMN0000799053
p1229
(lp1230
V1960s
p1231
aV1970s
p1232
aV1980s
p1233
aV1990s
p1234
aV2000s
p1235
aV2010s
p1236
asVMN0000937703
p1237
(lp1238
V1950s
p1239
aV1960s
p1240
aV1970s
p1241
aV1980s
p1242
aV1990s
p1243
aV2000s
p1244
aV2010s
p1245
asVMN0000128099
p1246
(lp1247
V1950s
p1248
aV1960s
p1249
aV1970s
p1250
aV1980s
p1251
aV1990s
p1252
aV2000s
p1253
asVMN0000085410
p1254
(lp1255
V1950s
p1256
aV1960s
p1257
aV1970s
p1258
aV1980s
p1259
aV1990s
p1260
aV2000s
p1261
aV2010s
p1262
asVMN0000808304
p1263
(lp1264
V1960s
p1265
aV1970s
p1266
aV1980s
p1267
aV1990s
p1268
aV2000s
p1269
aV2010s
p1270
asVMN0000655346
p1271
(lp1272
V1970s
p1273
aV1980s
p1274
aV1990s
p1275
asVMN0000656130
p1276
(lp1277
V2000s
p1278
aV2010s
p1279
asVMN0000135032
p1280
(lp1281
V1960s
p1282
aV1970s
p1283
asVMN0000096744
p1284
(lp1285
V1970s
p1286
aV1980s
p1287
aV1990s
p1288
aV2000s
p1289
aV2010s
p1290
asVMN0000597309
p1291
(lp1292
V1950s
p1293
aV1960s
p1294
aV1970s
p1295
aV1980s
p1296
aV1990s
p1297
aV2000s
p1298
aV2010s
p1299
asVMN0000134600
p1300
(lp1301
V1990s
p1302
aV2000s
p1303
aV2010s
p1304
asVMN0000927555
p1305
(lp1306
V1950s
p1307
aV1960s
p1308
aV1970s
p1309
aV1980s
p1310
aV1990s
p1311
aV2000s
p1312
aV2010s
p1313
asVMN0000367188
p1314
(lp1315
V2000s
p1316
aV2010s
p1317
asVMN0000128143
p1318
(lp1319
V2000s
p1320
aV2010s
p1321
asVMN0000026504
p1322
(lp1323
V1990s
p1324
aV2000s
p1325
aV2010s
p1326
asVMN0000559405
p1327
(lp1328
V1990s
p1329
aV2000s
p1330
aV2010s
p1331
asVMN0000590575
p1332
(lp1333
V1990s
p1334
aV2000s
p1335
aV2010s
p1336
asVMN0000019133
p1337
(lp1338
V1970s
p1339
aV1980s
p1340
aV1990s
p1341
aV2000s
p1342
aV2010s
p1343
asVMN0000838195
p1344
(lp1345
V1960s
p1346
aV1970s
p1347
aV1980s
p1348
aV1990s
p1349
aV2000s
p1350
asVMN0000744265
p1351
(lp1352
V1960s
p1353
aV1970s
p1354
aV1980s
p1355
aV1990s
p1356
aV2000s
p1357
aV2010s
p1358
asVMN0000933781
p1359
(lp1360
V1960s
p1361
aV1970s
p1362
aV1980s
p1363
aV1990s
p1364
aV2000s
p1365
aV2010s
p1366
asVMN0000773442
p1367
(lp1368
V2000s
p1369
aV2010s
p1370
asVMN0000165011
p1371
(lp1372
V1960s
p1373
aV1970s
p1374
aV1980s
p1375
aV1990s
p1376
aV2000s
p1377
aV2010s
p1378
asVMN0000757157
p1379
(lp1380
V1980s
p1381
aV1990s
p1382
aV2000s
p1383
aV2010s
p1384
asVMN0000120010
p1385
(lp1386
V1990s
p1387
aV2000s
p1388
aV2010s
p1389
asVMN0000044764
p1390
(lp1391
V1970s
p1392
aV1980s
p1393
aV1990s
p1394
aV2000s
p1395
aV2010s
p1396
asVMN0000260206
p1397
(lp1398
V1970s
p1399
aV1980s
p1400
aV1990s
p1401
aV2000s
p1402
aV2010s
p1403
asVMN0000069986
p1404
(lp1405
V1950s
p1406
aV1960s
p1407
aV1970s
p1408
aV1980s
p1409
aV1990s
p1410
aV2000s
p1411
aV2010s
p1412
asVMN0000743175
p1413
(lp1414
V1990s
p1415
aV2000s
p1416
aV2010s
p1417
asVMN0000037931
p1418
(lp1419
V1980s
p1420
aV1990s
p1421
aV2000s
p1422
aV2010s
p1423
asVMN0000006334
p1424
(lp1425
V1940s
p1426
aV1950s
p1427
aV1960s
p1428
aV1970s
p1429
aV1980s
p1430
aV1990s
p1431
aV2000s
p1432
aV2010s
p1433
asVMN0000585690
p1434
(lp1435
V1980s
p1436
aV1990s
p1437
aV2000s
p1438
asVMN0000409670
p1439
(lp1440
V1960s
p1441
aV1970s
p1442
aV1980s
p1443
aV1990s
p1444
aV2000s
p1445
aV2010s
p1446
asVMN0000674662
p1447
(lp1448
V1960s
p1449
aV1970s
p1450
aV1980s
p1451
aV1990s
p1452
aV2000s
p1453
asVMN0000146755
p1454
(lp1455
V1980s
p1456
aV1990s
p1457
aV2000s
p1458
aV2010s
p1459
asVMN0000949630
p1460
(lp1461
V1980s
p1462
aV1990s
p1463
aV2000s
p1464
aV2010s
p1465
asVMN0000840907
p1466
(lp1467
V1970s
p1468
aV1980s
p1469
aV1990s
p1470
aV2000s
p1471
aV2010s
p1472
asVMN0000057124
p1473
(lp1474
V1950s
p1475
aV1960s
p1476
aV1970s
p1477
aV1980s
p1478
aV1990s
p1479
aV2000s
p1480
aV2010s
p1481
asVMN0000799100
p1482
(lp1483
V1980s
p1484
aV1990s
p1485
aV2000s
p1486
aV2010s
p1487
asVMN0000199090
p1488
(lp1489
V1960s
p1490
aV1970s
p1491
aV1980s
p1492
aV1990s
p1493
aV2000s
p1494
aV2010s
p1495
asVMN0000293896
p1496
(lp1497
V1960s
p1498
aV1970s
p1499
aV1980s
p1500
aV1990s
p1501
aV2000s
p1502
aV2010s
p1503
asVMN0000806542
p1504
(lp1505
V1950s
p1506
aV1960s
p1507
aV1970s
p1508
aV1980s
p1509
aV1990s
p1510
aV2000s
p1511
aV2010s
p1512
asVMN0000174557
p1513
(lp1514
V1950s
p1515
aV1960s
p1516
aV1970s
p1517
aV1980s
p1518
aV1990s
p1519
aV2000s
p1520
aV2010s
p1521
asVMN0000531986
p1522
(lp1523
V1960s
p1524
aV1970s
p1525
aV1980s
p1526
aV1990s
p1527
aV2000s
p1528
aV2010s
p1529
asVMN0000855531
p1530
(lp1531
V1950s
p1532
aV1960s
p1533
aV1970s
p1534
aV1980s
p1535
aV1990s
p1536
aV2000s
p1537
aV2010s
p1538
asVMN0000241813
p1539
(lp1540
V1950s
p1541
aV1960s
p1542
aV1970s
p1543
asVMN0001824897
p1544
(lp1545
V1990s
p1546
aV2000s
p1547
aV2010s
p1548
asVMN0000633078
p1549
(lp1550
V1980s
p1551
aV1990s
p1552
aV2000s
p1553
aV2010s
p1554
asVMN0000233228
p1555
(lp1556
V1950s
p1557
aV1960s
p1558
aV1970s
p1559
aV1980s
p1560
aV1990s
p1561
aV2000s
p1562
asVMN0000575051
p1563
(lp1564
V1960s
p1565
asVMN0000620386
p1566
(lp1567
V1950s
p1568
aV1960s
p1569
aV1970s
p1570
aV1980s
p1571
aV1990s
p1572
aV2000s
p1573
aV2010s
p1574
asVMN0000921965
p1575
(lp1576
V1950s
p1577
aV1960s
p1578
aV1970s
p1579
aV1980s
p1580
aV1990s
p1581
aV2000s
p1582
aV2010s
p1583
asVMN0000007448
p1584
(lp1585
V1960s
p1586
aV1970s
p1587
aV1980s
p1588
aV1990s
p1589
aV2000s
p1590
asVMN0000151549
p1591
(lp1592
V1980s
p1593
aV1990s
p1594
aV2000s
p1595
aV2010s
p1596
asVMN0000651972
p1597
(lp1598
V1990s
p1599
aV2000s
p1600
aV2010s
p1601
asVMN0000298764
p1602
(lp1603
V1980s
p1604
aV1990s
p1605
aV2000s
p1606
aV2010s
p1607
asVMN0000270064
p1608
(lp1609
V1990s
p1610
aV2000s
p1611
aV2010s
p1612
asVMN0000038182
p1613
(lp1614
V1950s
p1615
aV1960s
p1616
aV1970s
p1617
aV1980s
p1618
aV1990s
p1619
aV2000s
p1620
aV2010s
p1621
as.