(dp0
VMN0000798801
p1
(lp2
V1950s
p3
aV1960s
p4
aV1970s
p5
aV1980s
p6
aV1990s
p7
aV2000s
p8
asVMN0000201760
p9
(lp10
V1960s
p11
aV1970s
p12
aV1980s
p13
aV1990s
p14
aV2000s
p15
aV2010s
p16
asVMN0000322092
p17
(lp18
V1960s
p19
aV1970s
p20
aV1980s
p21
aV1990s
p22
aV2000s
p23
aV2010s
p24
asVMN0000294085
p25
(lp26
V1970s
p27
aV1980s
p28
aV1990s
p29
aV2000s
p30
aV2010s
p31
asVMN0000359559
p32
(lp33
V1980s
p34
aV1990s
p35
aV2010s
p36
asVMN0000270491
p37
(lp38
V1960s
p39
aV1970s
p40
aV1980s
p41
aV1990s
p42
aV2000s
p43
aV2010s
p44
asVMN0000290072
p45
(lp46
V1960s
p47
aV1970s
p48
aV1980s
p49
aV1990s
p50
aV2000s
p51
aV2010s
p52
asVMN0000361393
p53
(lp54
V1970s
p55
aV1980s
p56
aV1990s
p57
aV2000s
p58
aV2010s
p59
asVMN0000849405
p60
(lp61
V1990s
p62
aV2000s
p63
aV2010s
p64
asVMN0000043444
p65
(lp66
V1960s
p67
aV1970s
p68
aV1980s
p69
aV1990s
p70
aV2000s
p71
aV2010s
p72
asVMN0000139655
p73
(lp74
V1970s
p75
aV1980s
p76
aV1990s
p77
aV2000s
p78
asVMN0000690254
p79
(lp80
V1970s
p81
aV1980s
p82
aV1990s
p83
aV2000s
p84
aV2010s
p85
asVMN0000493122
p86
(lp87
V1960s
p88
aV1970s
p89
asVMN0000070715
p90
(lp91
V1950s
p92
aV1960s
p93
aV1970s
p94
asVMN0000554804
p95
(lp96
V2000s
p97
asVMN0000130689
p98
(lp99
V1960s
p100
aV1970s
p101
aV1980s
p102
aV1990s
p103
aV2000s
p104
aV2010s
p105
asVMN0000025335
p106
(lp107
V1990s
p108
aV2000s
p109
aV2010s
p110
asVMN0000744265
p111
(lp112
V1960s
p113
aV1970s
p114
aV1980s
p115
aV1990s
p116
aV2000s
p117
aV2010s
p118
asVMN0000572579
p119
(lp120
V1970s
p121
aV1980s
p122
aV1990s
p123
aV2000s
p124
aV2010s
p125
asVMN0000118189
p126
(lp127
V1990s
p128
aV2000s
p129
aV2010s
p130
asVMN0000160690
p131
(lp132
V1990s
p133
aV2000s
p134
asVMN0000753963
p135
(lp136
V1960s
p137
aV1970s
p138
aV1980s
p139
aV1990s
p140
aV2000s
p141
aV2010s
p142
asVMN0000883318
p143
(lp144
V1980s
p145
aV1990s
p146
aV2000s
p147
aV2010s
p148
asVMN0000182900
p149
(lp150
V1960s
p151
aV1970s
p152
aV1980s
p153
aV1990s
p154
aV2000s
p155
aV2010s
p156
asVMN0000061172
p157
(lp158
V1970s
p159
aV1980s
p160
aV2000s
p161
aV2010s
p162
asVMN0000554963
p163
(lp164
V1970s
p165
aV1980s
p166
asVMN0000012128
p167
(lp168
V1990s
p169
aV2000s
p170
aV2010s
p171
asVMN0000337119
p172
(lp173
V1970s
p174
aV1980s
p175
aV1990s
p176
aV2000s
p177
aV2010s
p178
asVMN0000414251
p179
(lp180
V1960s
p181
asVMN0000930642
p182
(lp183
V1980s
p184
aV1990s
p185
aV2000s
p186
aV2010s
p187
asVMN0000191006
p188
(lp189
V1970s
p190
aV1990s
p191
aV2000s
p192
asVMN0000675710
p193
(lp194
V1990s
p195
aV2000s
p196
aV2010s
p197
asVMN0000776371
p198
(lp199
V1990s
p200
aV2000s
p201
asVMN0000293896
p202
(lp203
V1960s
p204
aV1970s
p205
aV1980s
p206
aV1990s
p207
aV2000s
p208
aV2010s
p209
asVMN0000036641
p210
(lp211
V2000s
p212
aV2010s
p213
asVMN0000222436
p214
(lp215
V1970s
p216
aV1980s
p217
aV1990s
p218
aV2000s
p219
aV2010s
p220
asVMN0000927555
p221
(lp222
V1950s
p223
aV1960s
p224
aV1970s
p225
aV1980s
p226
aV1990s
p227
aV2000s
p228
aV2010s
p229
asVMN0000610706
p230
(lp231
V1960s
p232
aV1970s
p233
aV1990s
p234
asVMN0000196993
p235
(lp236
V1970s
p237
aV1980s
p238
asVMN0000359966
p239
(lp240
V1970s
p241
aV1980s
p242
aV1990s
p243
aV2000s
p244
aV2010s
p245
asVMN0000498484
p246
(lp247
V1990s
p248
aV2000s
p249
aV2010s
p250
asVMN0000936190
p251
(lp252
V1960s
p253
aV1970s
p254
aV1980s
p255
aV1990s
p256
aV2000s
p257
aV2010s
p258
asVMN0000767016
p259
(lp260
V1980s
p261
aV1990s
p262
aV2000s
p263
aV2010s
p264
asVMN0000686897
p265
(lp266
V1960s
p267
aV1970s
p268
aV1980s
p269
aV1990s
p270
aV2000s
p271
aV2010s
p272
asVMN0000110161
p273
(lp274
V1960s
p275
aV1970s
p276
aV1980s
p277
aV1990s
p278
aV2000s
p279
aV2010s
p280
asVMN0000824022
p281
(lp282
V1950s
p283
aV1960s
p284
aV1970s
p285
aV1980s
p286
aV1990s
p287
aV2000s
p288
aV2010s
p289
asVMN0000662797
p290
(lp291
V1990s
p292
aV2000s
p293
aV2010s
p294
asVMN0000116178
p295
(lp296
V1980s
p297
aV1990s
p298
aV2000s
p299
asVMN0000480108
p300
(lp301
V1980s
p302
aV1990s
p303
aV2000s
p304
aV2010s
p305
asVMN0000198426
p306
(lp307
V1990s
p308
aV2000s
p309
aV2010s
p310
asVMN0000383853
p311
(lp312
V1980s
p313
aV1990s
p314
aV2000s
p315
aV2010s
p316
asVMN0000136871
p317
(lp318
V1970s
p319
aV1980s
p320
aV1990s
p321
aV2000s
p322
aV2010s
p323
asVMN0000667794
p324
(lp325
V1950s
p326
aV1960s
p327
aV1970s
p328
aV1980s
p329
aV1990s
p330
aV2000s
p331
aV2010s
p332
asVMN0000294923
p333
(lp334
V1950s
p335
aV1960s
p336
aV1970s
p337
aV1980s
p338
aV1990s
p339
aV2000s
p340
aV2010s
p341
asVMN0000497236
p342
(lp343
V1990s
p344
aV2000s
p345
aV2010s
p346
asVMN0000488908
p347
(lp348
V1990s
p349
aV2000s
p350
aV2010s
p351
asVMN0000834314
p352
(lp353
V1980s
p354
aV1990s
p355
aV2000s
p356
asVMN0000282752
p357
(lp358
V1970s
p359
aV1980s
p360
aV1990s
p361
aV2000s
p362
aV2010s
p363
asVMN0000030928
p364
(lp365
V1980s
p366
aV1990s
p367
aV2000s
p368
aV2010s
p369
as.