(dp0
VMN0000049774
p1
(lp2
V1990s
p3
aV2000s
p4
aV2010s
p5
asVMN0000224369
p6
(lp7
V1970s
p8
aV1980s
p9
aV1990s
p10
aV2000s
p11
aV2010s
p12
asVMN0000316834
p13
(lp14
V1950s
p15
aV1960s
p16
aV1970s
p17
aV1980s
p18
asVMN0000748994
p19
(lp20
V1990s
p21
aV2000s
p22
aV2010s
p23
asVMN0000208997
p24
(lp25
V1960s
p26
aV1970s
p27
aV1980s
p28
aV1990s
p29
aV2000s
p30
aV2010s
p31
asVMN0000227088
p32
(lp33
V1990s
p34
aV2000s
p35
aV2010s
p36
asVMN0000852007
p37
(lp38
V1950s
p39
aV1960s
p40
aV1970s
p41
aV1980s
p42
asVMN0000616296
p43
(lp44
V2000s
p45
aV2010s
p46
asVMN0000576979
p47
(lp48
V1970s
p49
aV2010s
p50
asVMN0000838524
p51
(lp52
V1960s
p53
aV1970s
p54
aV1980s
p55
aV1990s
p56
aV2000s
p57
aV2010s
p58
asVMN0000224186
p59
(lp60
V1970s
p61
aV1980s
p62
aV1990s
p63
aV2000s
p64
aV2010s
p65
asVMN0000097654
p66
(lp67
V1960s
p68
aV1970s
p69
aV1980s
p70
aV1990s
p71
aV2000s
p72
aV2010s
p73
asVMN0000321321
p74
(lp75
V1960s
p76
aV1970s
p77
aV1980s
p78
aV1990s
p79
aV2000s
p80
aV2010s
p81
asVMN0000894847
p82
(lp83
V1970s
p84
aV1980s
p85
aV1990s
p86
aV2000s
p87
aV2010s
p88
asVMN0000198162
p89
(lp90
V1950s
p91
aV1960s
p92
aV1970s
p93
aV1980s
p94
aV1990s
p95
aV2000s
p96
asVMN0000965206
p97
(lp98
V1950s
p99
aV1960s
p100
aV1970s
p101
asVMN0000260038
p102
(lp103
V1940s
p104
aV1950s
p105
aV1960s
p106
asVMN0000559405
p107
(lp108
V1990s
p109
aV2000s
p110
aV2010s
p111
asVMN0000196976
p112
(lp113
V2000s
p114
aV2010s
p115
asVMN0000864209
p116
(lp117
V1950s
p118
aV1960s
p119
aV1970s
p120
aV1980s
p121
aV1990s
p122
aV2000s
p123
aV2010s
p124
asVMN0000463435
p125
(lp126
V1960s
p127
aV1970s
p128
aV1980s
p129
aV1990s
p130
aV2000s
p131
aV2010s
p132
asVMN0000944084
p133
(lp134
V1970s
p135
aV1980s
p136
aV1990s
p137
aV2000s
p138
aV2010s
p139
asVMN0000423267
p140
(lp141
V1960s
p142
aV1970s
p143
asVMN0000174557
p144
(lp145
V1950s
p146
aV1960s
p147
aV1970s
p148
aV1980s
p149
aV1990s
p150
aV2000s
p151
aV2010s
p152
asVMN0000171637
p153
(lp154
V1950s
p155
aV1960s
p156
aV1970s
p157
aV1980s
p158
aV1990s
p159
aV2010s
p160
asVMN0000478603
p161
(lp162
V1960s
p163
aV1970s
p164
aV1980s
p165
aV1990s
p166
aV2010s
p167
asVMN0000837946
p168
(lp169
V1970s
p170
aV1980s
p171
aV1990s
p172
aV2000s
p173
aV2010s
p174
asVMN0000536275
p175
(lp176
V1970s
p177
aV1980s
p178
aV1990s
p179
aV2000s
p180
aV2010s
p181
asVMN0000572579
p182
(lp183
V1970s
p184
aV1980s
p185
aV1990s
p186
aV2000s
p187
aV2010s
p188
asVMN0000865016
p189
(lp190
V1980s
p191
aV1990s
p192
aV2000s
p193
aV2010s
p194
asVMN0000898828
p195
(lp196
V1950s
p197
aV1960s
p198
aV1970s
p199
aV1980s
p200
aV1990s
p201
aV2000s
p202
aV2010s
p203
asVMN0000608945
p204
(lp205
V1990s
p206
aV2000s
p207
aV2010s
p208
asVMN0000026952
p209
(lp210
V2000s
p211
aV2010s
p212
asVMN0000677781
p213
(lp214
V1950s
p215
aV1960s
p216
aV1970s
p217
aV1980s
p218
aV1990s
p219
aV2000s
p220
asVMN0000012180
p221
(lp222
V1990s
p223
aV2000s
p224
aV2010s
p225
asVMN0000058035
p226
(lp227
V1960s
p228
aV1970s
p229
aV1980s
p230
aV1990s
p231
aV2000s
p232
aV2010s
p233
asVMN0000035076
p234
(lp235
V1980s
p236
aV1990s
p237
aV2000s
p238
aV2010s
p239
asVMN0000143781
p240
(lp241
V1980s
p242
asVMN0000741718
p243
(lp244
V1980s
p245
aV1990s
p246
aV2000s
p247
aV2010s
p248
asVMN0000020812
p249
(lp250
V1980s
p251
aV1990s
p252
aV2000s
p253
aV2010s
p254
asVMN0000664459
p255
(lp256
V1990s
p257
aV2000s
p258
aV2010s
p259
asVMN0002907557
p260
(lp261
V1950s
p262
asVMN0000664093
p263
(lp264
V1960s
p265
aV1970s
p266
aV1980s
p267
aV1990s
p268
asVMN0000678408
p269
(lp270
V1950s
p271
aV1960s
p272
aV1970s
p273
aV1980s
p274
aV1990s
p275
aV2000s
p276
asVMN0000790833
p277
(lp278
V1970s
p279
aV1980s
p280
aV1990s
p281
asVMN0000524837
p282
(lp283
V1960s
p284
asVMN0000071812
p285
(lp286
V1950s
p287
aV1960s
p288
aV1970s
p289
aV1980s
p290
aV1990s
p291
aV2000s
p292
aV2010s
p293
asVMN0000674332
p294
(lp295
V1950s
p296
aV1960s
p297
aV1970s
p298
aV1980s
p299
aV1990s
p300
aV2000s
p301
aV2010s
p302
asVMN0000065397
p303
(lp304
V1960s
p305
aV1970s
p306
asVMN0000766893
p307
(lp308
V1950s
p309
aV1960s
p310
aV1970s
p311
aV1980s
p312
aV1990s
p313
aV2000s
p314
aV2010s
p315
asVMN0000739702
p316
(lp317
V1980s
p318
aV1990s
p319
asVMN0000774588
p320
(lp321
V1960s
p322
aV1970s
p323
aV1980s
p324
aV1990s
p325
aV2000s
p326
aV2010s
p327
asVMN0000110161
p328
(lp329
V1960s
p330
aV1970s
p331
aV1980s
p332
aV1990s
p333
aV2000s
p334
aV2010s
p335
asVMN0000234384
p336
(lp337
V2000s
p338
aV2010s
p339
asVMN0000824022
p340
(lp341
V1950s
p342
aV1960s
p343
aV1970s
p344
aV1980s
p345
aV1990s
p346
aV2000s
p347
aV2010s
p348
asVMN0000662797
p349
(lp350
V1990s
p351
aV2000s
p352
aV2010s
p353
asVMN0000233228
p354
(lp355
V1950s
p356
aV1960s
p357
aV1970s
p358
aV1980s
p359
aV1990s
p360
aV2000s
p361
asVMN0000932665
p362
(lp363
V1990s
p364
aV2000s
p365
aV2010s
p366
asVMN0000575051
p367
(lp368
V1960s
p369
asVMN0000934069
p370
(lp371
V1950s
p372
aV1960s
p373
aV1970s
p374
aV1980s
p375
aV1990s
p376
aV2000s
p377
aV2010s
p378
asVMN0000524050
p379
(lp380
V1970s
p381
aV1980s
p382
aV1990s
p383
aV2000s
p384
aV2010s
p385
asVMN0000424296
p386
(lp387
V1960s
p388
aV1970s
p389
aV1980s
p390
aV1990s
p391
aV2000s
p392
asVMN0000045313
p393
(lp394
V1960s
p395
aV1970s
p396
aV1980s
p397
aV1990s
p398
aV2000s
p399
aV2010s
p400
asVMN0000818200
p401
(lp402
V1990s
p403
aV2000s
p404
asVMN0000082013
p405
(lp406
V1950s
p407
aV1960s
p408
aV1970s
p409
aV2010s
p410
asVMN0000078532
p411
(lp412
V1970s
p413
aV1980s
p414
aV1990s
p415
aV2000s
p416
asVMN0000866417
p417
(lp418
V1980s
p419
aV1990s
p420
aV2000s
p421
asVMN0000281376
p422
(lp423
V1990s
p424
aV2000s
p425
aV2010s
p426
asVMN0000060476
p427
(lp428
V1960s
p429
aV1970s
p430
asVMN0000092942
p431
(lp432
V1970s
p433
aV1980s
p434
aV1990s
p435
as.