(dp0
VMN0000753963
p1
(lp2
V1960s
p3
aV1970s
p4
aV1980s
p5
aV1990s
p6
aV2000s
p7
aV2010s
p8
asVMN0000036641
p9
(lp10
V2000s
p11
aV2010s
p12
asVMN0000868616
p13
(lp14
V1990s
p15
aV2000s
p16
aV2010s
p17
asVMN0000237205
p18
(lp19
V1980s
p20
aV1990s
p21
aV2000s
p22
aV2010s
p23
asVMN0000342834
p24
(lp25
V1960s
p26
aV1970s
p27
aV1980s
p28
aV1990s
p29
aV2000s
p30
as.