(dp0
VMN0000158407
p1
(lp2
V1980s
p3
asVMN0000763798
p4
(lp5
V1960s
p6
asVMN0000509356
p7
(lp8
V1970s
p9
aV1980s
p10
aV1990s
p11
aV2000s
p12
aV2010s
p13
asVMN0000830464
p14
(lp15
V1960s
p16
aV1970s
p17
asVMN0000590524
p18
(lp19
V1960s
p20
aV1970s
p21
asVMN0000021050
p22
(lp23
V1980s
p24
aV1990s
p25
aV2000s
p26
asVMN0000022255
p27
(lp28
V1950s
p29
aV1960s
p30
aV1970s
p31
aV1980s
p32
aV1990s
p33
aV2000s
p34
aV2010s
p35
asVMN0000665835
p36
(lp37
V1960s
p38
aV1970s
p39
aV1980s
p40
aV1990s
p41
aV2000s
p42
asVMN0000274822
p43
(lp44
V1950s
p45
aV1960s
p46
aV1970s
p47
aV1980s
p48
aV1990s
p49
aV2000s
p50
aV2010s
p51
asVMN0000000674
p52
(lp53
V1960s
p54
aV1970s
p55
aV1980s
p56
aV1990s
p57
aV2000s
p58
aV2010s
p59
asVMN0000805208
p60
(lp61
V1950s
p62
aV1960s
p63
aV1970s
p64
aV1980s
p65
aV1990s
p66
aV2000s
p67
asVMN0000138332
p68
(lp69
V1950s
p70
aV1960s
p71
aV1970s
p72
aV1980s
p73
aV1990s
p74
aV2000s
p75
aV2010s
p76
asVMN0000603980
p77
(lp78
V1960s
p79
aV1970s
p80
aV1980s
p81
aV1990s
p82
asVMN0000500646
p83
(lp84
V1960s
p85
aV1970s
p86
asVMN0000220946
p87
(lp88
V1960s
p89
aV1970s
p90
aV1980s
p91
aV1990s
p92
asVMN0000824022
p93
(lp94
V1950s
p95
aV1960s
p96
aV1970s
p97
aV1980s
p98
aV1990s
p99
aV2000s
p100
aV2010s
p101
asVMN0000524239
p102
(lp103
V1950s
p104
aV1960s
p105
aV1970s
p106
aV1980s
p107
asVMN0000060476
p108
(lp109
V1960s
p110
aV1970s
p111
asVMN0000226312
p112
(lp113
V1990s
p114
asVMN0000477834
p115
(lp116
V1960s
p117
aV1970s
p118
aV1980s
p119
aV1990s
p120
aV2000s
p121
aV2010s
p122
asVMN0000665957
p123
(lp124
V1950s
p125
aV1960s
p126
aV1970s
p127
aV1980s
p128
aV1990s
p129
asVMN0000814974
p130
(lp131
V1960s
p132
aV1970s
p133
aV1980s
p134
aV1990s
p135
aV2000s
p136
asVMN0000930722
p137
(lp138
V1960s
p139
aV1970s
p140
aV1980s
p141
asVMN0000156886
p142
(lp143
V1970s
p144
aV1980s
p145
aV1990s
p146
aV2000s
p147
asVMN0000599732
p148
(lp149
V1980s
p150
aV1990s
p151
aV2000s
p152
asVMN0000199995
p153
(lp154
V1960s
p155
aV1970s
p156
aV1980s
p157
aV1990s
p158
aV2000s
p159
aV2010s
p160
asVMN0000342834
p161
(lp162
V1960s
p163
aV1970s
p164
aV1980s
p165
aV1990s
p166
aV2000s
p167
asVMN0000559405
p168
(lp169
V1990s
p170
aV2000s
p171
aV2010s
p172
asVMN0000581859
p173
(lp174
V1950s
p175
aV1960s
p176
aV1970s
p177
aV1980s
p178
aV1990s
p179
aV2000s
p180
aV2010s
p181
asVMN0000806507
p182
(lp183
V1970s
p184
aV1980s
p185
aV1990s
p186
asVMN0000162487
p187
(lp188
V1980s
p189
aV1990s
p190
aV2000s
p191
aV2010s
p192
asVMN0000011597
p193
(lp194
V1960s
p195
asVMN0000228444
p196
(lp197
V1960s
p198
aV1970s
p199
aV1980s
p200
aV1990s
p201
aV2000s
p202
aV2010s
p203
asVMN0000417598
p204
(lp205
V1960s
p206
asVMN0000569685
p207
(lp208
V1960s
p209
aV1970s
p210
aV1980s
p211
aV1990s
p212
aV2000s
p213
aV2010s
p214
asVMN0000062729
p215
(lp216
V1960s
p217
aV1970s
p218
asVMN0000814898
p219
(lp220
V1960s
p221
aV1970s
p222
aV1980s
p223
asVMN0000502806
p224
(lp225
V1960s
p226
asVMN0000057840
p227
(lp228
V1960s
p229
aV1970s
p230
aV1980s
p231
aV1990s
p232
aV2000s
p233
aV2010s
p234
asVMN0000334740
p235
(lp236
V1960s
p237
aV1970s
p238
aV1980s
p239
aV1990s
p240
aV2000s
p241
aV2010s
p242
asVMN0000785585
p243
(lp244
V1960s
p245
aV1970s
p246
asVMN0000604924
p247
(lp248
V1960s
p249
asVMN0000685647
p250
(lp251
V1960s
p252
aV1970s
p253
aV1980s
p254
aV1990s
p255
aV2000s
p256
aV2010s
p257
asVMN0000162269
p258
(lp259
V1990s
p260
aV2000s
p261
aV2010s
p262
asVMN0000292243
p263
(lp264
V1960s
p265
aV1970s
p266
aV1980s
p267
aV1990s
p268
aV2000s
p269
aV2010s
p270
asVMN0000112360
p271
(lp272
V1980s
p273
aV1990s
p274
asVMN0000565388
p275
(lp276
V1960s
p277
aV1970s
p278
aV1980s
p279
aV1990s
p280
aV2000s
p281
aV2010s
p282
asVMN0000103391
p283
(lp284
V1990s
p285
asVMN0000131681
p286
(lp287
V1950s
p288
aV1960s
p289
aV1970s
p290
aV1980s
p291
aV1990s
p292
aV2000s
p293
aV2010s
p294
asVMN0000662438
p295
(lp296
V1950s
p297
aV1960s
p298
asVMN0000794449
p299
(lp300
V1950s
p301
aV1960s
p302
aV1970s
p303
aV1980s
p304
aV1990s
p305
aV2000s
p306
aV2010s
p307
asVMN0000814220
p308
(lp309
V1970s
p310
aV1980s
p311
aV1990s
p312
aV2000s
p313
aV2010s
p314
asVMN0000080428
p315
(lp316
V1950s
p317
aV1960s
p318
aV1970s
p319
aV1980s
p320
aV1990s
p321
aV2000s
p322
aV2010s
p323
asVMN0000366681
p324
(lp325
V2000s
p326
aV2010s
p327
asVMN0000179021
p328
(lp329
V1960s
p330
aV1970s
p331
aV1980s
p332
asVMN0000508449
p333
(lp334
V1960s
p335
aV1970s
p336
aV1980s
p337
asVMN0000234004
p338
(lp339
V1960s
p340
aV1970s
p341
aV1980s
p342
aV1990s
p343
aV2000s
p344
aV2010s
p345
asVMN0000472440
p346
(lp347
V1950s
p348
aV1960s
p349
aV1970s
p350
aV1980s
p351
aV1990s
p352
aV2000s
p353
asVMN0000109025
p354
(lp355
V1970s
p356
aV1980s
p357
asVMN0000393106
p358
(lp359
V1960s
p360
aV1970s
p361
asVMN0000738674
p362
(lp363
V1960s
p364
aV1970s
p365
aV1980s
p366
aV1990s
p367
aV2000s
p368
aV2010s
p369
asVMN0000784759
p370
(lp371
V1960s
p372
aV1970s
p373
aV1980s
p374
aV1990s
p375
asVMN0000286115
p376
(lp377
V1970s
p378
aV1980s
p379
aV1990s
p380
aV2000s
p381
aV2010s
p382
asVMN0000051118
p383
(lp384
V1950s
p385
aV1960s
p386
asVMN0000502398
p387
(lp388
V1960s
p389
aV1970s
p390
aV1980s
p391
aV1990s
p392
aV2000s
p393
asVMN0000567624
p394
(lp395
V1960s
p396
aV1970s
p397
aV1980s
p398
aV1990s
p399
aV2000s
p400
aV2010s
p401
asVMN0000868456
p402
(lp403
V1960s
p404
aV1970s
p405
aV1980s
p406
aV1990s
p407
aV2000s
p408
aV2010s
p409
asVMN0000325366
p410
(lp411
V1960s
p412
aV1970s
p413
asVMN0000297990
p414
(lp415
V1960s
p416
aV1970s
p417
asVMN0000010155
p418
(lp419
V1960s
p420
aV1970s
p421
asVMN0000600075
p422
(lp423
V1950s
p424
aV1960s
p425
aV1970s
p426
aV1980s
p427
aV1990s
p428
aV2000s
p429
aV2010s
p430
asVMN0000135059
p431
(lp432
V1960s
p433
aV1970s
p434
aV1980s
p435
aV1990s
p436
aV2000s
p437
aV2010s
p438
asVMN0000844707
p439
(lp440
V1950s
p441
aV1960s
p442
asVMN0000411689
p443
(lp444
V1950s
p445
aV1960s
p446
aV1970s
p447
asVMN0000851745
p448
(lp449
V1960s
p450
aV1970s
p451
aV1980s
p452
aV1990s
p453
asVMN0000787940
p454
(lp455
V1980s
p456
aV1990s
p457
aV2000s
p458
aV2010s
p459
asVMN0000148477
p460
(lp461
V1960s
p462
aV1970s
p463
aV1980s
p464
aV1990s
p465
aV2000s
p466
aV2010s
p467
asVMN0000154967
p468
(lp469
V1960s
p470
asVMN0000477410
p471
(lp472
V1960s
p473
aV1970s
p474
aV1980s
p475
aV1990s
p476
aV2000s
p477
aV2010s
p478
asVMN0000812920
p479
(lp480
V1960s
p481
aV1970s
p482
aV1980s
p483
aV1990s
p484
aV2000s
p485
aV2010s
p486
asVMN0000569256
p487
(lp488
V1950s
p489
aV1960s
p490
aV1970s
p491
aV1980s
p492
aV1990s
p493
aV2000s
p494
aV2010s
p495
asVMN0000240999
p496
(lp497
V1950s
p498
aV1960s
p499
aV1970s
p500
aV1980s
p501
aV1990s
p502
aV2000s
p503
aV2010s
p504
asVMN0000013589
p505
(lp506
V1960s
p507
aV1970s
p508
asVMN0000123132
p509
(lp510
V1960s
p511
asVMN0000838195
p512
(lp513
V1960s
p514
aV1970s
p515
aV1980s
p516
aV1990s
p517
aV2000s
p518
asVMN0000771638
p519
(lp520
V1950s
p521
aV1960s
p522
aV1970s
p523
aV1980s
p524
aV1990s
p525
asVMN0000069986
p526
(lp527
V1950s
p528
aV1960s
p529
aV1970s
p530
aV1980s
p531
aV1990s
p532
aV2000s
p533
aV2010s
p534
asVMN0000019740
p535
(lp536
V2000s
p537
aV2010s
p538
asVMN0000944241
p539
(lp540
V1950s
p541
aV1960s
p542
aV1970s
p543
aV1980s
p544
aV1990s
p545
aV2000s
p546
aV2010s
p547
asVMN0000050656
p548
(lp549
V1960s
p550
asVMN0000413753
p551
(lp552
V1960s
p553
aV1970s
p554
aV1980s
p555
asVMN0000061582
p556
(lp557
V1950s
p558
aV1960s
p559
aV1970s
p560
aV1980s
p561
aV1990s
p562
aV2000s
p563
aV2010s
p564
asVMN0000814606
p565
(lp566
V1950s
p567
aV1960s
p568
aV1970s
p569
aV1980s
p570
aV1990s
p571
aV2000s
p572
aV2010s
p573
asVMN0000053190
p574
(lp575
V1960s
p576
asVMN0000162820
p577
(lp578
V1950s
p579
aV1960s
p580
aV1970s
p581
asVMN0000245049
p582
(lp583
V1960s
p584
aV1970s
p585
aV1980s
p586
asVMN0003014650
p587
(lp588
V1980s
p589
asVMN0000662692
p590
(lp591
V1980s
p592
aV1990s
p593
aV2000s
p594
aV2010s
p595
asVMN0000312522
p596
(lp597
V1950s
p598
aV1960s
p599
aV1970s
p600
asVMN0000757328
p601
(lp602
V1960s
p603
asVMN0000303050
p604
(lp605
V1930s
p606
aV1940s
p607
aV1950s
p608
aV1960s
p609
aV1970s
p610
aV1980s
p611
aV1990s
p612
aV2000s
p613
asVMN0000149973
p614
(lp615
V1960s
p616
aV1970s
p617
aV1980s
p618
aV1990s
p619
aV2000s
p620
aV2010s
p621
asVMN0000830653
p622
(lp623
V1970s
p624
as.