(dp0
VMN0000317093
p1
(lp2
V1930s
p3
aV1940s
p4
aV1950s
p5
aV1960s
p6
asVMN0000073666
p7
(lp8
V1950s
p9
aV1960s
p10
aV1970s
p11
aV1980s
p12
asVMN0000816387
p13
(lp14
V1950s
p15
aV1960s
p16
aV1970s
p17
aV1980s
p18
aV1990s
p19
aV2000s
p20
aV2010s
p21
asVMN0000986573
p22
(lp23
V2000s
p24
aV2010s
p25
asVMN0000649435
p26
(lp27
V1980s
p28
aV1990s
p29
aV2000s
p30
asVMN0002453941
p31
(lp32
V2000s
p33
aV2010s
p34
asVMN0000074195
p35
(lp36
V1950s
p37
aV1960s
p38
aV1970s
p39
aV1980s
p40
aV1990s
p41
aV2000s
p42
aV2010s
p43
asVMN0000664378
p44
(lp45
V1950s
p46
aV1960s
p47
aV1970s
p48
aV1980s
p49
aV1990s
p50
aV2000s
p51
aV2010s
p52
asVMN0000413000
p53
(lp54
V1990s
p55
aV2000s
p56
aV2010s
p57
asVMN0000199995
p58
(lp59
V1960s
p60
aV1970s
p61
aV1980s
p62
aV1990s
p63
aV2000s
p64
aV2010s
p65
asVMN0000064509
p66
(lp67
V1960s
p68
aV1970s
p69
aV1980s
p70
aV1990s
p71
aV2000s
p72
aV2010s
p73
asVMN0000926428
p74
(lp75
V1980s
p76
aV1990s
p77
aV2000s
p78
aV2010s
p79
asVMN0000936190
p80
(lp81
V1960s
p82
aV1970s
p83
aV1980s
p84
aV1990s
p85
aV2000s
p86
aV2010s
p87
asVMN0000651549
p88
(lp89
V1960s
p90
aV1970s
p91
aV1980s
p92
aV1990s
p93
aV2000s
p94
aV2010s
p95
asVMN0000303050
p96
(lp97
V1930s
p98
aV1940s
p99
aV1950s
p100
aV1960s
p101
aV1970s
p102
aV1980s
p103
aV1990s
p104
aV2000s
p105
asVMN0000102050
p106
(lp107
V1950s
p108
aV1960s
p109
aV1970s
p110
aV1980s
p111
aV1990s
p112
aV2010s
p113
asVMN0000927555
p114
(lp115
V1950s
p116
aV1960s
p117
aV1970s
p118
aV1980s
p119
aV1990s
p120
aV2000s
p121
aV2010s
p122
asVMN0000016227
p123
(lp124
V1960s
p125
aV1970s
p126
asVMN0000070715
p127
(lp128
V1950s
p129
aV1960s
p130
aV1970s
p131
asVMN0000659517
p132
(lp133
V1960s
p134
aV1970s
p135
aV1980s
p136
aV1990s
p137
aV2000s
p138
aV2010s
p139
asVMN0000233228
p140
(lp141
V1950s
p142
aV1960s
p143
aV1970s
p144
aV1980s
p145
aV1990s
p146
aV2000s
p147
asVMN0000062002
p148
(lp149
V1970s
p150
aV1980s
p151
aV1990s
p152
aV2000s
p153
asVMN0000739041
p154
(lp155
V1990s
p156
aV2000s
p157
aV2010s
p158
asVMN0000897205
p159
(lp160
V1970s
p161
aV1980s
p162
aV1990s
p163
aV2000s
p164
aV2010s
p165
asVMN0000289599
p166
(lp167
V1990s
p168
aV2000s
p169
aV2010s
p170
asVMN0000188467
p171
(lp172
V1970s
p173
aV1980s
p174
aV1990s
p175
aV2000s
p176
aV2010s
p177
asVMN0000198162
p178
(lp179
V1950s
p180
aV1960s
p181
aV1970s
p182
aV1980s
p183
aV1990s
p184
aV2000s
p185
asVMN0000568861
p186
(lp187
V1950s
p188
aV1960s
p189
aV1970s
p190
aV1980s
p191
aV1990s
p192
aV2000s
p193
aV2010s
p194
asVMN0000165011
p195
(lp196
V1960s
p197
aV1970s
p198
aV1980s
p199
aV1990s
p200
aV2000s
p201
aV2010s
p202
asVMN0000200074
p203
(lp204
V1980s
p205
aV1990s
p206
aV2000s
p207
aV2010s
p208
asVMN0000813392
p209
(lp210
V1940s
p211
aV1950s
p212
aV1960s
p213
aV1970s
p214
aV1980s
p215
asVMN0000044764
p216
(lp217
V1970s
p218
aV1980s
p219
aV1990s
p220
aV2000s
p221
aV2010s
p222
asVMN0000170454
p223
(lp224
V1960s
p225
asVMN0000069986
p226
(lp227
V1950s
p228
aV1960s
p229
aV1970s
p230
aV1980s
p231
aV1990s
p232
aV2000s
p233
aV2010s
p234
asVMN0000048300
p235
(lp236
V1960s
p237
aV1970s
p238
aV1980s
p239
aV1990s
p240
aV2000s
p241
aV2010s
p242
asVMN0000671953
p243
(lp244
V1970s
p245
aV1980s
p246
aV1990s
p247
aV2000s
p248
aV2010s
p249
asVMN0000368367
p250
(lp251
V1950s
p252
aV1960s
p253
aV1970s
p254
aV1980s
p255
aV1990s
p256
aV2000s
p257
aV2010s
p258
asVMN0000123754
p259
(lp260
V1970s
p261
aV1980s
p262
aV1990s
p263
aV2000s
p264
aV2010s
p265
asVMN0000850692
p266
(lp267
V1960s
p268
aV1970s
p269
aV1980s
p270
aV1990s
p271
aV2000s
p272
aV2010s
p273
asVMN0000414251
p274
(lp275
V1960s
p276
asVMN0000175939
p277
(lp278
V1970s
p279
asVMN0000469519
p280
(lp281
V1990s
p282
aV2000s
p283
aV2010s
p284
asVMN0000150048
p285
(lp286
V1990s
p287
aV2000s
p288
aV2010s
p289
asVMN0000674150
p290
(lp291
V1960s
p292
aV1970s
p293
aV1980s
p294
aV1990s
p295
aV2000s
p296
asVMN0000677781
p297
(lp298
V1950s
p299
aV1960s
p300
aV1970s
p301
aV1980s
p302
aV1990s
p303
aV2000s
p304
asVMN0000325126
p305
(lp306
V1980s
p307
aV1990s
p308
aV2000s
p309
asVMN0000142531
p310
(lp311
V1950s
p312
aV1960s
p313
aV1970s
p314
aV1980s
p315
aV1990s
p316
aV2000s
p317
aV2010s
p318
asVMN0000036641
p319
(lp320
V2000s
p321
aV2010s
p322
asVMN0000794306
p323
(lp324
V1980s
p325
aV1990s
p326
aV2000s
p327
asVMN0000792507
p328
(lp329
V1930s
p330
aV1940s
p331
aV1950s
p332
aV1960s
p333
aV1970s
p334
aV1980s
p335
aV1990s
p336
asVMN0000065231
p337
(lp338
V1990s
p339
asVMN0000180449
p340
(lp341
V1980s
p342
aV1990s
p343
aV2000s
p344
aV2010s
p345
asVMN0000075473
p346
(lp347
V1980s
p348
asVMN0000355616
p349
(lp350
V1980s
p351
aV1990s
p352
aV2000s
p353
aV2010s
p354
asVMN0000297702
p355
(lp356
V1960s
p357
aV1970s
p358
aV1980s
p359
aV1990s
p360
aV2000s
p361
aV2010s
p362
asVMN0000174557
p363
(lp364
V1950s
p365
aV1960s
p366
aV1970s
p367
aV1980s
p368
aV1990s
p369
aV2000s
p370
aV2010s
p371
asVMN0000686897
p372
(lp373
V1960s
p374
aV1970s
p375
aV1980s
p376
aV1990s
p377
aV2000s
p378
aV2010s
p379
asVMN0000500889
p380
(lp381
V1960s
p382
aV1970s
p383
asVMN0000086065
p384
(lp385
V1980s
p386
aV1990s
p387
aV2000s
p388
aV2010s
p389
asVMN0000325459
p390
(lp391
V1980s
p392
aV1990s
p393
aV2000s
p394
aV2010s
p395
asVMN0000179205
p396
(lp397
V1960s
p398
aV1970s
p399
aV1980s
p400
aV1990s
p401
aV2000s
p402
aV2010s
p403
asVMN0000153526
p404
(lp405
V1950s
p406
aV1960s
p407
aV1970s
p408
aV1980s
p409
aV1990s
p410
aV2000s
p411
aV2010s
p412
asVMN0000672656
p413
(lp414
V2000s
p415
aV2010s
p416
asVMN0000258882
p417
(lp418
V1990s
p419
aV2000s
p420
aV2010s
p421
asVMN0000044751
p422
(lp423
V1970s
p424
aV1980s
p425
aV1990s
p426
aV2000s
p427
aV2010s
p428
asVMN0000188432
p429
(lp430
V1960s
p431
aV1970s
p432
aV1980s
p433
aV1990s
p434
aV2000s
p435
aV2010s
p436
asVMN0000495201
p437
(lp438
V2000s
p439
aV2010s
p440
asVMN0000158309
p441
(lp442
V1970s
p443
aV1980s
p444
aV1990s
p445
aV2000s
p446
aV2010s
p447
asVMN0000081619
p448
(lp449
V1990s
p450
aV2000s
p451
aV2010s
p452
asVMN0000136871
p453
(lp454
V1970s
p455
aV1980s
p456
aV1990s
p457
aV2000s
p458
aV2010s
p459
asVMN0000031380
p460
(lp461
V1980s
p462
aV1990s
p463
aV2000s
p464
aV2010s
p465
asVMN0000005953
p466
(lp467
V1960s
p468
aV1970s
p469
aV1980s
p470
aV1990s
p471
aV2000s
p472
aV2010s
p473
asVMN0000806991
p474
(lp475
V1960s
p476
aV1970s
p477
aV1980s
p478
aV1990s
p479
aV2000s
p480
aV2010s
p481
asVMN0000147635
p482
(lp483
V1970s
p484
aV1980s
p485
aV1990s
p486
aV2000s
p487
aV2010s
p488
asVMN0000413753
p489
(lp490
V1960s
p491
aV1970s
p492
aV1980s
p493
asVMN0000280061
p494
(lp495
V1990s
p496
asVMN0000061045
p497
(lp498
V1960s
p499
aV1970s
p500
aV1980s
p501
aV1990s
p502
aV2000s
p503
aV2010s
p504
asVMN0000632986
p505
(lp506
V2000s
p507
aV2010s
p508
asVMN0000298764
p509
(lp510
V1980s
p511
aV1990s
p512
aV2000s
p513
aV2010s
p514
asVMN0000256349
p515
(lp516
V1940s
p517
aV1950s
p518
aV1960s
p519
aV1970s
p520
aV1980s
p521
aV1990s
p522
aV2000s
p523
asVMN0000251358
p524
(lp525
V1990s
p526
asVMN0000168958
p527
(lp528
V1950s
p529
aV1960s
p530
aV1970s
p531
aV1980s
p532
aV1990s
p533
aV2000s
p534
aV2010s
p535
asVMN0000785101
p536
(lp537
V1980s
p538
aV1990s
p539
aV2000s
p540
aV2010s
p541
as.