(dp0
VMN0000297894
p1
(lp2
V1960s
p3
aV1970s
p4
aV1980s
p5
aV1990s
p6
aV2000s
p7
aV2010s
p8
asVMN0000086927
p9
(lp10
V2000s
p11
aV2010s
p12
asVMN0000484145
p13
(lp14
V1960s
p15
aV1970s
p16
asVMN0000015318
p17
(lp18
V1980s
p19
aV1990s
p20
aV2000s
p21
aV2010s
p22
asVMN0000677241
p23
(lp24
V2000s
p25
aV2010s
p26
asVMN0000774588
p27
(lp28
V1960s
p29
aV1970s
p30
aV1980s
p31
aV1990s
p32
aV2000s
p33
aV2010s
p34
asVMN0000816701
p35
(lp36
V1970s
p37
aV1980s
p38
aV1990s
p39
aV2000s
p40
aV2010s
p41
asVMN0000752673
p42
(lp43
V1970s
p44
aV1980s
p45
aV1990s
p46
aV2000s
p47
aV2010s
p48
asVMN0000596126
p49
(lp50
V1960s
p51
aV1970s
p52
asVMN0000530745
p53
(lp54
V1970s
p55
aV1980s
p56
aV1990s
p57
aV2000s
p58
aV2010s
p59
asVMN0000859868
p60
(lp61
V1970s
p62
aV1980s
p63
aV1990s
p64
aV2000s
p65
aV2010s
p66
asVMN0000021744
p67
(lp68
V1960s
p69
aV1970s
p70
aV1980s
p71
aV1990s
p72
aV2000s
p73
aV2010s
p74
asVMN0000163229
p75
(lp76
V1970s
p77
aV1980s
p78
aV1990s
p79
aV2000s
p80
asVMN0000567570
p81
(lp82
V1970s
p83
aV1980s
p84
aV1990s
p85
asVMN0000169795
p86
(lp87
V1990s
p88
aV2000s
p89
aV2010s
p90
asVMN0000317865
p91
(lp92
V1990s
p93
aV2000s
p94
aV2010s
p95
asVMN0000151431
p96
(lp97
V1950s
p98
aV1960s
p99
aV1970s
p100
aV1980s
p101
aV1990s
p102
asVMN0000796741
p103
(lp104
V1940s
p105
aV1950s
p106
aV1960s
p107
aV1970s
p108
aV1980s
p109
aV1990s
p110
aV2000s
p111
asVMN0000033481
p112
(lp113
V1990s
p114
aV2000s
p115
aV2010s
p116
asVMN0000468938
p117
(lp118
V2000s
p119
aV2010s
p120
asVMN0000799053
p121
(lp122
V1960s
p123
aV1970s
p124
aV1980s
p125
aV1990s
p126
aV2000s
p127
aV2010s
p128
asVMN0000210143
p129
(lp130
V1980s
p131
aV1990s
p132
aV2000s
p133
aV2010s
p134
asVMN0000166785
p135
(lp136
V1960s
p137
aV1970s
p138
aV1980s
p139
aV1990s
p140
aV2000s
p141
asVMN0000098081
p142
(lp143
V1950s
p144
aV1960s
p145
aV1970s
p146
aV1980s
p147
aV1990s
p148
aV2000s
p149
aV2010s
p150
asVMN0000768584
p151
(lp152
V1960s
p153
aV1970s
p154
aV1980s
p155
aV1990s
p156
aV2000s
p157
aV2010s
p158
asVMN0000338887
p159
(lp160
V1950s
p161
aV1960s
p162
aV1970s
p163
aV1980s
p164
aV1990s
p165
asVMN0000061480
p166
(lp167
V1960s
p168
aV1970s
p169
aV1980s
p170
aV1990s
p171
aV2000s
p172
aV2010s
p173
asVMN0000100116
p174
(lp175
V1960s
p176
aV1970s
p177
aV1980s
p178
aV1990s
p179
aV2000s
p180
aV2010s
p181
asVMN0000373634
p182
(lp183
V1990s
p184
aV2000s
p185
aV2010s
p186
asVMN0000891911
p187
(lp188
V1970s
p189
aV1980s
p190
aV1990s
p191
aV2000s
p192
aV2010s
p193
asVMN0000485135
p194
(lp195
V1990s
p196
aV2000s
p197
aV2010s
p198
asVMN0000018977
p199
(lp200
V1970s
p201
aV1980s
p202
aV1990s
p203
aV2000s
p204
aV2010s
p205
asVMN0000766066
p206
(lp207
V1950s
p208
aV1960s
p209
aV1970s
p210
aV1980s
p211
aV1990s
p212
aV2010s
p213
asVMN0000758943
p214
(lp215
V1960s
p216
aV1970s
p217
aV1980s
p218
aV1990s
p219
aV2000s
p220
aV2010s
p221
asVMN0000804289
p222
(lp223
V1960s
p224
aV1970s
p225
aV1980s
p226
aV1990s
p227
aV2000s
p228
aV2010s
p229
asVMN0000141838
p230
(lp231
V1970s
p232
aV1980s
p233
aV1990s
p234
aV2000s
p235
aV2010s
p236
asVMN0000186185
p237
(lp238
V1980s
p239
aV1990s
p240
aV2000s
p241
aV2010s
p242
asVMN0000334644
p243
(lp244
V1950s
p245
aV1960s
p246
aV1970s
p247
aV1980s
p248
aV1990s
p249
aV2000s
p250
asVMN0000838327
p251
(lp252
V1990s
p253
aV2000s
p254
asVMN0000475650
p255
(lp256
V1980s
p257
aV1990s
p258
aV2000s
p259
aV2010s
p260
asVMN0000175286
p261
(lp262
V1950s
p263
aV1960s
p264
aV1970s
p265
aV1980s
p266
aV1990s
p267
aV2000s
p268
aV2010s
p269
asVMN0001002843
p270
(lp271
V2000s
p272
aV2010s
p273
asVMN0000787960
p274
(lp275
V1980s
p276
aV1990s
p277
aV2000s
p278
aV2010s
p279
asVMN0000096964
p280
(lp281
V1960s
p282
aV1970s
p283
aV1980s
p284
aV1990s
p285
aV2000s
p286
aV2010s
p287
asVMN0000583959
p288
(lp289
V1950s
p290
aV1960s
p291
aV1970s
p292
aV1980s
p293
aV1990s
p294
aV2000s
p295
aV2010s
p296
asVMN0000051736
p297
(lp298
V1960s
p299
aV1970s
p300
aV1980s
p301
aV1990s
p302
aV2000s
p303
aV2010s
p304
asVMN0000190632
p305
(lp306
V1950s
p307
aV1960s
p308
aV1970s
p309
aV1980s
p310
aV1990s
p311
asVMN0000774941
p312
(lp313
V1990s
p314
aV2000s
p315
aV2010s
p316
asVMN0000013384
p317
(lp318
V1970s
p319
aV1980s
p320
aV1990s
p321
aV2000s
p322
asVMN0000936206
p323
(lp324
V1970s
p325
aV1980s
p326
aV1990s
p327
aV2000s
p328
aV2010s
p329
asVMN0000677575
p330
(lp331
V2000s
p332
aV2010s
p333
asVMN0000113300
p334
(lp335
V1970s
p336
aV1980s
p337
aV1990s
p338
aV2000s
p339
aV2010s
p340
asVMN0000771905
p341
(lp342
V1990s
p343
aV2000s
p344
aV2010s
p345
asVMN0000256974
p346
(lp347
V1970s
p348
asVMN0000628467
p349
(lp350
V1990s
p351
aV2000s
p352
aV2010s
p353
asVMN0000147468
p354
(lp355
V2000s
p356
aV2010s
p357
asVMN0000621869
p358
(lp359
V2000s
p360
aV2010s
p361
asVMN0000315336
p362
(lp363
V1930s
p364
aV1940s
p365
aV1950s
p366
aV1960s
p367
aV1970s
p368
aV1980s
p369
aV1990s
p370
aV2000s
p371
asVMN0000864209
p372
(lp373
V1950s
p374
aV1960s
p375
aV1970s
p376
aV1980s
p377
aV1990s
p378
aV2000s
p379
aV2010s
p380
asVMN0000289599
p381
(lp382
V1990s
p383
aV2000s
p384
aV2010s
p385
asVMN0000658950
p386
(lp387
V1980s
p388
aV1990s
p389
aV2000s
p390
aV2010s
p391
asVMN0000664817
p392
(lp393
V1970s
p394
aV1980s
p395
aV1990s
p396
aV2000s
p397
aV2010s
p398
asVMN0000303506
p399
(lp400
V1990s
p401
aV2000s
p402
aV2010s
p403
asVMN0000829523
p404
(lp405
V1980s
p406
aV1990s
p407
aV2000s
p408
aV2010s
p409
asVMN0000145180
p410
(lp411
V1960s
p412
aV1970s
p413
aV1980s
p414
aV1990s
p415
aV2000s
p416
aV2010s
p417
asVMN0000215058
p418
(lp419
V1990s
p420
aV2000s
p421
aV2010s
p422
asVMN0001176481
p423
(lp424
V1970s
p425
aV1980s
p426
aV1990s
p427
asVMN0000355998
p428
(lp429
V2000s
p430
aV2010s
p431
asVMN0000086729
p432
(lp433
V1960s
p434
asVMN0000610880
p435
(lp436
V1990s
p437
aV2000s
p438
aV2010s
p439
asVMN0000013393
p440
(lp441
V1960s
p442
aV1970s
p443
aV1980s
p444
aV1990s
p445
aV2000s
p446
aV2010s
p447
asVMN0000165818
p448
(lp449
V1960s
p450
aV1970s
p451
aV1980s
p452
aV1990s
p453
aV2000s
p454
aV2010s
p455
asVMN0000068934
p456
(lp457
V1970s
p458
aV1980s
p459
aV1990s
p460
aV2000s
p461
aV2010s
p462
asVMN0000678009
p463
(lp464
V1940s
p465
aV1950s
p466
aV1960s
p467
aV1970s
p468
aV1980s
p469
asVMN0000923745
p470
(lp471
V1990s
p472
aV2000s
p473
aV2010s
p474
asVMN0000319347
p475
(lp476
V1990s
p477
aV2000s
p478
aV2010s
p479
asVMN0000234647
p480
(lp481
V1990s
p482
aV2000s
p483
aV2010s
p484
asVMN0000622805
p485
(lp486
V1960s
p487
aV1970s
p488
aV1980s
p489
aV1990s
p490
aV2000s
p491
aV2010s
p492
asVMN0000963005
p493
(lp494
V1980s
p495
aV1990s
p496
aV2000s
p497
aV2010s
p498
asVMN0000089710
p499
(lp500
V1950s
p501
aV1960s
p502
aV1970s
p503
aV1980s
p504
aV1990s
p505
aV2000s
p506
aV2010s
p507
asVMN0000766893
p508
(lp509
V1950s
p510
aV1960s
p511
aV1970s
p512
aV1980s
p513
aV1990s
p514
aV2000s
p515
aV2010s
p516
asVMN0000083095
p517
(lp518
V1990s
p519
aV2000s
p520
aV2010s
p521
asVMN0000749970
p522
(lp523
V1950s
p524
aV1960s
p525
aV1970s
p526
aV1980s
p527
aV1990s
p528
aV2000s
p529
aV2010s
p530
asVMN0000145920
p531
(lp532
V1970s
p533
asVMN0000662797
p534
(lp535
V1990s
p536
aV2000s
p537
aV2010s
p538
asVMN0000354722
p539
(lp540
V1980s
p541
aV1990s
p542
aV2000s
p543
aV2010s
p544
asVMN0000334740
p545
(lp546
V1960s
p547
aV1970s
p548
aV1980s
p549
aV1990s
p550
aV2000s
p551
aV2010s
p552
asVMN0000327735
p553
(lp554
V1960s
p555
aV1970s
p556
aV1980s
p557
aV1990s
p558
aV2000s
p559
aV2010s
p560
asVMN0000039637
p561
(lp562
V1980s
p563
aV1990s
p564
aV2000s
p565
aV2010s
p566
asVMN0001497537
p567
(lp568
V2000s
p569
asVMN0000816890
p570
(lp571
V1950s
p572
aV1960s
p573
aV1970s
p574
aV1980s
p575
aV1990s
p576
aV2000s
p577
asVMN0000749175
p578
(lp579
V1950s
p580
aV1960s
p581
aV1970s
p582
aV1980s
p583
aV1990s
p584
aV2000s
p585
asVMN0000105354
p586
(lp587
V1970s
p588
aV1980s
p589
aV1990s
p590
aV2000s
p591
aV2010s
p592
asVMN0000575012
p593
(lp594
V1950s
p595
aV1960s
p596
aV1970s
p597
aV1980s
p598
aV1990s
p599
aV2000s
p600
aV2010s
p601
asVMN0000290590
p602
(lp603
V1980s
p604
aV1990s
p605
aV2000s
p606
aV2010s
p607
asVMN0000346336
p608
(lp609
V1960s
p610
aV1970s
p611
aV1980s
p612
aV1990s
p613
aV2000s
p614
aV2010s
p615
asVMN0000892771
p616
(lp617
V1960s
p618
aV1970s
p619
aV1980s
p620
aV1990s
p621
aV2000s
p622
aV2010s
p623
asVMN0000463435
p624
(lp625
V1960s
p626
aV1970s
p627
aV1980s
p628
aV1990s
p629
aV2000s
p630
aV2010s
p631
asVMN0000820434
p632
(lp633
V1980s
p634
aV1990s
p635
aV2000s
p636
asVMN0000210991
p637
(lp638
V1990s
p639
aV2000s
p640
aV2010s
p641
asVMN0000180228
p642
(lp643
V1950s
p644
aV1960s
p645
aV1970s
p646
asVMN0000246628
p647
(lp648
V1950s
p649
aV1960s
p650
aV1970s
p651
aV1990s
p652
aV2000s
p653
aV2010s
p654
asVMN0000349180
p655
(lp656
V1970s
p657
aV1980s
p658
aV1990s
p659
aV2000s
p660
aV2010s
p661
asVMN0000359119
p662
(lp663
V1980s
p664
aV1990s
p665
aV2000s
p666
aV2010s
p667
asVMN0000208076
p668
(lp669
V1970s
p670
aV1980s
p671
aV1990s
p672
aV2000s
p673
asVMN0000390477
p674
(lp675
V1980s
p676
aV1990s
p677
aV2000s
p678
aV2010s
p679
asVMN0000301404
p680
(lp681
V1960s
p682
aV1970s
p683
aV1980s
p684
aV1990s
p685
aV2000s
p686
aV2010s
p687
asVMN0000176332
p688
(lp689
V1990s
p690
aV2000s
p691
aV2010s
p692
asVMN0000674332
p693
(lp694
V1950s
p695
aV1960s
p696
aV1970s
p697
aV1980s
p698
aV1990s
p699
aV2000s
p700
aV2010s
p701
asVMN0000158540
p702
(lp703
V2000s
p704
aV2010s
p705
asVMN0000673933
p706
(lp707
V1990s
p708
aV2000s
p709
aV2010s
p710
asVMN0000046120
p711
(lp712
V1960s
p713
aV1970s
p714
asVMN0000861252
p715
(lp716
V2000s
p717
aV2010s
p718
asVMN0000249559
p719
(lp720
V1990s
p721
aV2000s
p722
aV2010s
p723
asVMN0000495861
p724
(lp725
V1990s
p726
aV2000s
p727
aV2010s
p728
asVMN0000147315
p729
(lp730
V1980s
p731
aV1990s
p732
aV2000s
p733
aV2010s
p734
asVMN0000926108
p735
(lp736
V1990s
p737
aV2000s
p738
aV2010s
p739
asVMN0000087985
p740
(lp741
V1960s
p742
aV1970s
p743
aV1980s
p744
aV1990s
p745
aV2000s
p746
aV2010s
p747
asVMN0000204386
p748
(lp749
V1960s
p750
aV1970s
p751
aV1980s
p752
aV1990s
p753
aV2000s
p754
aV2010s
p755
asVMN0000342004
p756
(lp757
V1990s
p758
aV2000s
p759
aV2010s
p760
asVMN0000987777
p761
(lp762
V1990s
p763
aV2000s
p764
aV2010s
p765
asVMN0000466759
p766
(lp767
V1980s
p768
aV1990s
p769
aV2000s
p770
aV2010s
p771
asVMN0000795053
p772
(lp773
V2000s
p774
aV2010s
p775
asVMN0000206241
p776
(lp777
V1980s
p778
aV1990s
p779
aV2000s
p780
asVMN0000295756
p781
(lp782
V1960s
p783
aV1970s
p784
aV1980s
p785
aV1990s
p786
aV2000s
p787
aV2010s
p788
asVMN0000840050
p789
(lp790
V1970s
p791
aV1980s
p792
aV1990s
p793
aV2000s
p794
aV2010s
p795
asVMN0000639304
p796
(lp797
V1990s
p798
asVMN0000634180
p799
(lp800
V1990s
p801
aV2000s
p802
aV2010s
p803
asVMN0000038466
p804
(lp805
V1940s
p806
aV1950s
p807
aV1960s
p808
aV1970s
p809
aV1980s
p810
aV1990s
p811
aV2000s
p812
aV2010s
p813
asVMN0000339624
p814
(lp815
V1970s
p816
aV1980s
p817
aV1990s
p818
aV2000s
p819
aV2010s
p820
asVMN0000125352
p821
(lp822
V1960s
p823
aV1970s
p824
aV1980s
p825
aV1990s
p826
aV2000s
p827
aV2010s
p828
asVMN0000411761
p829
(lp830
V1950s
p831
aV1960s
p832
aV1970s
p833
aV1980s
p834
aV1990s
p835
aV2000s
p836
asVMN0000210323
p837
(lp838
V1960s
p839
aV1970s
p840
aV1980s
p841
asVMN0000302106
p842
(lp843
V1980s
p844
aV1990s
p845
aV2000s
p846
aV2010s
p847
asVMN0000196976
p848
(lp849
V2000s
p850
aV2010s
p851
asVMN0000895677
p852
(lp853
V2000s
p854
aV2010s
p855
asVMN0000670057
p856
(lp857
V1960s
p858
aV1970s
p859
aV1980s
p860
aV1990s
p861
asVMN0000617104
p862
(lp863
V2000s
p864
asVMN0000291687
p865
(lp866
V1980s
p867
asVMN0000760977
p868
(lp869
V1960s
p870
aV1970s
p871
aV1980s
p872
asVMN0000080494
p873
(lp874
V1990s
p875
aV2000s
p876
aV2010s
p877
asVMN0000347151
p878
(lp879
V1990s
p880
aV2000s
p881
aV2010s
p882
asVMN0000118664
p883
(lp884
V1980s
p885
aV1990s
p886
aV2000s
p887
aV2010s
p888
asVMN0000504815
p889
(lp890
V1950s
p891
aV1960s
p892
aV1970s
p893
aV1980s
p894
aV1990s
p895
aV2000s
p896
aV2010s
p897
asVMN0000180617
p898
(lp899
V1990s
p900
aV2000s
p901
aV2010s
p902
asVMN0000283405
p903
(lp904
V1980s
p905
aV1990s
p906
aV2000s
p907
aV2010s
p908
asVMN0000068551
p909
(lp910
V1990s
p911
aV2000s
p912
aV2010s
p913
asVMN0000147635
p914
(lp915
V1970s
p916
aV1980s
p917
aV1990s
p918
aV2000s
p919
aV2010s
p920
asVMN0000128099
p921
(lp922
V1950s
p923
aV1960s
p924
aV1970s
p925
aV1980s
p926
aV1990s
p927
aV2000s
p928
asVMN0000081832
p929
(lp930
V1970s
p931
aV1980s
p932
aV1990s
p933
aV2000s
p934
aV2010s
p935
asVMN0000286518
p936
(lp937
V1980s
p938
aV1990s
p939
asVMN0000037730
p940
(lp941
V1990s
p942
aV2000s
p943
aV2010s
p944
asVMN0000078044
p945
(lp946
V1960s
p947
aV1970s
p948
aV1980s
p949
aV1990s
p950
aV2000s
p951
aV2010s
p952
asVMN0000566430
p953
(lp954
V1990s
p955
aV2000s
p956
aV2010s
p957
asVMN0000868616
p958
(lp959
V1990s
p960
aV2000s
p961
aV2010s
p962
asVMN0000655746
p963
(lp964
V1990s
p965
aV2000s
p966
aV2010s
p967
asVMN0000246960
p968
(lp969
V1980s
p970
asVMN0000007689
p971
(lp972
V1990s
p973
aV2000s
p974
asVMN0000682056
p975
(lp976
V1990s
p977
aV2000s
p978
aV2010s
p979
asVMN0000368112
p980
(lp981
V1990s
p982
aV2000s
p983
aV2010s
p984
asVMN0000359026
p985
(lp986
V1980s
p987
aV1990s
p988
aV2000s
p989
aV2010s
p990
asVMN0000894847
p991
(lp992
V1970s
p993
aV1980s
p994
aV1990s
p995
aV2000s
p996
aV2010s
p997
asVMN0000568709
p998
(lp999
V1990s
p1000
aV2000s
p1001
aV2010s
p1002
asVMN0000325401
p1003
(lp1004
V1930s
p1005
aV1940s
p1006
aV1950s
p1007
aV1960s
p1008
aV1970s
p1009
aV1980s
p1010
aV1990s
p1011
aV2000s
p1012
aV2010s
p1013
asVMN0000537548
p1014
(lp1015
V1980s
p1016
aV1990s
p1017
aV2000s
p1018
aV2010s
p1019
asVMN0000287407
p1020
(lp1021
V1990s
p1022
aV2000s
p1023
aV2010s
p1024
asVMN0000610339
p1025
(lp1026
V1980s
p1027
aV1990s
p1028
aV2000s
p1029
aV2010s
p1030
asVMN0000179730
p1031
(lp1032
V1950s
p1033
aV1960s
p1034
aV1970s
p1035
aV1980s
p1036
aV1990s
p1037
asVMN0000266063
p1038
(lp1039
V2000s
p1040
aV2010s
p1041
asVMN0000165011
p1042
(lp1043
V1960s
p1044
aV1970s
p1045
aV1980s
p1046
aV1990s
p1047
aV2000s
p1048
aV2010s
p1049
asVMN0000133719
p1050
(lp1051
V1980s
p1052
aV1990s
p1053
aV2000s
p1054
aV2010s
p1055
asVMN0000801762
p1056
(lp1057
V1950s
p1058
aV1960s
p1059
aV1970s
p1060
aV1980s
p1061
aV1990s
p1062
asVMN0000490738
p1063
(lp1064
V1990s
p1065
aV2000s
p1066
aV2010s
p1067
asVMN0000503242
p1068
(lp1069
V2000s
p1070
aV2010s
p1071
asVMN0000006334
p1072
(lp1073
V1940s
p1074
aV1950s
p1075
aV1960s
p1076
aV1970s
p1077
aV1980s
p1078
aV1990s
p1079
aV2000s
p1080
aV2010s
p1081
asVMN0000884962
p1082
(lp1083
V1980s
p1084
aV1990s
p1085
aV2000s
p1086
aV2010s
p1087
asVMN0000262255
p1088
(lp1089
V1980s
p1090
aV1990s
p1091
aV2000s
p1092
aV2010s
p1093
asVMN0000246885
p1094
(lp1095
V1950s
p1096
aV1960s
p1097
aV1970s
p1098
aV1980s
p1099
aV1990s
p1100
aV2000s
p1101
aV2010s
p1102
asVMN0000577235
p1103
(lp1104
V1940s
p1105
aV1950s
p1106
aV1960s
p1107
aV1970s
p1108
aV1980s
p1109
aV1990s
p1110
asVMN0000052900
p1111
(lp1112
V1960s
p1113
aV1980s
p1114
aV1990s
p1115
asVMN0000409954
p1116
(lp1117
V1940s
p1118
aV1950s
p1119
aV1960s
p1120
aV1970s
p1121
aV1980s
p1122
aV1990s
p1123
aV2000s
p1124
aV2010s
p1125
asVMN0000924176
p1126
(lp1127
V2000s
p1128
aV2010s
p1129
asVMN0000935330
p1130
(lp1131
V1980s
p1132
aV1990s
p1133
aV2000s
p1134
aV2010s
p1135
asVMN0000488908
p1136
(lp1137
V1990s
p1138
aV2000s
p1139
aV2010s
p1140
asVMN0000279337
p1141
(lp1142
V1980s
p1143
aV1990s
p1144
aV2000s
p1145
aV2010s
p1146
asVMN0000746302
p1147
(lp1148
V1990s
p1149
aV2000s
p1150
aV2010s
p1151
asVMN0000855531
p1152
(lp1153
V1950s
p1154
aV1960s
p1155
aV1970s
p1156
aV1980s
p1157
aV1990s
p1158
aV2000s
p1159
aV2010s
p1160
asVMN0000064303
p1161
(lp1162
V1960s
p1163
aV1970s
p1164
aV1980s
p1165
asVMN0000218994
p1166
(lp1167
V1970s
p1168
aV1980s
p1169
aV1990s
p1170
aV2000s
p1171
aV2010s
p1172
asVMN0000420381
p1173
(lp1174
V1990s
p1175
aV2000s
p1176
aV2010s
p1177
asVMN0000633078
p1178
(lp1179
V1980s
p1180
aV1990s
p1181
aV2000s
p1182
aV2010s
p1183
asVMN0000228715
p1184
(lp1185
V1970s
p1186
aV2000s
p1187
aV2010s
p1188
asVMN0000673486
p1189
(lp1190
V1980s
p1191
aV1990s
p1192
aV2000s
p1193
aV2010s
p1194
asVMN0000383853
p1195
(lp1196
V1980s
p1197
aV1990s
p1198
aV2000s
p1199
aV2010s
p1200
asVMN0000007448
p1201
(lp1202
V1960s
p1203
aV1970s
p1204
aV1980s
p1205
aV1990s
p1206
aV2000s
p1207
asVMN0000089058
p1208
(lp1209
V1970s
p1210
aV1980s
p1211
aV1990s
p1212
aV2000s
p1213
aV2010s
p1214
asVMN0000166291
p1215
(lp1216
V1990s
p1217
aV2000s
p1218
aV2010s
p1219
asVMN0000732709
p1220
(lp1221
V1990s
p1222
aV2000s
p1223
aV2010s
p1224
asVMN0000671953
p1225
(lp1226
V1970s
p1227
aV1980s
p1228
aV1990s
p1229
aV2000s
p1230
aV2010s
p1231
asVMN0000167878
p1232
(lp1233
V2000s
p1234
asVMN0000106514
p1235
(lp1236
V1960s
p1237
aV1970s
p1238
aV1980s
p1239
aV1990s
p1240
aV2000s
p1241
as.