(dp0
VMN0000117064
p1
(lp2
V1950s
p3
aV1960s
p4
aV1970s
p5
aV1980s
p6
aV1990s
p7
aV2000s
p8
aV2010s
p9
asVMN0000811622
p10
(lp11
V1960s
p12
aV1970s
p13
aV1980s
p14
aV1990s
p15
asVMN0000781172
p16
(lp17
V1950s
p18
aV1960s
p19
aV1970s
p20
aV1980s
p21
aV1990s
p22
aV2000s
p23
asVMN0000869649
p24
(lp25
V1990s
p26
aV2000s
p27
aV2010s
p28
asVMN0000135152
p29
(lp30
V1990s
p31
aV2000s
p32
aV2010s
p33
asVMN0000925066
p34
(lp35
V1990s
p36
aV2000s
p37
aV2010s
p38
asVMN0000809527
p39
(lp40
V1990s
p41
aV2010s
p42
asVMN0000477875
p43
(lp44
V1950s
p45
aV1960s
p46
aV1970s
p47
asVMN0002453941
p48
(lp49
V2000s
p50
aV2010s
p51
asVMN0000128440
p52
(lp53
V1970s
p54
aV1980s
p55
aV1990s
p56
aV2000s
p57
aV2010s
p58
asVMN0000198162
p59
(lp60
V1950s
p61
aV1960s
p62
aV1970s
p63
aV1980s
p64
aV1990s
p65
aV2000s
p66
asVMN0000170211
p67
(lp68
V1950s
p69
aV1960s
p70
aV1970s
p71
aV1980s
p72
aV1990s
p73
asVMN0000033481
p74
(lp75
V1990s
p76
aV2000s
p77
aV2010s
p78
asVMN0000239921
p79
(lp80
V1980s
p81
aV1990s
p82
aV2000s
p83
aV2010s
p84
asVMN0000820434
p85
(lp86
V1980s
p87
aV1990s
p88
aV2000s
p89
asVMN0000181376
p90
(lp91
V1970s
p92
aV1980s
p93
aV1990s
p94
aV2000s
p95
aV2010s
p96
asVMN0000098081
p97
(lp98
V1950s
p99
aV1960s
p100
aV1970s
p101
aV1980s
p102
aV1990s
p103
aV2000s
p104
aV2010s
p105
asVMN0000338887
p106
(lp107
V1950s
p108
aV1960s
p109
aV1970s
p110
aV1980s
p111
aV1990s
p112
asVMN0000780258
p113
(lp114
V1990s
p115
aV2000s
p116
aV2010s
p117
asVMN0000079796
p118
(lp119
V1970s
p120
aV1980s
p121
aV1990s
p122
asVMN0000692251
p123
(lp124
V1960s
p125
aV1970s
p126
aV1980s
p127
asVMN0000185669
p128
(lp129
V1960s
p130
aV1970s
p131
aV1980s
p132
aV1990s
p133
aV2000s
p134
aV2010s
p135
asVMN0000306258
p136
(lp137
V1990s
p138
aV2000s
p139
aV2010s
p140
asVMN0000489303
p141
(lp142
V1960s
p143
aV2010s
p144
asVMN0000112789
p145
(lp146
V1990s
p147
aV2000s
p148
aV2010s
p149
asVMN0000495366
p150
(lp151
V1970s
p152
aV1980s
p153
aV1990s
p154
aV2000s
p155
aV2010s
p156
asVMN0000334644
p157
(lp158
V1950s
p159
aV1960s
p160
aV1970s
p161
aV1980s
p162
aV1990s
p163
aV2000s
p164
asVMN0000852855
p165
(lp166
V1970s
p167
aV1980s
p168
aV2000s
p169
aV2010s
p170
asVMN0000147200
p171
(lp172
V1950s
p173
aV1960s
p174
aV1970s
p175
aV1980s
p176
aV1990s
p177
aV2000s
p178
aV2010s
p179
asVMN0000251361
p180
(lp181
V1970s
p182
aV1980s
p183
aV2000s
p184
aV2010s
p185
asVMN0000393031
p186
(lp187
V1960s
p188
aV1970s
p189
aV1980s
p190
aV2000s
p191
aV2010s
p192
asVMN0000394931
p193
(lp194
V1960s
p195
aV1970s
p196
aV1980s
p197
aV1990s
p198
aV2000s
p199
aV2010s
p200
asVMN0000770059
p201
(lp202
V1990s
p203
asVMN0000325459
p204
(lp205
V1980s
p206
aV1990s
p207
aV2000s
p208
aV2010s
p209
asVMN0000167361
p210
(lp211
V1990s
p212
aV2000s
p213
aV2010s
p214
asVMN0000270491
p215
(lp216
V1960s
p217
aV1970s
p218
aV1980s
p219
aV1990s
p220
aV2000s
p221
aV2010s
p222
asVMN0000158309
p223
(lp224
V1970s
p225
aV1980s
p226
aV1990s
p227
aV2000s
p228
aV2010s
p229
asVMN0000789064
p230
(lp231
V1980s
p232
aV1990s
p233
asVMN0000782163
p234
(lp235
V1990s
p236
aV2000s
p237
aV2010s
p238
asVMN0000628467
p239
(lp240
V1990s
p241
aV2000s
p242
aV2010s
p243
asVMN0000739742
p244
(lp245
V2000s
p246
aV2010s
p247
asVMN0000367188
p248
(lp249
V2000s
p250
aV2010s
p251
asVMN0000481057
p252
(lp253
V1970s
p254
aV1980s
p255
aV1990s
p256
aV2000s
p257
aV2010s
p258
asVMN0000548196
p259
(lp260
V1990s
p261
aV2000s
p262
aV2010s
p263
asVMN0000873085
p264
(lp265
V1970s
p266
aV1980s
p267
aV1990s
p268
asVMN0000130028
p269
(lp270
V1970s
p271
aV1980s
p272
aV1990s
p273
asVMN0000864209
p274
(lp275
V1950s
p276
aV1960s
p277
aV1970s
p278
aV1980s
p279
aV1990s
p280
aV2000s
p281
aV2010s
p282
asVMN0001930721
p283
(lp284
V1990s
p285
aV2000s
p286
asVMN0000784732
p287
(lp288
V1970s
p289
aV1980s
p290
aV1990s
p291
aV2000s
p292
aV2010s
p293
asVMN0000473554
p294
(lp295
V1960s
p296
aV1970s
p297
aV1980s
p298
aV1990s
p299
aV2000s
p300
aV2010s
p301
asVMN0000484880
p302
(lp303
V2000s
p304
aV2010s
p305
asVMN0001176481
p306
(lp307
V1970s
p308
aV1980s
p309
aV1990s
p310
asVMN0000759187
p311
(lp312
V1990s
p313
aV2000s
p314
aV2010s
p315
asVMN0000200968
p316
(lp317
V1960s
p318
aV1970s
p319
aV1980s
p320
aV1990s
p321
aV2000s
p322
aV2010s
p323
asVMN0000048300
p324
(lp325
V1960s
p326
aV1970s
p327
aV1980s
p328
aV1990s
p329
aV2000s
p330
aV2010s
p331
asVMN0000920338
p332
(lp333
V1990s
p334
aV2000s
p335
asVMN0000084446
p336
(lp337
V2000s
p338
aV2010s
p339
asVMN0000319347
p340
(lp341
V1990s
p342
aV2000s
p343
aV2010s
p344
asVMN0000846634
p345
(lp346
V2000s
p347
aV2010s
p348
asVMN0000566602
p349
(lp350
V1960s
p351
aV1970s
p352
aV1980s
p353
aV1990s
p354
aV2000s
p355
aV2010s
p356
asVMN0000671746
p357
(lp358
V1960s
p359
aV1970s
p360
aV1980s
p361
aV1990s
p362
asVMN0000366164
p363
(lp364
V1960s
p365
aV1970s
p366
aV1980s
p367
aV1990s
p368
aV2000s
p369
asVMN0000266151
p370
(lp371
V1980s
p372
aV1990s
p373
aV2000s
p374
aV2010s
p375
asVMN0000609396
p376
(lp377
V1960s
p378
aV1970s
p379
aV1980s
p380
aV1990s
p381
aV2000s
p382
aV2010s
p383
asVMN0000746915
p384
(lp385
V1970s
p386
aV1980s
p387
aV1990s
p388
aV2000s
p389
aV2010s
p390
asVMN0001346105
p391
(lp392
V1960s
p393
aV1970s
p394
aV1980s
p395
aV1990s
p396
asVMN0000659299
p397
(lp398
V1990s
p399
aV2000s
p400
aV2010s
p401
asVMN0000502371
p402
(lp403
V1990s
p404
aV2000s
p405
aV2010s
p406
asVMN0000424296
p407
(lp408
V1960s
p409
aV1970s
p410
aV1980s
p411
aV1990s
p412
aV2000s
p413
asVMN0000077223
p414
(lp415
V1980s
p416
aV1990s
p417
aV2000s
p418
aV2010s
p419
asVMN0000816890
p420
(lp421
V1950s
p422
aV1960s
p423
aV1970s
p424
aV1980s
p425
aV1990s
p426
aV2000s
p427
asVMN0000084209
p428
(lp429
V1970s
p430
aV1980s
p431
aV1990s
p432
aV2000s
p433
aV2010s
p434
asVMN0000257181
p435
(lp436
V1960s
p437
aV1970s
p438
aV1990s
p439
aV2000s
p440
asVMN0000089482
p441
(lp442
V1950s
p443
aV1960s
p444
aV1970s
p445
aV1980s
p446
aV1990s
p447
aV2000s
p448
aV2010s
p449
asVMN0000295756
p450
(lp451
V1960s
p452
aV1970s
p453
aV1980s
p454
aV1990s
p455
aV2000s
p456
aV2010s
p457
asVMN0000021008
p458
(lp459
V1990s
p460
aV2000s
p461
asVMN0000892771
p462
(lp463
V1960s
p464
aV1970s
p465
aV1980s
p466
aV1990s
p467
aV2000s
p468
aV2010s
p469
asVMN0000585249
p470
(lp471
V1970s
p472
aV1980s
p473
aV1990s
p474
aV2000s
p475
aV2010s
p476
asVMN0000186805
p477
(lp478
V1960s
p479
aV1970s
p480
aV1980s
p481
aV1990s
p482
aV2000s
p483
aV2010s
p484
asVMN0000180228
p485
(lp486
V1950s
p487
aV1960s
p488
aV1970s
p489
asVMN0000884251
p490
(lp491
V2000s
p492
aV2010s
p493
asVMN0000359613
p494
(lp495
V1960s
p496
aV1970s
p497
aV1980s
p498
aV1990s
p499
aV2000s
p500
aV2010s
p501
asVMN0000766094
p502
(lp503
V1960s
p504
aV1970s
p505
aV1980s
p506
aV1990s
p507
aV2010s
p508
asVMN0000132856
p509
(lp510
V1980s
p511
aV1990s
p512
aV2000s
p513
aV2010s
p514
asVMN0000121157
p515
(lp516
V1950s
p517
aV1960s
p518
aV1970s
p519
aV1980s
p520
aV1990s
p521
aV2000s
p522
aV2010s
p523
asVMN0000208076
p524
(lp525
V1970s
p526
aV1980s
p527
aV1990s
p528
aV2000s
p529
asVMN0000640042
p530
(lp531
V1980s
p532
aV1990s
p533
aV2000s
p534
aV2010s
p535
asVMN0000927650
p536
(lp537
V1980s
p538
aV1990s
p539
aV2000s
p540
asVMN0000249554
p541
(lp542
V1960s
p543
asVMN0000141774
p544
(lp545
V1980s
p546
aV1990s
p547
aV2000s
p548
aV2010s
p549
asVMN0000256349
p550
(lp551
V1940s
p552
aV1950s
p553
aV1960s
p554
aV1970s
p555
aV1980s
p556
aV1990s
p557
aV2000s
p558
asVMN0000796700
p559
(lp560
V1950s
p561
aV1960s
p562
aV1970s
p563
aV1980s
p564
aV1990s
p565
aV2000s
p566
asVMN0000022928
p567
(lp568
V1960s
p569
aV1970s
p570
aV1980s
p571
aV1990s
p572
aV2000s
p573
aV2010s
p574
asVMN0000181914
p575
(lp576
V1970s
p577
aV1980s
p578
aV1990s
p579
aV2000s
p580
aV2010s
p581
asVMN0000794449
p582
(lp583
V1950s
p584
aV1960s
p585
aV1970s
p586
aV1980s
p587
aV1990s
p588
aV2000s
p589
aV2010s
p590
asVMN0000508443
p591
(lp592
V1970s
p593
aV1980s
p594
aV1990s
p595
aV2000s
p596
aV2010s
p597
asVMN0000147315
p598
(lp599
V1980s
p600
aV1990s
p601
aV2000s
p602
aV2010s
p603
asVMN0000945196
p604
(lp605
V1960s
p606
aV1970s
p607
aV1980s
p608
aV1990s
p609
aV2000s
p610
aV2010s
p611
asVMN0000155116
p612
(lp613
V1960s
p614
aV1970s
p615
asVMN0000125561
p616
(lp617
V1980s
p618
aV1990s
p619
aV2000s
p620
asVMN0000814898
p621
(lp622
V1960s
p623
aV1970s
p624
aV1980s
p625
asVMN0000827760
p626
(lp627
V1980s
p628
aV1990s
p629
aV2000s
p630
asVMN0000574597
p631
(lp632
V1980s
p633
aV1990s
p634
aV2000s
p635
asVMN0000811598
p636
(lp637
V1950s
p638
aV1960s
p639
aV1970s
p640
aV1980s
p641
aV1990s
p642
asVMN0000293896
p643
(lp644
V1960s
p645
aV1970s
p646
aV1980s
p647
aV1990s
p648
aV2000s
p649
aV2010s
p650
asVMN0000028772
p651
(lp652
V1960s
p653
aV1970s
p654
aV1980s
p655
aV1990s
p656
aV2000s
p657
aV2010s
p658
asVMN0000170879
p659
(lp660
V2000s
p661
aV2010s
p662
asVMN0000927555
p663
(lp664
V1950s
p665
aV1960s
p666
aV1970s
p667
aV1980s
p668
aV1990s
p669
aV2000s
p670
aV2010s
p671
asVMN0000225413
p672
(lp673
V1990s
p674
asVMN0000144847
p675
(lp676
V1970s
p677
aV1980s
p678
aV1990s
p679
aV2000s
p680
aV2010s
p681
asVMN0000382880
p682
(lp683
V1970s
p684
aV1980s
p685
asVMN0000816844
p686
(lp687
V2000s
p688
aV2010s
p689
asVMN0000932665
p690
(lp691
V1990s
p692
aV2000s
p693
aV2010s
p694
asVMN0000264350
p695
(lp696
V1990s
p697
aV2000s
p698
aV2010s
p699
asVMN0000260212
p700
(lp701
V1980s
p702
aV1990s
p703
aV2000s
p704
aV2010s
p705
asVMN0000937703
p706
(lp707
V1950s
p708
aV1960s
p709
aV1970s
p710
aV1980s
p711
aV1990s
p712
aV2000s
p713
aV2010s
p714
asVMN0000744442
p715
(lp716
V1970s
p717
aV1980s
p718
aV1990s
p719
aV2000s
p720
aV2010s
p721
asVMN0000578730
p722
(lp723
V1960s
p724
asVMN0000021334
p725
(lp726
V1960s
p727
aV1970s
p728
aV1980s
p729
aV1990s
p730
aV2000s
p731
aV2010s
p732
asVMN0000316834
p733
(lp734
V1950s
p735
aV1960s
p736
aV1970s
p737
aV1980s
p738
asVMN0000933883
p739
(lp740
V1960s
p741
aV1970s
p742
aV1980s
p743
aV1990s
p744
aV2000s
p745
aV2010s
p746
asVMN0000169818
p747
(lp748
V1990s
p749
aV2000s
p750
aV2010s
p751
asVMN0000281254
p752
(lp753
V1990s
p754
aV2000s
p755
aV2010s
p756
asVMN0000062412
p757
(lp758
V1990s
p759
aV2000s
p760
aV2010s
p761
asVMN0000327735
p762
(lp763
V1960s
p764
aV1970s
p765
aV1980s
p766
aV1990s
p767
aV2000s
p768
aV2010s
p769
asVMN0000359026
p770
(lp771
V1980s
p772
aV1990s
p773
aV2000s
p774
aV2010s
p775
asVMN0000745915
p776
(lp777
V1950s
p778
aV1960s
p779
aV1970s
p780
aV1980s
p781
aV1990s
p782
aV2000s
p783
aV2010s
p784
asVMN0000546214
p785
(lp786
V1980s
p787
aV1990s
p788
aV2000s
p789
aV2010s
p790
asVMN0000101072
p791
(lp792
V2000s
p793
aV2010s
p794
asVMN0000149558
p795
(lp796
V1960s
p797
aV1990s
p798
asVMN0000751019
p799
(lp800
V1960s
p801
aV1970s
p802
aV1980s
p803
asVMN0000146755
p804
(lp805
V1980s
p806
aV1990s
p807
aV2000s
p808
aV2010s
p809
asVMN0000807869
p810
(lp811
V1990s
p812
aV2000s
p813
aV2010s
p814
asVMN0000019133
p815
(lp816
V1970s
p817
aV1980s
p818
aV1990s
p819
aV2000s
p820
aV2010s
p821
asVMN0000252315
p822
(lp823
V1990s
p824
aV2000s
p825
aV2010s
p826
asVMN0000351733
p827
(lp828
V1980s
p829
aV1990s
p830
aV2000s
p831
aV2010s
p832
asVMN0000933781
p833
(lp834
V1960s
p835
aV1970s
p836
aV1980s
p837
aV1990s
p838
aV2000s
p839
aV2010s
p840
asVMN0000165011
p841
(lp842
V1960s
p843
aV1970s
p844
aV1980s
p845
aV1990s
p846
aV2000s
p847
aV2010s
p848
asVMN0000136075
p849
(lp850
V1950s
p851
aV1960s
p852
aV1970s
p853
aV1980s
p854
aV1990s
p855
aV2000s
p856
aV2010s
p857
asVMN0002901281
p858
(lp859
V2010s
p860
asVMN0000069534
p861
(lp862
V1980s
p863
aV1990s
p864
aV2000s
p865
aV2010s
p866
asVMN0000490738
p867
(lp868
V1990s
p869
aV2000s
p870
aV2010s
p871
asVMN0000370484
p872
(lp873
V1980s
p874
aV1990s
p875
aV2000s
p876
aV2010s
p877
asVMN0000136640
p878
(lp879
V1960s
p880
aV1970s
p881
aV1980s
p882
aV1990s
p883
asVMN0000554963
p884
(lp885
V1970s
p886
aV1980s
p887
asVMN0000062002
p888
(lp889
V1970s
p890
aV1980s
p891
aV1990s
p892
aV2000s
p893
asVMN0000661524
p894
(lp895
V1970s
p896
aV1980s
p897
aV1990s
p898
aV2000s
p899
aV2010s
p900
asVMN0000563390
p901
(lp902
V2000s
p903
aV2010s
p904
asVMN0000245049
p905
(lp906
V1960s
p907
aV1970s
p908
aV1980s
p909
asVMN0000745964
p910
(lp911
V1960s
p912
aV1970s
p913
aV1980s
p914
aV1990s
p915
aV2000s
p916
aV2010s
p917
asVMN0000821675
p918
(lp919
V1980s
p920
aV1990s
p921
aV2000s
p922
aV2010s
p923
asVMN0000806542
p924
(lp925
V1950s
p926
aV1960s
p927
aV1970s
p928
aV1980s
p929
aV1990s
p930
aV2000s
p931
aV2010s
p932
asVMN0000312890
p933
(lp934
V1990s
p935
aV2000s
p936
aV2010s
p937
asVMN0000204386
p938
(lp939
V1960s
p940
aV1970s
p941
aV1980s
p942
aV1990s
p943
aV2000s
p944
aV2010s
p945
asVMN0000154765
p946
(lp947
V1960s
p948
aV1970s
p949
aV1980s
p950
aV1990s
p951
aV2000s
p952
asVMN0000224294
p953
(lp954
V1960s
p955
aV1970s
p956
aV1980s
p957
aV1990s
p958
aV2000s
p959
aV2010s
p960
asVMN0000796734
p961
(lp962
V1960s
p963
aV1970s
p964
aV1980s
p965
aV1990s
p966
aV2000s
p967
aV2010s
p968
asVMN0000082013
p969
(lp970
V1950s
p971
aV1960s
p972
aV1970s
p973
aV2010s
p974
asVMN0000007448
p975
(lp976
V1960s
p977
aV1970s
p978
aV1980s
p979
aV1990s
p980
aV2000s
p981
asVMN0000331910
p982
(lp983
V1960s
p984
aV1970s
p985
aV1980s
p986
asVMN0000151549
p987
(lp988
V1980s
p989
aV1990s
p990
aV2000s
p991
aV2010s
p992
asVMN0000120521
p993
(lp994
V1950s
p995
aV1960s
p996
aV1970s
p997
aV1980s
p998
aV1990s
p999
aV2000s
p1000
aV2010s
p1001
asVMN0000664849
p1002
(lp1003
V1970s
p1004
aV1980s
p1005
aV1990s
p1006
aV2000s
p1007
aV2010s
p1008
as.