(dp0
VMN0000239827
p1
(lp2
V1990s
p3
aV2000s
p4
aV2010s
p5
asVMN0000344609
p6
(lp7
V1980s
p8
aV1990s
p9
aV2000s
p10
aV2010s
p11
asVMN0000748994
p12
(lp13
V1990s
p14
aV2000s
p15
aV2010s
p16
asVMN0000295276
p17
(lp18
V1960s
p19
aV1970s
p20
aV1980s
p21
aV1990s
p22
aV2000s
p23
aV2010s
p24
asVMN0000159805
p25
(lp26
V1980s
p27
aV1990s
p28
asVMN0000390532
p29
(lp30
V1970s
p31
aV1980s
p32
aV1990s
p33
asVMN0000134729
p34
(lp35
V1980s
p36
aV1990s
p37
aV2000s
p38
aV2010s
p39
asVMN0000614598
p40
(lp41
V1990s
p42
aV2000s
p43
aV2010s
p44
asVMN0000492249
p45
(lp46
V1980s
p47
aV1990s
p48
aV2000s
p49
asVMN0000835585
p50
(lp51
V1980s
p52
aV1990s
p53
asVMN0000661795
p54
(lp55
V1990s
p56
aV2000s
p57
aV2010s
p58
asVMN0000852688
p59
(lp60
V1990s
p61
aV2000s
p62
aV2010s
p63
asVMN0000530745
p64
(lp65
V1970s
p66
aV1980s
p67
aV1990s
p68
aV2000s
p69
aV2010s
p70
asVMN0000467382
p71
(lp72
V1980s
p73
aV1990s
p74
aV2000s
p75
aV2010s
p76
asVMN0000373634
p77
(lp78
V1990s
p79
aV2000s
p80
aV2010s
p81
asVMN0000618713
p82
(lp83
V1980s
p84
aV1990s
p85
aV2000s
p86
aV2010s
p87
asVMN0000070800
p88
(lp89
V1970s
p90
aV1980s
p91
aV1990s
p92
aV2000s
p93
aV2010s
p94
asVMN0000036106
p95
(lp96
V1960s
p97
aV1970s
p98
aV1980s
p99
aV1990s
p100
aV2000s
p101
aV2010s
p102
asVMN0000213212
p103
(lp104
V1960s
p105
aV1970s
p106
aV1980s
p107
aV1990s
p108
aV2000s
p109
aV2010s
p110
asVMN0000758444
p111
(lp112
V1980s
p113
aV1990s
p114
aV2000s
p115
aV2010s
p116
asVMN0000775323
p117
(lp118
V1980s
p119
aV1990s
p120
aV2000s
p121
aV2010s
p122
asVMN0000758630
p123
(lp124
V1980s
p125
aV1990s
p126
aV2000s
p127
aV2010s
p128
asVMN0000008828
p129
(lp130
V1990s
p131
aV2000s
p132
aV2010s
p133
asVMN0000128440
p134
(lp135
V1970s
p136
aV1980s
p137
aV1990s
p138
aV2000s
p139
aV2010s
p140
asVMN0000059101
p141
(lp142
V1950s
p143
aV1960s
p144
aV1970s
p145
aV1980s
p146
aV1990s
p147
aV2000s
p148
asVMN0000936425
p149
(lp150
V1960s
p151
aV1970s
p152
aV1980s
p153
aV1990s
p154
aV2000s
p155
aV2010s
p156
asVMN0000406657
p157
(lp158
V1990s
p159
asVMN0000239921
p160
(lp161
V1980s
p162
aV1990s
p163
aV2000s
p164
aV2010s
p165
asVMN0000010458
p166
(lp167
V1980s
p168
aV1990s
p169
aV2000s
p170
aV2010s
p171
asVMN0000883318
p172
(lp173
V1980s
p174
aV1990s
p175
aV2000s
p176
aV2010s
p177
asVMN0000540010
p178
(lp179
V1990s
p180
aV2000s
p181
asVMN0000799053
p182
(lp183
V1960s
p184
aV1970s
p185
aV1980s
p186
aV1990s
p187
aV2000s
p188
aV2010s
p189
asVMN0000866491
p190
(lp191
V1990s
p192
aV2000s
p193
aV2010s
p194
asVMN0000219203
p195
(lp196
V1970s
p197
aV1980s
p198
aV1990s
p199
aV2000s
p200
aV2010s
p201
asVMN0000024944
p202
(lp203
V1970s
p204
aV1980s
p205
aV1990s
p206
aV2000s
p207
aV2010s
p208
asVMN0000776093
p209
(lp210
V1980s
p211
aV1990s
p212
aV2000s
p213
aV2010s
p214
asVMN0000780258
p215
(lp216
V1990s
p217
aV2000s
p218
aV2010s
p219
asVMN0000069986
p220
(lp221
V1950s
p222
aV1960s
p223
aV1970s
p224
aV1980s
p225
aV1990s
p226
aV2000s
p227
aV2010s
p228
asVMN0000069153
p229
(lp230
V1950s
p231
aV1960s
p232
aV1970s
p233
aV1980s
p234
aV1990s
p235
aV2000s
p236
aV2010s
p237
asVMN0000182415
p238
(lp239
V1980s
p240
aV1990s
p241
aV2000s
p242
asVMN0000238322
p243
(lp244
V1980s
p245
aV1990s
p246
aV2000s
p247
aV2010s
p248
asVMN0000222436
p249
(lp250
V1970s
p251
aV1980s
p252
aV1990s
p253
aV2000s
p254
aV2010s
p255
asVMN0000058549
p256
(lp257
V1970s
p258
aV1980s
p259
aV1990s
p260
aV2000s
p261
aV2010s
p262
asVMN0000080780
p263
(lp264
V1990s
p265
aV2000s
p266
aV2010s
p267
asVMN0000209142
p268
(lp269
V1950s
p270
aV1960s
p271
aV1970s
p272
aV1980s
p273
aV1990s
p274
aV2000s
p275
asVMN0000987621
p276
(lp277
V1970s
p278
aV1980s
p279
aV1990s
p280
aV2000s
p281
aV2010s
p282
asVMN0000049026
p283
(lp284
V1990s
p285
aV2000s
p286
aV2010s
p287
asVMN0000832833
p288
(lp289
V1990s
p290
aV2000s
p291
aV2010s
p292
asVMN0000114342
p293
(lp294
V1960s
p295
aV1970s
p296
asVMN0000804703
p297
(lp298
V1980s
p299
asVMN0000184811
p300
(lp301
V1980s
p302
aV1990s
p303
aV2000s
p304
aV2010s
p305
asVMN0000110161
p306
(lp307
V1960s
p308
aV1970s
p309
aV1980s
p310
aV1990s
p311
aV2000s
p312
aV2010s
p313
asVMN0000090124
p314
(lp315
V1980s
p316
aV1990s
p317
asVMN0000103484
p318
(lp319
V1980s
p320
aV1990s
p321
aV2000s
p322
aV2010s
p323
asVMN0000140608
p324
(lp325
V1990s
p326
asVMN0000934069
p327
(lp328
V1950s
p329
aV1960s
p330
aV1970s
p331
aV1980s
p332
aV1990s
p333
aV2000s
p334
aV2010s
p335
asVMN0000341672
p336
(lp337
V1980s
p338
aV1990s
p339
aV2000s
p340
aV2010s
p341
asVMN0000175049
p342
(lp343
V1980s
p344
aV1990s
p345
aV2000s
p346
aV2010s
p347
asVMN0000158309
p348
(lp349
V1970s
p350
aV1980s
p351
aV1990s
p352
aV2000s
p353
aV2010s
p354
asVMN0000337119
p355
(lp356
V1970s
p357
aV1980s
p358
aV1990s
p359
aV2000s
p360
aV2010s
p361
asVMN0000180228
p362
(lp363
V1950s
p364
aV1960s
p365
aV1970s
p366
asVMN0000393031
p367
(lp368
V1960s
p369
aV1970s
p370
aV1980s
p371
aV2000s
p372
aV2010s
p373
asVMN0000391003
p374
(lp375
V1960s
p376
aV1970s
p377
aV1980s
p378
aV1990s
p379
aV2000s
p380
asVMN0000402872
p381
(lp382
V1960s
p383
aV1970s
p384
aV1980s
p385
aV1990s
p386
aV2000s
p387
asVMN0000031380
p388
(lp389
V1980s
p390
aV1990s
p391
aV2000s
p392
aV2010s
p393
asVMN0000014651
p394
(lp395
V1950s
p396
aV1960s
p397
asVMN0000858375
p398
(lp399
V1980s
p400
aV1990s
p401
aV2000s
p402
aV2010s
p403
asVMN0000961234
p404
(lp405
V1990s
p406
aV2000s
p407
aV2010s
p408
asVMN0000813463
p409
(lp410
V1970s
p411
aV1980s
p412
aV1990s
p413
aV2000s
p414
aV2010s
p415
asVMN0000201760
p416
(lp417
V1960s
p418
aV1970s
p419
aV1980s
p420
aV1990s
p421
aV2000s
p422
aV2010s
p423
asVMN0000079960
p424
(lp425
V1970s
p426
aV1980s
p427
aV1990s
p428
aV2000s
p429
aV2010s
p430
asVMN0000270497
p431
(lp432
V1970s
p433
aV1980s
p434
aV1990s
p435
aV2000s
p436
aV2010s
p437
asVMN0000041874
p438
(lp439
V1960s
p440
aV1970s
p441
aV1980s
p442
aV1990s
p443
aV2000s
p444
aV2010s
p445
asVMN0000599732
p446
(lp447
V1980s
p448
aV1990s
p449
aV2000s
p450
asVMN0000667669
p451
(lp452
V1990s
p453
aV2000s
p454
aV2010s
p455
asVMN0000270491
p456
(lp457
V1960s
p458
aV1970s
p459
aV1980s
p460
aV1990s
p461
aV2000s
p462
aV2010s
p463
asVMN0000290072
p464
(lp465
V1960s
p466
aV1970s
p467
aV1980s
p468
aV1990s
p469
aV2000s
p470
aV2010s
p471
asVMN0000011754
p472
(lp473
V1980s
p474
aV1990s
p475
aV2000s
p476
aV2010s
p477
asVMN0000139089
p478
(lp479
V1980s
p480
aV1990s
p481
aV2000s
p482
aV2010s
p483
asVMN0000475431
p484
(lp485
V1980s
p486
aV1990s
p487
aV2000s
p488
aV2010s
p489
asVMN0000066915
p490
(lp491
V1960s
p492
aV1970s
p493
aV1980s
p494
aV1990s
p495
aV2000s
p496
aV2010s
p497
asVMN0000792530
p498
(lp499
V1980s
p500
aV1990s
p501
aV2000s
p502
aV2010s
p503
asVMN0000147785
p504
(lp505
V1990s
p506
aV2000s
p507
aV2010s
p508
asVMN0000113300
p509
(lp510
V1970s
p511
aV1980s
p512
aV1990s
p513
aV2000s
p514
aV2010s
p515
asVMN0000175579
p516
(lp517
V1990s
p518
aV2000s
p519
aV2010s
p520
asVMN0000048507
p521
(lp522
V1980s
p523
aV1990s
p524
aV2000s
p525
aV2010s
p526
asVMN0000864209
p527
(lp528
V1950s
p529
aV1960s
p530
aV1970s
p531
aV1980s
p532
aV1990s
p533
aV2000s
p534
aV2010s
p535
asVMN0000026227
p536
(lp537
V1960s
p538
aV1970s
p539
aV1980s
p540
aV1990s
p541
aV2000s
p542
aV2010s
p543
asVMN0000289599
p544
(lp545
V1990s
p546
aV2000s
p547
aV2010s
p548
asVMN0000127063
p549
(lp550
V1980s
p551
aV1990s
p552
aV2000s
p553
aV2010s
p554
asVMN0000105129
p555
(lp556
V1990s
p557
aV2000s
p558
aV2010s
p559
asVMN0000260212
p560
(lp561
V1980s
p562
aV1990s
p563
aV2000s
p564
aV2010s
p565
asVMN0000988471
p566
(lp567
V1980s
p568
aV1990s
p569
aV2000s
p570
aV2010s
p571
asVMN0000164053
p572
(lp573
V1990s
p574
aV2000s
p575
aV2010s
p576
asVMN0000131650
p577
(lp578
V1970s
p579
aV1980s
p580
aV1990s
p581
asVMN0000047789
p582
(lp583
V1980s
p584
aV1990s
p585
aV2000s
p586
aV2010s
p587
asVMN0000002923
p588
(lp589
V1980s
p590
aV1990s
p591
aV2000s
p592
aV2010s
p593
asVMN0000123754
p594
(lp595
V1970s
p596
aV1980s
p597
aV1990s
p598
aV2000s
p599
aV2010s
p600
asVMN0000199995
p601
(lp602
V1960s
p603
aV1970s
p604
aV1980s
p605
aV1990s
p606
aV2000s
p607
aV2010s
p608
asVMN0000358408
p609
(lp610
V1980s
p611
aV1990s
p612
aV2000s
p613
asVMN0000084446
p614
(lp615
V2000s
p616
aV2010s
p617
asVMN0000106916
p618
(lp619
V1990s
p620
aV2000s
p621
aV2010s
p622
asVMN0000776371
p623
(lp624
V1990s
p625
aV2000s
p626
asVMN0000328014
p627
(lp628
V1960s
p629
aV1970s
p630
aV1980s
p631
asVMN0000622805
p632
(lp633
V1960s
p634
aV1970s
p635
aV1980s
p636
aV1990s
p637
aV2000s
p638
aV2010s
p639
asVMN0000091549
p640
(lp641
V1990s
p642
aV2000s
p643
aV2010s
p644
asVMN0000094813
p645
(lp646
V1990s
p647
aV2000s
p648
aV2010s
p649
asVMN0000747757
p650
(lp651
V1970s
p652
aV1980s
p653
asVMN0000345355
p654
(lp655
V1980s
p656
aV1990s
p657
aV2000s
p658
aV2010s
p659
asVMN0000963005
p660
(lp661
V1980s
p662
aV1990s
p663
aV2000s
p664
aV2010s
p665
asVMN0000390390
p666
(lp667
V1950s
p668
aV1960s
p669
aV1970s
p670
aV1980s
p671
aV1990s
p672
aV2000s
p673
aV2010s
p674
asVMN0000263271
p675
(lp676
V1990s
p677
aV2000s
p678
aV2010s
p679
asVMN0000137390
p680
(lp681
V1970s
p682
aV1980s
p683
aV1990s
p684
aV2000s
p685
aV2010s
p686
asVMN0000193320
p687
(lp688
V1970s
p689
aV1980s
p690
aV1990s
p691
aV2000s
p692
aV2010s
p693
asVMN0000151979
p694
(lp695
V1960s
p696
aV1970s
p697
aV1980s
p698
asVMN0000743623
p699
(lp700
V1990s
p701
aV2000s
p702
aV2010s
p703
asVMN0000156938
p704
(lp705
V1990s
p706
aV2000s
p707
aV2010s
p708
asVMN0000578999
p709
(lp710
V1990s
p711
aV2000s
p712
asVMN0000757085
p713
(lp714
V1980s
p715
aV1990s
p716
aV2000s
p717
aV2010s
p718
asVMN0000081619
p719
(lp720
V1990s
p721
aV2000s
p722
aV2010s
p723
asVMN0000077732
p724
(lp725
V1950s
p726
aV1960s
p727
aV1970s
p728
asVMN0000043714
p729
(lp730
V1960s
p731
aV1970s
p732
aV1980s
p733
aV1990s
p734
aV2000s
p735
asVMN0000685647
p736
(lp737
V1960s
p738
aV1970s
p739
aV1980s
p740
aV1990s
p741
aV2000s
p742
aV2010s
p743
asVMN0000084209
p744
(lp745
V1970s
p746
aV1980s
p747
aV1990s
p748
aV2000s
p749
aV2010s
p750
asVMN0000608945
p751
(lp752
V1990s
p753
aV2000s
p754
aV2010s
p755
asVMN0000152023
p756
(lp757
V1990s
p758
aV2000s
p759
aV2010s
p760
asVMN0000105354
p761
(lp762
V1970s
p763
aV1980s
p764
aV1990s
p765
aV2000s
p766
aV2010s
p767
asVMN0000334193
p768
(lp769
V1980s
p770
aV1990s
p771
aV2000s
p772
aV2010s
p773
asVMN0000929862
p774
(lp775
V1970s
p776
aV1980s
p777
aV1990s
p778
aV2000s
p779
aV2010s
p780
asVMN0000227352
p781
(lp782
V1950s
p783
aV1960s
p784
aV1970s
p785
aV1980s
p786
asVMN0000536275
p787
(lp788
V1970s
p789
aV1980s
p790
aV1990s
p791
aV2000s
p792
aV2010s
p793
asVMN0000583959
p794
(lp795
V1950s
p796
aV1960s
p797
aV1970s
p798
aV1980s
p799
aV1990s
p800
aV2000s
p801
aV2010s
p802
asVMN0000194063
p803
(lp804
V1990s
p805
aV2000s
p806
aV2010s
p807
asVMN0000252495
p808
(lp809
V1960s
p810
aV1970s
p811
aV1980s
p812
aV1990s
p813
aV2000s
p814
aV2010s
p815
asVMN0000372322
p816
(lp817
V1980s
p818
aV1990s
p819
aV2000s
p820
aV2010s
p821
asVMN0000850692
p822
(lp823
V1960s
p824
aV1970s
p825
aV1980s
p826
aV1990s
p827
aV2000s
p828
aV2010s
p829
asVMN0000029808
p830
(lp831
V1980s
p832
aV1990s
p833
aV2000s
p834
aV2010s
p835
asVMN0000351227
p836
(lp837
V1980s
p838
aV1990s
p839
aV2000s
p840
aV2010s
p841
asVMN0000926237
p842
(lp843
V1990s
p844
aV2000s
p845
aV2010s
p846
asVMN0000099246
p847
(lp848
V1980s
p849
aV1990s
p850
aV2000s
p851
asVMN0000246628
p852
(lp853
V1950s
p854
aV1960s
p855
aV1970s
p856
aV1990s
p857
aV2000s
p858
aV2010s
p859
asVMN0000361393
p860
(lp861
V1970s
p862
aV1980s
p863
aV1990s
p864
aV2000s
p865
aV2010s
p866
asVMN0000892827
p867
(lp868
V1990s
p869
asVMN0000383889
p870
(lp871
V1990s
p872
aV2000s
p873
aV2010s
p874
asVMN0000478982
p875
(lp876
V1980s
p877
aV1990s
p878
aV2000s
p879
asVMN0000081316
p880
(lp881
V1990s
p882
aV2000s
p883
aV2010s
p884
asVMN0000113753
p885
(lp886
V1990s
p887
aV2000s
p888
aV2010s
p889
asVMN0000317865
p890
(lp891
V1990s
p892
aV2000s
p893
aV2010s
p894
asVMN0000094752
p895
(lp896
V1980s
p897
aV1990s
p898
aV2000s
p899
aV2010s
p900
asVMN0000826762
p901
(lp902
V1990s
p903
aV2000s
p904
aV2010s
p905
asVMN0000085915
p906
(lp907
V1960s
p908
aV1970s
p909
aV1980s
p910
aV1990s
p911
aV2000s
p912
aV2010s
p913
asVMN0000000534
p914
(lp915
V1990s
p916
aV2000s
p917
asVMN0000865016
p918
(lp919
V1980s
p920
aV1990s
p921
aV2000s
p922
aV2010s
p923
asVMN0000845662
p924
(lp925
V1990s
p926
aV2000s
p927
aV2010s
p928
asVMN0000022928
p929
(lp930
V1960s
p931
aV1970s
p932
aV1980s
p933
aV1990s
p934
aV2000s
p935
aV2010s
p936
asVMN0000129775
p937
(lp938
V1960s
p939
aV1970s
p940
aV1980s
p941
aV1990s
p942
aV2000s
p943
asVMN0000678339
p944
(lp945
V1970s
p946
aV1980s
p947
aV1990s
p948
aV2000s
p949
asVMN0000624215
p950
(lp951
V1960s
p952
aV1970s
p953
aV1980s
p954
aV1990s
p955
aV2000s
p956
aV2010s
p957
asVMN0000225930
p958
(lp959
V1990s
p960
aV2000s
p961
aV2010s
p962
asVMN0000605375
p963
(lp964
V1990s
p965
aV2000s
p966
aV2010s
p967
asVMN0000816538
p968
(lp969
V1950s
p970
aV1960s
p971
aV1970s
p972
aV1980s
p973
aV1990s
p974
asVMN0000130689
p975
(lp976
V1960s
p977
aV1970s
p978
aV1980s
p979
aV1990s
p980
aV2000s
p981
aV2010s
p982
asVMN0000144847
p983
(lp984
V1970s
p985
aV1980s
p986
aV1990s
p987
aV2000s
p988
aV2010s
p989
asVMN0000737886
p990
(lp991
V1990s
p992
aV2000s
p993
aV2010s
p994
asVMN0000165077
p995
(lp996
V1990s
p997
aV2000s
p998
asVMN0000206241
p999
(lp1000
V1980s
p1001
aV1990s
p1002
aV2000s
p1003
asVMN0000303506
p1004
(lp1005
V1990s
p1006
aV2000s
p1007
aV2010s
p1008
asVMN0000923033
p1009
(lp1010
V1970s
p1011
aV1980s
p1012
aV1990s
p1013
aV2000s
p1014
aV2010s
p1015
asVMN0000612716
p1016
(lp1017
V1970s
p1018
aV1980s
p1019
aV1990s
p1020
aV2000s
p1021
aV2010s
p1022
asVMN0000237205
p1023
(lp1024
V1980s
p1025
aV1990s
p1026
aV2000s
p1027
aV2010s
p1028
asVMN0000011707
p1029
(lp1030
V1970s
p1031
aV1980s
p1032
aV1990s
p1033
aV2000s
p1034
aV2010s
p1035
asVMN0000621639
p1036
(lp1037
V1980s
p1038
aV1990s
p1039
aV2000s
p1040
asVMN0000842802
p1041
(lp1042
V1970s
p1043
aV1980s
p1044
aV1990s
p1045
aV2000s
p1046
aV2010s
p1047
asVMN0000029086
p1048
(lp1049
V1990s
p1050
aV2000s
p1051
aV2010s
p1052
asVMN0000894465
p1053
(lp1054
V1960s
p1055
aV1970s
p1056
aV1980s
p1057
aV1990s
p1058
aV2000s
p1059
aV2010s
p1060
asVMN0000101946
p1061
(lp1062
V1960s
p1063
aV1970s
p1064
aV1980s
p1065
aV1990s
p1066
aV2000s
p1067
asVMN0000098342
p1068
(lp1069
V1980s
p1070
aV1990s
p1071
aV2000s
p1072
aV2010s
p1073
asVMN0000816890
p1074
(lp1075
V1950s
p1076
aV1960s
p1077
aV1970s
p1078
aV1980s
p1079
aV1990s
p1080
aV2000s
p1081
asVMN0000830538
p1082
(lp1083
V1960s
p1084
aV1970s
p1085
aV1980s
p1086
aV1990s
p1087
aV2000s
p1088
aV2010s
p1089
asVMN0000270667
p1090
(lp1091
V1990s
p1092
aV2000s
p1093
aV2010s
p1094
asVMN0000144458
p1095
(lp1096
V1950s
p1097
aV1960s
p1098
aV1970s
p1099
aV1980s
p1100
aV1990s
p1101
asVMN0000546214
p1102
(lp1103
V1980s
p1104
aV1990s
p1105
aV2000s
p1106
aV2010s
p1107
asVMN0000748222
p1108
(lp1109
V1970s
p1110
aV1980s
p1111
aV1990s
p1112
aV2000s
p1113
asVMN0000027136
p1114
(lp1115
V1980s
p1116
aV1990s
p1117
aV2000s
p1118
aV2010s
p1119
asVMN0000264350
p1120
(lp1121
V1990s
p1122
aV2000s
p1123
aV2010s
p1124
asVMN0000303626
p1125
(lp1126
V1970s
p1127
aV1980s
p1128
aV1990s
p1129
aV2000s
p1130
aV2010s
p1131
asVMN0000604852
p1132
(lp1133
V1970s
p1134
aV1980s
p1135
aV1990s
p1136
aV2000s
p1137
aV2010s
p1138
asVMN0000017387
p1139
(lp1140
V1990s
p1141
aV2000s
p1142
aV2010s
p1143
asVMN0000057663
p1144
(lp1145
V1990s
p1146
aV2000s
p1147
aV2010s
p1148
asVMN0000242211
p1149
(lp1150
V1990s
p1151
aV2000s
p1152
aV2010s
p1153
asVMN0000128099
p1154
(lp1155
V1950s
p1156
aV1960s
p1157
aV1970s
p1158
aV1980s
p1159
aV1990s
p1160
aV2000s
p1161
asVMN0000645474
p1162
(lp1163
V1970s
p1164
aV1980s
p1165
aV1990s
p1166
aV2000s
p1167
aV2010s
p1168
asVMN0000785101
p1169
(lp1170
V1980s
p1171
aV1990s
p1172
aV2000s
p1173
aV2010s
p1174
asVMN0000037730
p1175
(lp1176
V1990s
p1177
aV2000s
p1178
aV2010s
p1179
asVMN0000316834
p1180
(lp1181
V1950s
p1182
aV1960s
p1183
aV1970s
p1184
aV1980s
p1185
asVMN0000224345
p1186
(lp1187
V1990s
p1188
aV2000s
p1189
asVMN0000281254
p1190
(lp1191
V1990s
p1192
aV2000s
p1193
aV2010s
p1194
asVMN0000007689
p1195
(lp1196
V1990s
p1197
aV2000s
p1198
asVMN0000227088
p1199
(lp1200
V1990s
p1201
aV2000s
p1202
aV2010s
p1203
asVMN0000020050
p1204
(lp1205
V1960s
p1206
aV1970s
p1207
aV1980s
p1208
aV1990s
p1209
aV2000s
p1210
asVMN0000262794
p1211
(lp1212
V1980s
p1213
aV1990s
p1214
aV2000s
p1215
aV2010s
p1216
asVMN0000224186
p1217
(lp1218
V1970s
p1219
aV1980s
p1220
aV1990s
p1221
aV2000s
p1222
aV2010s
p1223
asVMN0000045313
p1224
(lp1225
V1960s
p1226
aV1970s
p1227
aV1980s
p1228
aV1990s
p1229
aV2000s
p1230
aV2010s
p1231
asVMN0000146841
p1232
(lp1233
V2000s
p1234
aV2010s
p1235
asVMN0000169677
p1236
(lp1237
V1950s
p1238
aV1960s
p1239
aV1970s
p1240
aV1980s
p1241
aV1990s
p1242
aV2000s
p1243
asVMN0000597309
p1244
(lp1245
V1950s
p1246
aV1960s
p1247
aV1970s
p1248
aV1980s
p1249
aV1990s
p1250
aV2000s
p1251
aV2010s
p1252
asVMN0000690254
p1253
(lp1254
V1970s
p1255
aV1980s
p1256
aV1990s
p1257
aV2000s
p1258
aV2010s
p1259
asVMN0000317108
p1260
(lp1261
V1970s
p1262
aV1980s
p1263
aV1990s
p1264
aV2000s
p1265
aV2010s
p1266
asVMN0000659517
p1267
(lp1268
V1960s
p1269
aV1970s
p1270
aV1980s
p1271
aV1990s
p1272
aV2000s
p1273
aV2010s
p1274
asVMN0000355208
p1275
(lp1276
V1990s
p1277
asVMN0000134600
p1278
(lp1279
V1990s
p1280
aV2000s
p1281
aV2010s
p1282
asVMN0000610339
p1283
(lp1284
V1980s
p1285
aV1990s
p1286
aV2000s
p1287
aV2010s
p1288
asVMN0000669303
p1289
(lp1290
V1960s
p1291
aV1970s
p1292
aV1980s
p1293
aV1990s
p1294
aV2000s
p1295
aV2010s
p1296
asVMN0000478603
p1297
(lp1298
V1960s
p1299
aV1970s
p1300
aV1980s
p1301
aV1990s
p1302
aV2010s
p1303
asVMN0000955647
p1304
(lp1305
V1950s
p1306
aV1960s
p1307
aV1970s
p1308
aV1980s
p1309
aV1990s
p1310
aV2000s
p1311
aV2010s
p1312
asVMN0000765595
p1313
(lp1314
V1990s
p1315
aV2000s
p1316
aV2010s
p1317
asVMN0000078467
p1318
(lp1319
V1980s
p1320
asVMN0000162269
p1321
(lp1322
V1990s
p1323
aV2000s
p1324
aV2010s
p1325
asVMN0000260206
p1326
(lp1327
V1970s
p1328
aV1980s
p1329
aV1990s
p1330
aV2000s
p1331
aV2010s
p1332
asVMN0000665908
p1333
(lp1334
V1990s
p1335
aV2000s
p1336
aV2010s
p1337
asVMN0000069534
p1338
(lp1339
V1980s
p1340
aV1990s
p1341
aV2000s
p1342
aV2010s
p1343
asVMN0000665860
p1344
(lp1345
V1990s
p1346
aV2000s
p1347
aV2010s
p1348
asVMN0000033666
p1349
(lp1350
V1970s
p1351
aV1980s
p1352
aV1990s
p1353
aV2000s
p1354
asVMN0000182900
p1355
(lp1356
V1960s
p1357
aV1970s
p1358
aV1980s
p1359
aV1990s
p1360
aV2000s
p1361
aV2010s
p1362
asVMN0000262255
p1363
(lp1364
V1980s
p1365
aV1990s
p1366
aV2000s
p1367
aV2010s
p1368
asVMN0000797431
p1369
(lp1370
V1990s
p1371
aV2000s
p1372
asVMN0000006987
p1373
(lp1374
V2000s
p1375
aV2010s
p1376
asVMN0000594665
p1377
(lp1378
V1960s
p1379
aV1970s
p1380
aV1980s
p1381
aV1990s
p1382
aV2000s
p1383
aV2010s
p1384
asVMN0000138699
p1385
(lp1386
V1950s
p1387
aV1960s
p1388
aV1970s
p1389
aV1980s
p1390
aV1990s
p1391
asVMN0000183311
p1392
(lp1393
V1980s
p1394
aV1990s
p1395
asVMN0000072041
p1396
(lp1397
V1960s
p1398
aV1970s
p1399
aV1980s
p1400
aV1990s
p1401
aV2000s
p1402
aV2010s
p1403
asVMN0000304401
p1404
(lp1405
V1960s
p1406
aV1970s
p1407
aV1990s
p1408
aV2000s
p1409
aV2010s
p1410
asVMN0000496487
p1411
(lp1412
V1970s
p1413
aV1980s
p1414
aV1990s
p1415
aV2000s
p1416
aV2010s
p1417
asVMN0000279337
p1418
(lp1419
V1980s
p1420
aV1990s
p1421
aV2000s
p1422
aV2010s
p1423
asVMN0000806542
p1424
(lp1425
V1950s
p1426
aV1960s
p1427
aV1970s
p1428
aV1980s
p1429
aV1990s
p1430
aV2000s
p1431
aV2010s
p1432
asVMN0000762496
p1433
(lp1434
V1990s
p1435
aV2000s
p1436
asVMN0000626939
p1437
(lp1438
V1990s
p1439
aV2000s
p1440
aV2010s
p1441
asVMN0000174557
p1442
(lp1443
V1950s
p1444
aV1960s
p1445
aV1970s
p1446
aV1980s
p1447
aV1990s
p1448
aV2000s
p1449
aV2010s
p1450
asVMN0000204386
p1451
(lp1452
V1960s
p1453
aV1970s
p1454
aV1980s
p1455
aV1990s
p1456
aV2000s
p1457
aV2010s
p1458
asVMN0000420381
p1459
(lp1460
V1990s
p1461
aV2000s
p1462
aV2010s
p1463
asVMN0000012472
p1464
(lp1465
V1960s
p1466
aV1970s
p1467
asVMN0000576718
p1468
(lp1469
V1980s
p1470
aV1990s
p1471
aV2000s
p1472
aV2010s
p1473
asVMN0000796734
p1474
(lp1475
V1960s
p1476
aV1970s
p1477
aV1980s
p1478
aV1990s
p1479
aV2000s
p1480
aV2010s
p1481
asVMN0000768321
p1482
(lp1483
V1970s
p1484
aV1980s
p1485
aV1990s
p1486
aV2000s
p1487
aV2010s
p1488
asVMN0000792839
p1489
(lp1490
V1980s
p1491
aV1990s
p1492
aV2000s
p1493
aV2010s
p1494
asVMN0000927555
p1495
(lp1496
V1950s
p1497
aV1960s
p1498
aV1970s
p1499
aV1980s
p1500
aV1990s
p1501
aV2000s
p1502
aV2010s
p1503
asVMN0000768328
p1504
(lp1505
V2000s
p1506
aV2010s
p1507
asVMN0000339624
p1508
(lp1509
V1970s
p1510
aV1980s
p1511
aV1990s
p1512
aV2000s
p1513
aV2010s
p1514
asVMN0000758453
p1515
(lp1516
V1980s
p1517
aV1990s
p1518
aV2000s
p1519
aV2010s
p1520
asVMN0000048903
p1521
(lp1522
V2000s
p1523
aV2010s
p1524
asVMN0000110011
p1525
(lp1526
V1990s
p1527
aV2000s
p1528
aV2010s
p1529
asVMN0000298764
p1530
(lp1531
V1980s
p1532
aV1990s
p1533
aV2000s
p1534
aV2010s
p1535
asVMN0000208774
p1536
(lp1537
V1970s
p1538
aV1980s
p1539
aV1990s
p1540
aV2000s
p1541
aV2010s
p1542
asVMN0000696015
p1543
(lp1544
V1970s
p1545
aV1980s
p1546
aV1990s
p1547
aV2000s
p1548
aV2010s
p1549
asVMN0000159214
p1550
(lp1551
V1950s
p1552
aV1960s
p1553
aV1970s
p1554
aV1980s
p1555
aV1990s
p1556
as.